ARM GAS  C:\Users\Marcelo\AppData\Local\Temp\ccONtIG1.s 			page 1


   1              		.cpu cortex-m4
   2              		.eabi_attribute 20, 1
   3              		.eabi_attribute 21, 1
   4              		.eabi_attribute 23, 3
   5              		.eabi_attribute 24, 1
   6              		.eabi_attribute 25, 1
   7              		.eabi_attribute 26, 1
   8              		.eabi_attribute 30, 1
   9              		.eabi_attribute 34, 1
  10              		.eabi_attribute 18, 4
  11              		.file	"hello.c"
  12              		.text
  13              	.Ltext0:
  14              		.cfi_sections	.debug_frame
  15              		.align	1
  16              		.global	BodyTask
  17              		.syntax unified
  18              		.thumb
  19              		.thumb_func
  20              		.fpu softvfp
  21              		.type	BodyTask, %function
  22              	BodyTask:
  23              	.LFB3:
  24              		.file 1 "Threads/pingpong-tasks2.c"
   1:Threads/pingpong-tasks2.c **** // PingPongOS - PingPong Operating System
   2:Threads/pingpong-tasks2.c **** // Prof. Carlos A. Maziero, DINF UFPR
   3:Threads/pingpong-tasks2.c **** // Versão 1.1 -- Julho de 2016
   4:Threads/pingpong-tasks2.c **** 
   5:Threads/pingpong-tasks2.c **** // Teste da gestão básica de tarefas
   6:Threads/pingpong-tasks2.c **** 
   7:Threads/pingpong-tasks2.c **** #include <stdio.h>
   8:Threads/pingpong-tasks2.c **** #include <stdlib.h>
   9:Threads/pingpong-tasks2.c **** #include <stdint.h>
  10:Threads/pingpong-tasks2.c **** #include "thread.h"
  11:Threads/pingpong-tasks2.c **** 
  12:Threads/pingpong-tasks2.c **** #define MAXTASK 20
  13:Threads/pingpong-tasks2.c **** 
  14:Threads/pingpong-tasks2.c **** uint32_t activeThread = 0;
  15:Threads/pingpong-tasks2.c **** 
  16:Threads/pingpong-tasks2.c **** // corpo das threads
  17:Threads/pingpong-tasks2.c **** void BodyTask(void *arg)
  18:Threads/pingpong-tasks2.c **** {
  25              		.loc 1 18 0
  26              		.cfi_startproc
  27              		@ args = 0, pretend = 0, frame = 0
  28              		@ frame_needed = 0, uses_anonymous_args = 0
  29              	.LVL0:
  30 0000 F8B5     		push	{r3, r4, r5, r6, r7, lr}
  31              	.LCFI0:
  32              		.cfi_def_cfa_offset 24
  33              		.cfi_offset 3, -24
  34              		.cfi_offset 4, -20
  35              		.cfi_offset 5, -16
  36              		.cfi_offset 6, -12
  37              		.cfi_offset 7, -8
  38              		.cfi_offset 14, -4
  39              	.LVL1:
ARM GAS  C:\Users\Marcelo\AppData\Local\Temp\ccONtIG1.s 			page 2


  19:Threads/pingpong-tasks2.c **** 
  20:Threads/pingpong-tasks2.c ****   uint8_t status = 0;
  40              		.loc 1 20 0
  41 0002 0025     		movs	r5, #0
  21:Threads/pingpong-tasks2.c ****   while (1)
  22:Threads/pingpong-tasks2.c ****   {
  23:Threads/pingpong-tasks2.c ****     if (activeThread == getCurrentThread() && status == 0)
  42              		.loc 1 23 0
  43 0004 1A4C     		ldr	r4, .L9
  24:Threads/pingpong-tasks2.c ****     {
  25:Threads/pingpong-tasks2.c ****         UARTprintf("Iniciei  tarefa (current: %i, active: %i, status: %i)\n", getCurrentThread(), a
  26:Threads/pingpong-tasks2.c ****       activeThread++;
  27:Threads/pingpong-tasks2.c ****       status = 1;
  28:Threads/pingpong-tasks2.c ****     }
  29:Threads/pingpong-tasks2.c ****     if (activeThread == getCurrentThread() && status == 1)
  30:Threads/pingpong-tasks2.c ****     {
  31:Threads/pingpong-tasks2.c ****         UARTprintf("Encerrei  tarefa (current: %i, active: %i, status: %i)\n", getCurrentThread(), 
  44              		.loc 1 31 0
  45 0006 1B4F     		ldr	r7, .L9+4
  25:Threads/pingpong-tasks2.c ****       activeThread++;
  46              		.loc 1 25 0
  47 0008 1B4E     		ldr	r6, .L9+8
  48              	.LVL2:
  49              	.L2:
  23:Threads/pingpong-tasks2.c ****     {
  50              		.loc 1 23 0
  51 000a FFF7FEFF 		bl	getCurrentThread
  52              	.LVL3:
  53 000e 2368     		ldr	r3, [r4]
  54 0010 9842     		cmp	r0, r3
  55 0012 0AD0     		beq	.L7
  56              	.L3:
  29:Threads/pingpong-tasks2.c ****     {
  57              		.loc 1 29 0
  58 0014 FFF7FEFF 		bl	getCurrentThread
  59              	.LVL4:
  60 0018 2368     		ldr	r3, [r4]
  61 001a 9842     		cmp	r0, r3
  62 001c 19D0     		beq	.L8
  63              	.LVL5:
  64              	.L5:
  32:Threads/pingpong-tasks2.c ****       activeThread++;
  33:Threads/pingpong-tasks2.c ****       status = 2;
  34:Threads/pingpong-tasks2.c ****     }
  35:Threads/pingpong-tasks2.c ****     if (activeThread>=MAXTASK){activeThread = 0;}
  65              		.loc 1 35 0
  66 001e 2368     		ldr	r3, [r4]
  67 0020 132B     		cmp	r3, #19
  68 0022 F2D9     		bls	.L2
  69              		.loc 1 35 0 is_stmt 0 discriminator 1
  70 0024 0023     		movs	r3, #0
  71 0026 2360     		str	r3, [r4]
  72 0028 EFE7     		b	.L2
  73              	.L7:
  23:Threads/pingpong-tasks2.c ****     {
  74              		.loc 1 23 0 is_stmt 1 discriminator 1
  75 002a 002D     		cmp	r5, #0
ARM GAS  C:\Users\Marcelo\AppData\Local\Temp\ccONtIG1.s 			page 3


  76 002c F2D1     		bne	.L3
  25:Threads/pingpong-tasks2.c ****       activeThread++;
  77              		.loc 1 25 0
  78 002e FFF7FEFF 		bl	getCurrentThread
  79              	.LVL6:
  80 0032 0023     		movs	r3, #0
  81 0034 2268     		ldr	r2, [r4]
  82 0036 0146     		mov	r1, r0
  83 0038 3046     		mov	r0, r6
  84 003a FFF7FEFF 		bl	UARTprintf
  85              	.LVL7:
  26:Threads/pingpong-tasks2.c ****       status = 1;
  86              		.loc 1 26 0
  87 003e 2368     		ldr	r3, [r4]
  88 0040 0133     		adds	r3, r3, #1
  89 0042 2360     		str	r3, [r4]
  90              	.LVL8:
  29:Threads/pingpong-tasks2.c ****     {
  91              		.loc 1 29 0
  92 0044 FFF7FEFF 		bl	getCurrentThread
  93              	.LVL9:
  94 0048 2368     		ldr	r3, [r4]
  95 004a 9842     		cmp	r0, r3
  96 004c 03D0     		beq	.L4
  27:Threads/pingpong-tasks2.c ****     }
  97              		.loc 1 27 0
  98 004e 0125     		movs	r5, #1
  99 0050 E5E7     		b	.L5
 100              	.LVL10:
 101              	.L8:
  29:Threads/pingpong-tasks2.c ****     {
 102              		.loc 1 29 0 discriminator 1
 103 0052 012D     		cmp	r5, #1
 104 0054 E3D1     		bne	.L5
 105              	.LVL11:
 106              	.L4:
  31:Threads/pingpong-tasks2.c ****       activeThread++;
 107              		.loc 1 31 0
 108 0056 FFF7FEFF 		bl	getCurrentThread
 109              	.LVL12:
 110 005a 0123     		movs	r3, #1
 111 005c 2268     		ldr	r2, [r4]
 112 005e 0146     		mov	r1, r0
 113 0060 3846     		mov	r0, r7
 114 0062 FFF7FEFF 		bl	UARTprintf
 115              	.LVL13:
  32:Threads/pingpong-tasks2.c ****       status = 2;
 116              		.loc 1 32 0
 117 0066 2368     		ldr	r3, [r4]
 118 0068 0133     		adds	r3, r3, #1
 119 006a 2360     		str	r3, [r4]
 120              	.LVL14:
  33:Threads/pingpong-tasks2.c ****     }
 121              		.loc 1 33 0
 122 006c 0225     		movs	r5, #2
 123 006e D6E7     		b	.L5
 124              	.L10:
ARM GAS  C:\Users\Marcelo\AppData\Local\Temp\ccONtIG1.s 			page 4


 125              		.align	2
 126              	.L9:
 127 0070 00000000 		.word	.LANCHOR0
 128 0074 38000000 		.word	.LC1
 129 0078 00000000 		.word	.LC0
 130              		.cfi_endproc
 131              	.LFE3:
 132              		.size	BodyTask, .-BodyTask
 133              		.align	1
 134              		.global	__error__
 135              		.syntax unified
 136              		.thumb
 137              		.thumb_func
 138              		.fpu softvfp
 139              		.type	__error__, %function
 140              	__error__:
 141              	.LFB4:
 142              		.file 2 "hello.c"
   1:hello.c       **** //*****************************************************************************
   2:hello.c       **** //
   3:hello.c       **** // hello.c - Simple hello world example.
   4:hello.c       **** //
   5:hello.c       **** // Copyright (c) 2013-2014 Texas Instruments Incorporated.  All rights reserved.
   6:hello.c       **** // Software License Agreement
   7:hello.c       **** //
   8:hello.c       **** // Texas Instruments (TI) is supplying this software for use solely and
   9:hello.c       **** // exclusively on TI's microcontroller products. The software is owned by
  10:hello.c       **** // TI and/or its suppliers, and is protected under applicable copyright
  11:hello.c       **** // laws. You may not combine this software with "viral" open-source
  12:hello.c       **** // software in order to form a larger program.
  13:hello.c       **** //
  14:hello.c       **** // THIS SOFTWARE IS PROVIDED "AS IS" AND WITH ALL FAULTS.
  15:hello.c       **** // NO WARRANTIES, WHETHER EXPRESS, IMPLIED OR STATUTORY, INCLUDING, BUT
  16:hello.c       **** // NOT LIMITED TO, IMPLIED WARRANTIES OF MERCHANTABILITY AND FITNESS FOR
  17:hello.c       **** // A PARTICULAR PURPOSE APPLY TO THIS SOFTWARE. TI SHALL NOT, UNDER ANY
  18:hello.c       **** // CIRCUMSTANCES, BE LIABLE FOR SPECIAL, INCIDENTAL, OR CONSEQUENTIAL
  19:hello.c       **** // DAMAGES, FOR ANY REASON WHATSOEVER.
  20:hello.c       **** //
  21:hello.c       **** // This is part of revision 2.1.0.12573 of the EK-TM4C1294XL Firmware Package.
  22:hello.c       **** //
  23:hello.c       **** //*****************************************************************************
  24:hello.c       **** 
  25:hello.c       **** #include <stdint.h>
  26:hello.c       **** #include <stdbool.h>
  27:hello.c       **** #include "hw_memmap.h"
  28:hello.c       **** #include "hw_types.h"
  29:hello.c       **** #include "driverlib/gpio.h"
  30:hello.c       **** #include "drivers/pinout.h"
  31:hello.c       **** #include "driverlib/pin_map.h"
  32:hello.c       **** #include "driverlib/rom.h"
  33:hello.c       **** #include "driverlib/rom_map.h"
  34:hello.c       **** #include "driverlib/sysctl.h"
  35:hello.c       **** #include "driverlib/uart.h"
  36:hello.c       **** #include "utils/uartstdio.h"
  37:hello.c       **** #include "Threads/thread.h"
  38:hello.c       **** #include "Threads/pingpong-tasks1.h"
  39:hello.c       **** #include "Threads/pingpong-tasks2.c"
ARM GAS  C:\Users\Marcelo\AppData\Local\Temp\ccONtIG1.s 			page 5


  40:hello.c       **** #include "debug.h"
  41:hello.c       **** 
  42:hello.c       **** #include <stdlib.h>
  43:hello.c       **** 
  44:hello.c       **** int testafila(void);
  45:hello.c       **** #define STACK_SIZE 64
  46:hello.c       **** #define MAXTASK 20
  47:hello.c       **** 
  48:hello.c       **** uint32_t *createThreadStack(void);
  49:hello.c       **** 
  50:hello.c       **** uint32_t Thread1Stack[STACK_SIZE];
  51:hello.c       **** uint32_t Thread2Stack[STACK_SIZE];
  52:hello.c       **** //uint32_t Thread3Stack[STACK_SIZE];
  53:hello.c       **** 
  54:hello.c       **** ThreadControlBlock task[MAXTASK + 1];
  55:hello.c       **** uint32_t ThreadStacks[MAXTASK][STACK_SIZE];
  56:hello.c       **** 
  57:hello.c       **** //*****************************************************************************
  58:hello.c       **** //
  59:hello.c       **** //! \addtogroup example_list
  60:hello.c       **** //! <h1>Hello World (hello)</h1>
  61:hello.c       **** //!
  62:hello.c       **** //! A very simple ``hello world'' example.  It simply displays ``Hello World!''
  63:hello.c       **** //! on the UART and is a starting point for more complicated applications.
  64:hello.c       **** //!
  65:hello.c       **** //! Open a terminal with 115,200 8-N-1 to see the output for this demo.
  66:hello.c       **** //
  67:hello.c       **** //*****************************************************************************
  68:hello.c       **** 
  69:hello.c       **** //*****************************************************************************
  70:hello.c       **** //
  71:hello.c       **** // System clock rate in Hz.
  72:hello.c       **** //
  73:hello.c       **** //*****************************************************************************
  74:hello.c       **** uint32_t g_ui32SysClock;
  75:hello.c       **** 
  76:hello.c       **** //*****************************************************************************
  77:hello.c       **** //
  78:hello.c       **** // The error routine that is called if the driver library encounters an error.
  79:hello.c       **** //
  80:hello.c       **** //*****************************************************************************
  81:hello.c       **** #ifdef DEBUG
  82:hello.c       **** void __error__(char *pcFilename, uint32_t ui32Line)
  83:hello.c       **** {
 143              		.loc 2 83 0
 144              		.cfi_startproc
 145              		@ args = 0, pretend = 0, frame = 0
 146              		@ frame_needed = 0, uses_anonymous_args = 0
 147              	.LVL15:
 148 007c 08B5     		push	{r3, lr}
 149              	.LCFI1:
 150              		.cfi_def_cfa_offset 8
 151              		.cfi_offset 3, -8
 152              		.cfi_offset 14, -4
  84:hello.c       ****   UARTprintf("%s %d\n", pcFilename, ui32Line);
 153              		.loc 2 84 0
 154 007e 0A46     		mov	r2, r1
ARM GAS  C:\Users\Marcelo\AppData\Local\Temp\ccONtIG1.s 			page 6


 155 0080 0146     		mov	r1, r0
 156              	.LVL16:
 157 0082 0248     		ldr	r0, .L12
 158              	.LVL17:
 159 0084 FFF7FEFF 		bl	UARTprintf
 160              	.LVL18:
  85:hello.c       **** }
 161              		.loc 2 85 0
 162 0088 08BD     		pop	{r3, pc}
 163              	.L13:
 164 008a 00BF     		.align	2
 165              	.L12:
 166 008c 70000000 		.word	.LC2
 167              		.cfi_endproc
 168              	.LFE4:
 169              		.size	__error__, .-__error__
 170              		.align	1
 171              		.global	ConfigureUART
 172              		.syntax unified
 173              		.thumb
 174              		.thumb_func
 175              		.fpu softvfp
 176              		.type	ConfigureUART, %function
 177              	ConfigureUART:
 178              	.LFB5:
  86:hello.c       **** #endif
  87:hello.c       **** 
  88:hello.c       **** //*****************************************************************************
  89:hello.c       **** //
  90:hello.c       **** // Configure the UART and its pins.  This must be called before UARTprintf().
  91:hello.c       **** //
  92:hello.c       **** //*****************************************************************************
  93:hello.c       **** void ConfigureUART(void)
  94:hello.c       **** {
 179              		.loc 2 94 0
 180              		.cfi_startproc
 181              		@ args = 0, pretend = 0, frame = 0
 182              		@ frame_needed = 0, uses_anonymous_args = 0
 183 0090 10B5     		push	{r4, lr}
 184              	.LCFI2:
 185              		.cfi_def_cfa_offset 8
 186              		.cfi_offset 4, -8
 187              		.cfi_offset 14, -4
  95:hello.c       ****   //
  96:hello.c       ****   // Enable the GPIO Peripheral used by the UART.
  97:hello.c       ****   //
  98:hello.c       ****   ROM_SysCtlPeripheralEnable(SYSCTL_PERIPH_GPIOA);
 188              		.loc 2 98 0
 189 0092 134C     		ldr	r4, .L15
 190 0094 2368     		ldr	r3, [r4]
 191 0096 9B69     		ldr	r3, [r3, #24]
 192 0098 1248     		ldr	r0, .L15+4
 193 009a 9847     		blx	r3
 194              	.LVL19:
  99:hello.c       **** 
 100:hello.c       ****   //
 101:hello.c       ****   // Enable UART0
ARM GAS  C:\Users\Marcelo\AppData\Local\Temp\ccONtIG1.s 			page 7


 102:hello.c       ****   //
 103:hello.c       ****   ROM_SysCtlPeripheralEnable(SYSCTL_PERIPH_UART0);
 195              		.loc 2 103 0
 196 009c 2368     		ldr	r3, [r4]
 197 009e 9B69     		ldr	r3, [r3, #24]
 198 00a0 1148     		ldr	r0, .L15+8
 199 00a2 9847     		blx	r3
 200              	.LVL20:
 104:hello.c       **** 
 105:hello.c       ****   //
 106:hello.c       ****   // Configure GPIO Pins for UART mode.
 107:hello.c       ****   //
 108:hello.c       ****   ROM_GPIOPinConfigure(GPIO_PA0_U0RX);
 201              		.loc 2 108 0
 202 00a4 243C     		subs	r4, r4, #36
 203 00a6 2368     		ldr	r3, [r4]
 204 00a8 9B6E     		ldr	r3, [r3, #104]
 205 00aa 0120     		movs	r0, #1
 206 00ac 9847     		blx	r3
 207              	.LVL21:
 109:hello.c       ****   ROM_GPIOPinConfigure(GPIO_PA1_U0TX);
 208              		.loc 2 109 0
 209 00ae 2368     		ldr	r3, [r4]
 210 00b0 9B6E     		ldr	r3, [r3, #104]
 211 00b2 40F20140 		movw	r0, #1025
 212 00b6 9847     		blx	r3
 213              	.LVL22:
 110:hello.c       ****   ROM_GPIOPinTypeUART(GPIO_PORTA_BASE, GPIO_PIN_0 | GPIO_PIN_1);
 214              		.loc 2 110 0
 215 00b8 2368     		ldr	r3, [r4]
 216 00ba 5B6D     		ldr	r3, [r3, #84]
 217 00bc 0321     		movs	r1, #3
 218 00be 4FF04020 		mov	r0, #1073758208
 219 00c2 9847     		blx	r3
 220              	.LVL23:
 111:hello.c       ****   ROM_GPIOPinTypeUART(GPIO_PORTA_BASE, GPIO_PIN_0 | GPIO_PIN_2);
 221              		.loc 2 111 0
 222 00c4 2368     		ldr	r3, [r4]
 223 00c6 5B6D     		ldr	r3, [r3, #84]
 224 00c8 0521     		movs	r1, #5
 225 00ca 4FF04020 		mov	r0, #1073758208
 226 00ce 9847     		blx	r3
 227              	.LVL24:
 112:hello.c       **** 
 113:hello.c       ****   //
 114:hello.c       ****   // Initialize the UART for console I/O.
 115:hello.c       ****   //
 116:hello.c       ****   UARTStdioConfig(0, 115200, g_ui32SysClock);
 228              		.loc 2 116 0
 229 00d0 064B     		ldr	r3, .L15+12
 230 00d2 1A68     		ldr	r2, [r3]
 231 00d4 4FF4E131 		mov	r1, #115200
 232 00d8 0020     		movs	r0, #0
 233 00da FFF7FEFF 		bl	UARTStdioConfig
 234              	.LVL25:
 117:hello.c       **** }
 235              		.loc 2 117 0
ARM GAS  C:\Users\Marcelo\AppData\Local\Temp\ccONtIG1.s 			page 8


 236 00de 10BD     		pop	{r4, pc}
 237              	.L16:
 238              		.align	2
 239              	.L15:
 240 00e0 44000001 		.word	16777284
 241 00e4 000800F0 		.word	-268433408
 242 00e8 001800F0 		.word	-268429312
 243 00ec 00000000 		.word	g_ui32SysClock
 244              		.cfi_endproc
 245              	.LFE5:
 246              		.size	ConfigureUART, .-ConfigureUART
 247              		.align	1
 248              		.global	createThreadStack
 249              		.syntax unified
 250              		.thumb
 251              		.thumb_func
 252              		.fpu softvfp
 253              		.type	createThreadStack, %function
 254              	createThreadStack:
 255              	.LFB6:
 118:hello.c       **** 
 119:hello.c       **** uint32_t *createThreadStack(void)
 120:hello.c       **** {
 256              		.loc 2 120 0
 257              		.cfi_startproc
 258              		@ args = 0, pretend = 0, frame = 0
 259              		@ frame_needed = 0, uses_anonymous_args = 0
 260 00f0 08B5     		push	{r3, lr}
 261              	.LCFI3:
 262              		.cfi_def_cfa_offset 8
 263              		.cfi_offset 3, -8
 264              		.cfi_offset 14, -4
 121:hello.c       ****   uint32_t *aux;
 122:hello.c       ****   aux = malloc(STACK_SIZE * sizeof(uint32_t));
 265              		.loc 2 122 0
 266 00f2 4FF48070 		mov	r0, #256
 267 00f6 FFF7FEFF 		bl	malloc
 268              	.LVL26:
 123:hello.c       ****   return aux;
 124:hello.c       **** }
 269              		.loc 2 124 0
 270 00fa 08BD     		pop	{r3, pc}
 271              		.cfi_endproc
 272              	.LFE6:
 273              		.size	createThreadStack, .-createThreadStack
 274              		.align	1
 275              		.global	initThreads
 276              		.syntax unified
 277              		.thumb
 278              		.thumb_func
 279              		.fpu softvfp
 280              		.type	initThreads, %function
 281              	initThreads:
 282              	.LFB7:
 125:hello.c       **** 
 126:hello.c       **** void initThreads(void)
 127:hello.c       **** {
ARM GAS  C:\Users\Marcelo\AppData\Local\Temp\ccONtIG1.s 			page 9


 283              		.loc 2 127 0
 284              		.cfi_startproc
 285              		@ args = 0, pretend = 0, frame = 0
 286              		@ frame_needed = 0, uses_anonymous_args = 0
 287 00fc 2DE9F041 		push	{r4, r5, r6, r7, r8, lr}
 288              	.LCFI4:
 289              		.cfi_def_cfa_offset 24
 290              		.cfi_offset 4, -24
 291              		.cfi_offset 5, -20
 292              		.cfi_offset 6, -16
 293              		.cfi_offset 7, -12
 294              		.cfi_offset 8, -8
 295              		.cfi_offset 14, -4
 128:hello.c       ****   int i;
 129:hello.c       ****   printf("Inicializando Tarefas\n");
 296              		.loc 2 129 0
 297 0100 0C48     		ldr	r0, .L21
 298 0102 FFF7FEFF 		bl	puts
 299              	.LVL27:
 300 0106 0C4D     		ldr	r5, .L21+4
 130:hello.c       **** 
 131:hello.c       ****   for (i = 0; i <= MAXTASK; i++)
 301              		.loc 2 131 0
 302 0108 0024     		movs	r4, #0
 132:hello.c       ****   {
 133:hello.c       ****     UARTprintf("Criando Tarefa %i\n", i);
 303              		.loc 2 133 0
 304 010a DFF83480 		ldr	r8, .L21+12
 134:hello.c       ****   createThread(BodyTask, ThreadStacks[i], STACK_SIZE);
 305              		.loc 2 134 0
 306 010e 0B4F     		ldr	r7, .L21+8
 307 0110 4026     		movs	r6, #64
 308              	.LVL28:
 309              	.L19:
 133:hello.c       ****   createThread(BodyTask, ThreadStacks[i], STACK_SIZE);
 310              		.loc 2 133 0 discriminator 3
 311 0112 2146     		mov	r1, r4
 312 0114 4046     		mov	r0, r8
 313 0116 FFF7FEFF 		bl	UARTprintf
 314              	.LVL29:
 315              		.loc 2 134 0 discriminator 3
 316 011a 3246     		mov	r2, r6
 317 011c 2946     		mov	r1, r5
 318 011e 3846     		mov	r0, r7
 319 0120 FFF7FEFF 		bl	createThread
 320              	.LVL30:
 131:hello.c       ****   {
 321              		.loc 2 131 0 discriminator 3
 322 0124 0134     		adds	r4, r4, #1
 323              	.LVL31:
 324 0126 05F58075 		add	r5, r5, #256
 325 012a 152C     		cmp	r4, #21
 326 012c F1D1     		bne	.L19
 135:hello.c       ****   }
 136:hello.c       **** }
 327              		.loc 2 136 0
 328 012e BDE8F081 		pop	{r4, r5, r6, r7, r8, pc}
ARM GAS  C:\Users\Marcelo\AppData\Local\Temp\ccONtIG1.s 			page 10


 329              	.LVL32:
 330              	.L22:
 331 0132 00BF     		.align	2
 332              	.L21:
 333 0134 78000000 		.word	.LC3
 334 0138 00000000 		.word	ThreadStacks
 335 013c 00000000 		.word	BodyTask
 336 0140 90000000 		.word	.LC4
 337              		.cfi_endproc
 338              	.LFE7:
 339              		.size	initThreads, .-initThreads
 340              		.align	1
 341              		.global	main
 342              		.syntax unified
 343              		.thumb
 344              		.thumb_func
 345              		.fpu softvfp
 346              		.type	main, %function
 347              	main:
 348              	.LFB8:
 137:hello.c       **** 
 138:hello.c       **** 
 139:hello.c       **** //*****************************************************************************
 140:hello.c       **** //
 141:hello.c       **** // Print "Hello World!" to the UART on the Intelligent UART Module.
 142:hello.c       **** //
 143:hello.c       **** //*****************************************************************************
 144:hello.c       **** int main(void)
 145:hello.c       **** {
 349              		.loc 2 145 0
 350              		.cfi_startproc
 351              		@ args = 0, pretend = 0, frame = 0
 352              		@ frame_needed = 0, uses_anonymous_args = 0
 353 0144 70B5     		push	{r4, r5, r6, lr}
 354              	.LCFI5:
 355              		.cfi_def_cfa_offset 16
 356              		.cfi_offset 4, -16
 357              		.cfi_offset 5, -12
 358              		.cfi_offset 6, -8
 359              		.cfi_offset 14, -4
 146:hello.c       ****   // Run from the PLL at 120 MHz.
 147:hello.c       ****   //
 148:hello.c       ****   g_ui32SysClock = MAP_SysCtlClockFreqSet((SYSCTL_XTAL_25MHZ |
 360              		.loc 2 148 0
 361 0146 284B     		ldr	r3, .L24
 362 0148 1B68     		ldr	r3, [r3]
 363 014a D3F8C030 		ldr	r3, [r3, #192]
 364 014e 2749     		ldr	r1, .L24+4
 365 0150 2748     		ldr	r0, .L24+8
 366 0152 9847     		blx	r3
 367              	.LVL33:
 368 0154 274C     		ldr	r4, .L24+12
 369 0156 2060     		str	r0, [r4]
 149:hello.c       ****                                            SYSCTL_OSC_MAIN | SYSCTL_USE_PLL |
 150:hello.c       ****                                            SYSCTL_CFG_VCO_480),
 151:hello.c       ****                                           120000000);
 152:hello.c       **** 
ARM GAS  C:\Users\Marcelo\AppData\Local\Temp\ccONtIG1.s 			page 11


 153:hello.c       ****   //
 154:hello.c       ****   // Configure the device pins.
 155:hello.c       ****   //
 156:hello.c       ****   PinoutSet(false, false);
 370              		.loc 2 156 0
 371 0158 0021     		movs	r1, #0
 372 015a 0846     		mov	r0, r1
 373 015c FFF7FEFF 		bl	PinoutSet
 374              	.LVL34:
 157:hello.c       **** 
 158:hello.c       ****   //
 159:hello.c       ****   // Enable the GPIO pins for the LED D1 (PN1).
 160:hello.c       ****   //
 161:hello.c       ****   ROM_GPIOPinTypeGPIOOutput(GPIO_PORTN_BASE, GPIO_PIN_1);
 375              		.loc 2 161 0
 376 0160 254D     		ldr	r5, .L24+16
 377 0162 264E     		ldr	r6, .L24+20
 378 0164 3368     		ldr	r3, [r6]
 379 0166 DB6B     		ldr	r3, [r3, #60]
 380 0168 0221     		movs	r1, #2
 381 016a 2846     		mov	r0, r5
 382 016c 9847     		blx	r3
 383              	.LVL35:
 162:hello.c       ****   ROM_GPIOPinTypeGPIOOutput(GPIO_PORTN_BASE, GPIO_PIN_2);
 384              		.loc 2 162 0
 385 016e 3368     		ldr	r3, [r6]
 386 0170 DB6B     		ldr	r3, [r3, #60]
 387 0172 0421     		movs	r1, #4
 388 0174 2846     		mov	r0, r5
 389 0176 9847     		blx	r3
 390              	.LVL36:
 163:hello.c       **** 
 164:hello.c       ****   //
 165:hello.c       ****   // Initialize the UART.
 166:hello.c       ****   //
 167:hello.c       ****   ConfigureUART();
 391              		.loc 2 167 0
 392 0178 FFF7FEFF 		bl	ConfigureUART
 393              	.LVL37:
 168:hello.c       **** 
 169:hello.c       ****   //
 170:hello.c       ****   // Hello!
 171:hello.c       ****   //
 172:hello.c       ****   UARTprintf("\n\n\n\n\n\n\n\n\n\n\n");
 394              		.loc 2 172 0
 395 017c 204D     		ldr	r5, .L24+24
 396 017e 2846     		mov	r0, r5
 397 0180 FFF7FEFF 		bl	UARTprintf
 398              	.LVL38:
 173:hello.c       ****   UARTprintf("\n\n\n\n\n\n\n\n\n\n\n");
 399              		.loc 2 173 0
 400 0184 2846     		mov	r0, r5
 401 0186 FFF7FEFF 		bl	UARTprintf
 402              	.LVL39:
 174:hello.c       ****   UARTprintf("\n\n\n\n\n\n\n\n\n\n\n");
 403              		.loc 2 174 0
 404 018a 2846     		mov	r0, r5
ARM GAS  C:\Users\Marcelo\AppData\Local\Temp\ccONtIG1.s 			page 12


 405 018c FFF7FEFF 		bl	UARTprintf
 406              	.LVL40:
 175:hello.c       ****   UARTprintf("Hello, world  TIVA CCCC !\n");
 407              		.loc 2 175 0
 408 0190 1C48     		ldr	r0, .L24+28
 409 0192 FFF7FEFF 		bl	UARTprintf
 410              	.LVL41:
 176:hello.c       **** 
 177:hello.c       ****   UARTprintf("Ligando o LED\n");
 411              		.loc 2 177 0
 412 0196 1C48     		ldr	r0, .L24+32
 413 0198 FFF7FEFF 		bl	UARTprintf
 414              	.LVL42:
 178:hello.c       ****   //
 179:hello.c       ****   // Turn on D1.
 180:hello.c       ****   //
 181:hello.c       ****   LEDWrite(CLP_D1, 1);
 415              		.loc 2 181 0
 416 019c 0121     		movs	r1, #1
 417 019e 0846     		mov	r0, r1
 418 01a0 FFF7FEFF 		bl	LEDWrite
 419              	.LVL43:
 182:hello.c       ****   LEDWrite(CLP_D2, 0);
 420              		.loc 2 182 0
 421 01a4 0021     		movs	r1, #0
 422 01a6 0220     		movs	r0, #2
 423 01a8 FFF7FEFF 		bl	LEDWrite
 424              	.LVL44:
 183:hello.c       **** 
 184:hello.c       ****   //
 185:hello.c       ****   // Delay for a bit.
 186:hello.c       ****   //
 187:hello.c       ****   SysCtlDelay(g_ui32SysClock / 10 / 3);
 425              		.loc 2 187 0
 426 01ac 2068     		ldr	r0, [r4]
 427 01ae 174D     		ldr	r5, .L24+36
 428 01b0 A5FB0030 		umull	r3, r0, r5, r0
 429 01b4 0009     		lsrs	r0, r0, #4
 430 01b6 FFF7FEFF 		bl	SysCtlDelay
 431              	.LVL45:
 188:hello.c       **** 
 189:hello.c       ****   //
 190:hello.c       ****   UARTprintf("Desligando o LED\n");
 432              		.loc 2 190 0
 433 01ba 1548     		ldr	r0, .L24+40
 434 01bc FFF7FEFF 		bl	UARTprintf
 435              	.LVL46:
 191:hello.c       ****   //
 192:hello.c       ****   LEDWrite(CLP_D1, 0);
 436              		.loc 2 192 0
 437 01c0 0021     		movs	r1, #0
 438 01c2 0120     		movs	r0, #1
 439 01c4 FFF7FEFF 		bl	LEDWrite
 440              	.LVL47:
 193:hello.c       ****   LEDWrite(CLP_D2, 1);
 441              		.loc 2 193 0
 442 01c8 0121     		movs	r1, #1
ARM GAS  C:\Users\Marcelo\AppData\Local\Temp\ccONtIG1.s 			page 13


 443 01ca 0220     		movs	r0, #2
 444 01cc FFF7FEFF 		bl	LEDWrite
 445              	.LVL48:
 194:hello.c       ****   //
 195:hello.c       ****   // Delay for a bit.
 196:hello.c       ****   //
 197:hello.c       ****   SysCtlDelay(g_ui32SysClock / 10 / 3);
 446              		.loc 2 197 0
 447 01d0 2068     		ldr	r0, [r4]
 448 01d2 A5FB0030 		umull	r3, r0, r5, r0
 449 01d6 0009     		lsrs	r0, r0, #4
 450 01d8 FFF7FEFF 		bl	SysCtlDelay
 451              	.LVL49:
 198:hello.c       ****   initThreads();
 452              		.loc 2 198 0
 453 01dc FFF7FEFF 		bl	initThreads
 454              	.LVL50:
 199:hello.c       ****   startSwitcher(); // start the thread switching (this does not return)
 455              		.loc 2 199 0
 456 01e0 FFF7FEFF 		bl	startSwitcher
 457              	.LVL51:
 200:hello.c       **** }
 458              		.loc 2 200 0
 459 01e4 0020     		movs	r0, #0
 460 01e6 70BD     		pop	{r4, r5, r6, pc}
 461              	.L25:
 462              		.align	2
 463              	.L24:
 464 01e8 44000001 		.word	16777284
 465 01ec 000E2707 		.word	120000000
 466 01f0 800600F1 		.word	-251656576
 467 01f4 00000000 		.word	g_ui32SysClock
 468 01f8 00400640 		.word	1074151424
 469 01fc 20000001 		.word	16777248
 470 0200 A4000000 		.word	.LC5
 471 0204 B0000000 		.word	.LC6
 472 0208 CC000000 		.word	.LC7
 473 020c 89888888 		.word	-2004318071
 474 0210 DC000000 		.word	.LC8
 475              		.cfi_endproc
 476              	.LFE8:
 477              		.size	main, .-main
 478              		.comm	g_ui32SysClock,4,4
 479              		.comm	ThreadStacks,5120,4
 480              		.comm	task,336,4
 481              		.comm	Thread2Stack,256,4
 482              		.comm	Thread1Stack,256,4
 483              		.global	activeThread
 484              		.bss
 485              		.align	2
 486              		.set	.LANCHOR0,. + 0
 487              		.type	activeThread, %object
 488              		.size	activeThread, 4
 489              	activeThread:
 490 0000 00000000 		.space	4
 491              		.section	.rodata.str1.4,"aMS",%progbits,1
 492              		.align	2
ARM GAS  C:\Users\Marcelo\AppData\Local\Temp\ccONtIG1.s 			page 14


 493              	.LC0:
 494 0000 496E6963 		.ascii	"Iniciei  tarefa (current: %i, active: %i, status: %"
 494      69656920 
 494      20746172 
 494      65666120 
 494      28637572 
 495 0033 69290A00 		.ascii	"i)\012\000"
 496 0037 00       		.space	1
 497              	.LC1:
 498 0038 456E6365 		.ascii	"Encerrei  tarefa (current: %i, active: %i, status: "
 498      72726569 
 498      20207461 
 498      72656661 
 498      20286375 
 499 006b 2569290A 		.ascii	"%i)\012\000"
 499      00
 500              	.LC2:
 501 0070 25732025 		.ascii	"%s %d\012\000"
 501      640A00
 502 0077 00       		.space	1
 503              	.LC3:
 504 0078 496E6963 		.ascii	"Inicializando Tarefas\000"
 504      69616C69 
 504      7A616E64 
 504      6F205461 
 504      72656661 
 505 008e 0000     		.space	2
 506              	.LC4:
 507 0090 43726961 		.ascii	"Criando Tarefa %i\012\000"
 507      6E646F20 
 507      54617265 
 507      66612025 
 507      690A00
 508 00a3 00       		.space	1
 509              	.LC5:
 510 00a4 0A0A0A0A 		.ascii	"\012\012\012\012\012\012\012\012\012\012\012\000"
 510      0A0A0A0A 
 510      0A0A0A00 
 511              	.LC6:
 512 00b0 48656C6C 		.ascii	"Hello, world  TIVA CCCC !\012\000"
 512      6F2C2077 
 512      6F726C64 
 512      20205449 
 512      56412043 
 513 00cb 00       		.space	1
 514              	.LC7:
 515 00cc 4C696761 		.ascii	"Ligando o LED\012\000"
 515      6E646F20 
 515      6F204C45 
 515      440A00
 516 00db 00       		.space	1
 517              	.LC8:
 518 00dc 4465736C 		.ascii	"Desligando o LED\012\000"
 518      6967616E 
 518      646F206F 
 518      204C4544 
 518      0A00
ARM GAS  C:\Users\Marcelo\AppData\Local\Temp\ccONtIG1.s 			page 15


 519              		.text
 520              	.Letext0:
 521              		.file 3 "c:\\program files (x86)\\gnu tools arm embedded\\7 2018-q2-update\\arm-none-eabi\\include
 522              		.file 4 "c:\\program files (x86)\\gnu tools arm embedded\\7 2018-q2-update\\arm-none-eabi\\include
 523              		.file 5 "Threads/thread.h"
 524              		.file 6 "c:\\program files (x86)\\gnu tools arm embedded\\7 2018-q2-update\\arm-none-eabi\\include
 525              		.file 7 "c:\\program files (x86)\\gnu tools arm embedded\\7 2018-q2-update\\arm-none-eabi\\include
 526              		.file 8 "c:\\program files (x86)\\gnu tools arm embedded\\7 2018-q2-update\\lib\\gcc\\arm-none-eab
 527              		.file 9 "c:\\program files (x86)\\gnu tools arm embedded\\7 2018-q2-update\\arm-none-eabi\\include
 528              		.file 10 "c:\\program files (x86)\\gnu tools arm embedded\\7 2018-q2-update\\arm-none-eabi\\includ
 529              		.file 11 "drivers/pinout.h"
 530              		.file 12 "./inc/utils/uartstdio.h"
 531              		.file 13 "./inc/driverlib/sysctl.h"
 532              		.file 14 "<built-in>"