ARM GAS  C:\Users\Diogo\AppData\Local\Temp\ccnRS0Cj.s 			page 1


   1              		.cpu cortex-m4
   2              		.eabi_attribute 20, 1
   3              		.eabi_attribute 21, 1
   4              		.eabi_attribute 23, 3
   5              		.eabi_attribute 24, 1
   6              		.eabi_attribute 25, 1
   7              		.eabi_attribute 26, 1
   8              		.eabi_attribute 30, 1
   9              		.eabi_attribute 34, 1
  10              		.eabi_attribute 18, 4
  11              		.file	"hello.c"
  12              		.text
  13              	.Ltext0:
  14              		.cfi_sections	.debug_frame
  15              		.align	1
  16              		.global	__error__
  17              		.syntax unified
  18              		.thumb
  19              		.thumb_func
  20              		.fpu softvfp
  21              		.type	__error__, %function
  22              	__error__:
  23              	.LFB0:
  24              		.file 1 "hello.c"
   1:hello.c       **** //*****************************************************************************
   2:hello.c       **** //
   3:hello.c       **** // hello.c - Simple hello world example.
   4:hello.c       **** //
   5:hello.c       **** // Copyright (c) 2013-2014 Texas Instruments Incorporated.  All rights reserved.
   6:hello.c       **** // Software License Agreement
   7:hello.c       **** //
   8:hello.c       **** // Texas Instruments (TI) is supplying this software for use solely and
   9:hello.c       **** // exclusively on TI's microcontroller products. The software is owned by
  10:hello.c       **** // TI and/or its suppliers, and is protected under applicable copyright
  11:hello.c       **** // laws. You may not combine this software with "viral" open-source
  12:hello.c       **** // software in order to form a larger program.
  13:hello.c       **** //
  14:hello.c       **** // THIS SOFTWARE IS PROVIDED "AS IS" AND WITH ALL FAULTS.
  15:hello.c       **** // NO WARRANTIES, WHETHER EXPRESS, IMPLIED OR STATUTORY, INCLUDING, BUT
  16:hello.c       **** // NOT LIMITED TO, IMPLIED WARRANTIES OF MERCHANTABILITY AND FITNESS FOR
  17:hello.c       **** // A PARTICULAR PURPOSE APPLY TO THIS SOFTWARE. TI SHALL NOT, UNDER ANY
  18:hello.c       **** // CIRCUMSTANCES, BE LIABLE FOR SPECIAL, INCIDENTAL, OR CONSEQUENTIAL
  19:hello.c       **** // DAMAGES, FOR ANY REASON WHATSOEVER.
  20:hello.c       **** //
  21:hello.c       **** // This is part of revision 2.1.0.12573 of the EK-TM4C1294XL Firmware Package.
  22:hello.c       **** //
  23:hello.c       **** //*****************************************************************************
  24:hello.c       **** 
  25:hello.c       **** #include <stdint.h>
  26:hello.c       **** #include <stdbool.h>
  27:hello.c       **** #include "hw_memmap.h"
  28:hello.c       **** #include "hw_types.h"
  29:hello.c       **** #include "driverlib/gpio.h"
  30:hello.c       **** #include "drivers/pinout.h"
  31:hello.c       **** #include "driverlib/pin_map.h"
  32:hello.c       **** #include "driverlib/rom.h"
  33:hello.c       **** #include "driverlib/rom_map.h"
ARM GAS  C:\Users\Diogo\AppData\Local\Temp\ccnRS0Cj.s 			page 2


  34:hello.c       **** #include "driverlib/sysctl.h"
  35:hello.c       **** #include "driverlib/uart.h"
  36:hello.c       **** #include "utils/uartstdio.h"
  37:hello.c       **** #include "Threads/thread.h"
  38:hello.c       **** #include "Threads/pingpong-tasks1.h"
  39:hello.c       **** #include "debug.h"
  40:hello.c       **** 
  41:hello.c       **** #include <stdlib.h>
  42:hello.c       **** 
  43:hello.c       **** int testafila(void);
  44:hello.c       **** #define STACK_SIZE 64
  45:hello.c       **** 
  46:hello.c       **** uint32_t * createThreadStack(void);
  47:hello.c       **** 
  48:hello.c       **** uint32_t Thread1Stack[STACK_SIZE];
  49:hello.c       **** uint32_t Thread2Stack[STACK_SIZE];
  50:hello.c       **** //uint32_t Thread3Stack[STACK_SIZE];
  51:hello.c       **** 
  52:hello.c       **** 
  53:hello.c       **** 
  54:hello.c       **** //*****************************************************************************
  55:hello.c       **** //
  56:hello.c       **** //! \addtogroup example_list
  57:hello.c       **** //! <h1>Hello World (hello)</h1>
  58:hello.c       **** //!
  59:hello.c       **** //! A very simple ``hello world'' example.  It simply displays ``Hello World!''
  60:hello.c       **** //! on the UART and is a starting point for more complicated applications.
  61:hello.c       **** //!
  62:hello.c       **** //! Open a terminal with 115,200 8-N-1 to see the output for this demo.
  63:hello.c       **** //
  64:hello.c       **** //*****************************************************************************
  65:hello.c       **** 
  66:hello.c       **** //*****************************************************************************
  67:hello.c       **** //
  68:hello.c       **** // System clock rate in Hz.
  69:hello.c       **** //
  70:hello.c       **** //*****************************************************************************
  71:hello.c       **** uint32_t g_ui32SysClock;
  72:hello.c       **** 
  73:hello.c       **** //*****************************************************************************
  74:hello.c       **** //
  75:hello.c       **** // The error routine that is called if the driver library encounters an error.
  76:hello.c       **** //
  77:hello.c       **** //*****************************************************************************
  78:hello.c       **** #ifdef DEBUG
  79:hello.c       **** void
  80:hello.c       **** __error__(char *pcFilename, uint32_t ui32Line)
  81:hello.c       **** {
  25              		.loc 1 81 0
  26              		.cfi_startproc
  27              		@ args = 0, pretend = 0, frame = 0
  28              		@ frame_needed = 0, uses_anonymous_args = 0
  29              	.LVL0:
  30 0000 08B5     		push	{r3, lr}
  31              	.LCFI0:
  32              		.cfi_def_cfa_offset 8
  33              		.cfi_offset 3, -8
ARM GAS  C:\Users\Diogo\AppData\Local\Temp\ccnRS0Cj.s 			page 3


  34              		.cfi_offset 14, -4
  82:hello.c       **** 		 UARTprintf("%s %d\n" ,pcFilename, ui32Line);
  35              		.loc 1 82 0
  36 0002 0A46     		mov	r2, r1
  37 0004 0146     		mov	r1, r0
  38              	.LVL1:
  39 0006 0248     		ldr	r0, .L2
  40              	.LVL2:
  41 0008 FFF7FEFF 		bl	UARTprintf
  42              	.LVL3:
  83:hello.c       **** }
  43              		.loc 1 83 0
  44 000c 08BD     		pop	{r3, pc}
  45              	.L3:
  46 000e 00BF     		.align	2
  47              	.L2:
  48 0010 00000000 		.word	.LC0
  49              		.cfi_endproc
  50              	.LFE0:
  51              		.size	__error__, .-__error__
  52              		.align	1
  53              		.global	ConfigureUART
  54              		.syntax unified
  55              		.thumb
  56              		.thumb_func
  57              		.fpu softvfp
  58              		.type	ConfigureUART, %function
  59              	ConfigureUART:
  60              	.LFB1:
  84:hello.c       **** #endif
  85:hello.c       **** 
  86:hello.c       **** //*****************************************************************************
  87:hello.c       **** //
  88:hello.c       **** // Configure the UART and its pins.  This must be called before UARTprintf().
  89:hello.c       **** //
  90:hello.c       **** //*****************************************************************************
  91:hello.c       **** void
  92:hello.c       **** ConfigureUART(void)
  93:hello.c       **** {
  61              		.loc 1 93 0
  62              		.cfi_startproc
  63              		@ args = 0, pretend = 0, frame = 0
  64              		@ frame_needed = 0, uses_anonymous_args = 0
  65 0014 10B5     		push	{r4, lr}
  66              	.LCFI1:
  67              		.cfi_def_cfa_offset 8
  68              		.cfi_offset 4, -8
  69              		.cfi_offset 14, -4
  94:hello.c       ****     //
  95:hello.c       ****     // Enable the GPIO Peripheral used by the UART.
  96:hello.c       ****     //
  97:hello.c       ****     ROM_SysCtlPeripheralEnable(SYSCTL_PERIPH_GPIOA);
  70              		.loc 1 97 0
  71 0016 134C     		ldr	r4, .L5
  72 0018 2368     		ldr	r3, [r4]
  73 001a 9B69     		ldr	r3, [r3, #24]
  74 001c 1248     		ldr	r0, .L5+4
ARM GAS  C:\Users\Diogo\AppData\Local\Temp\ccnRS0Cj.s 			page 4


  75 001e 9847     		blx	r3
  76              	.LVL4:
  98:hello.c       **** 
  99:hello.c       ****     //
 100:hello.c       ****     // Enable UART0
 101:hello.c       ****     //
 102:hello.c       ****     ROM_SysCtlPeripheralEnable(SYSCTL_PERIPH_UART0);
  77              		.loc 1 102 0
  78 0020 2368     		ldr	r3, [r4]
  79 0022 9B69     		ldr	r3, [r3, #24]
  80 0024 1148     		ldr	r0, .L5+8
  81 0026 9847     		blx	r3
  82              	.LVL5:
 103:hello.c       **** 
 104:hello.c       ****     //
 105:hello.c       ****     // Configure GPIO Pins for UART mode.
 106:hello.c       ****     //
 107:hello.c       ****     ROM_GPIOPinConfigure(GPIO_PA0_U0RX);
  83              		.loc 1 107 0
  84 0028 243C     		subs	r4, r4, #36
  85 002a 2368     		ldr	r3, [r4]
  86 002c 9B6E     		ldr	r3, [r3, #104]
  87 002e 0120     		movs	r0, #1
  88 0030 9847     		blx	r3
  89              	.LVL6:
 108:hello.c       ****     ROM_GPIOPinConfigure(GPIO_PA1_U0TX);
  90              		.loc 1 108 0
  91 0032 2368     		ldr	r3, [r4]
  92 0034 9B6E     		ldr	r3, [r3, #104]
  93 0036 40F20140 		movw	r0, #1025
  94 003a 9847     		blx	r3
  95              	.LVL7:
 109:hello.c       ****     ROM_GPIOPinTypeUART(GPIO_PORTA_BASE, GPIO_PIN_0 | GPIO_PIN_1);
  96              		.loc 1 109 0
  97 003c 2368     		ldr	r3, [r4]
  98 003e 5B6D     		ldr	r3, [r3, #84]
  99 0040 0321     		movs	r1, #3
 100 0042 4FF04020 		mov	r0, #1073758208
 101 0046 9847     		blx	r3
 102              	.LVL8:
 110:hello.c       ****     ROM_GPIOPinTypeUART(GPIO_PORTA_BASE, GPIO_PIN_0 | GPIO_PIN_2);
 103              		.loc 1 110 0
 104 0048 2368     		ldr	r3, [r4]
 105 004a 5B6D     		ldr	r3, [r3, #84]
 106 004c 0521     		movs	r1, #5
 107 004e 4FF04020 		mov	r0, #1073758208
 108 0052 9847     		blx	r3
 109              	.LVL9:
 111:hello.c       **** 
 112:hello.c       ****     //
 113:hello.c       ****     // Initialize the UART for console I/O.
 114:hello.c       ****     //
 115:hello.c       ****     UARTStdioConfig(0, 115200, g_ui32SysClock);
 110              		.loc 1 115 0
 111 0054 064B     		ldr	r3, .L5+12
 112 0056 1A68     		ldr	r2, [r3]
 113 0058 4FF4E131 		mov	r1, #115200
ARM GAS  C:\Users\Diogo\AppData\Local\Temp\ccnRS0Cj.s 			page 5


 114 005c 0020     		movs	r0, #0
 115 005e FFF7FEFF 		bl	UARTStdioConfig
 116              	.LVL10:
 116:hello.c       **** }
 117              		.loc 1 116 0
 118 0062 10BD     		pop	{r4, pc}
 119              	.L6:
 120              		.align	2
 121              	.L5:
 122 0064 44000001 		.word	16777284
 123 0068 000800F0 		.word	-268433408
 124 006c 001800F0 		.word	-268429312
 125 0070 00000000 		.word	g_ui32SysClock
 126              		.cfi_endproc
 127              	.LFE1:
 128              		.size	ConfigureUART, .-ConfigureUART
 129              		.align	1
 130              		.global	createThreadStack
 131              		.syntax unified
 132              		.thumb
 133              		.thumb_func
 134              		.fpu softvfp
 135              		.type	createThreadStack, %function
 136              	createThreadStack:
 137              	.LFB2:
 117:hello.c       **** 
 118:hello.c       **** /*
 119:hello.c       **** void Thread1(void)
 120:hello.c       **** {
 121:hello.c       ****     uint16_t counter;
 122:hello.c       ****     counter = 0;
 123:hello.c       ****     while(1)
 124:hello.c       ****     {
 125:hello.c       ****         if (counter%31 == 0)
 126:hello.c       ****         {
 127:hello.c       ****             UARTprintf("Thread 1 - Value: %i\n", counter);
 128:hello.c       ****         }
 129:hello.c       ****         counter++;
 130:hello.c       ****         if (counter>5000){counter =0;}
 131:hello.c       ****     }
 132:hello.c       **** }
 133:hello.c       **** void Thread2(void)
 134:hello.c       **** {
 135:hello.c       ****     uint16_t counter;
 136:hello.c       ****     counter = 0;
 137:hello.c       ****     while(1)
 138:hello.c       ****     {
 139:hello.c       ****         if (counter%57 == 0)
 140:hello.c       ****         {
 141:hello.c       ****             UARTprintf("Thread 2 - Value: %i\n", counter);
 142:hello.c       ****         }
 143:hello.c       ****         counter++;
 144:hello.c       ****         if (counter>5000){counter =0;}
 145:hello.c       ****     }
 146:hello.c       **** }
 147:hello.c       **** void Thread3(void)
 148:hello.c       **** {
ARM GAS  C:\Users\Diogo\AppData\Local\Temp\ccnRS0Cj.s 			page 6


 149:hello.c       ****     uint16_t counter;
 150:hello.c       ****     counter = 0;
 151:hello.c       ****     while(1)
 152:hello.c       ****     {
 153:hello.c       ****         if (counter%71 == 0)
 154:hello.c       ****         {
 155:hello.c       ****             UARTprintf("Thread 3 - Value: %i\n", counter);
 156:hello.c       ****         }
 157:hello.c       ****         counter++;
 158:hello.c       ****         if (counter>5000){counter =0;}
 159:hello.c       ****     }
 160:hello.c       **** }
 161:hello.c       **** */
 162:hello.c       **** uint32_t* createThreadStack(void)
 163:hello.c       **** {
 138              		.loc 1 163 0
 139              		.cfi_startproc
 140              		@ args = 0, pretend = 0, frame = 0
 141              		@ frame_needed = 0, uses_anonymous_args = 0
 142 0074 08B5     		push	{r3, lr}
 143              	.LCFI2:
 144              		.cfi_def_cfa_offset 8
 145              		.cfi_offset 3, -8
 146              		.cfi_offset 14, -4
 164:hello.c       **** 	uint32_t *aux;
 165:hello.c       **** 	aux = malloc(STACK_SIZE*sizeof(uint32_t));
 147              		.loc 1 165 0
 148 0076 4FF48070 		mov	r0, #256
 149 007a FFF7FEFF 		bl	malloc
 150              	.LVL11:
 166:hello.c       **** 	return aux;
 167:hello.c       **** }
 151              		.loc 1 167 0
 152 007e 08BD     		pop	{r3, pc}
 153              		.cfi_endproc
 154              	.LFE2:
 155              		.size	createThreadStack, .-createThreadStack
 156              		.align	1
 157              		.global	main
 158              		.syntax unified
 159              		.thumb
 160              		.thumb_func
 161              		.fpu softvfp
 162              		.type	main, %function
 163              	main:
 164              	.LFB3:
 168:hello.c       **** 
 169:hello.c       **** 
 170:hello.c       **** //*****************************************************************************
 171:hello.c       **** //
 172:hello.c       **** // Print "Hello World!" to the UART on the Intelligent UART Module.
 173:hello.c       **** //
 174:hello.c       **** //*****************************************************************************
 175:hello.c       **** int
 176:hello.c       **** main(void)
 177:hello.c       **** {
 165              		.loc 1 177 0
ARM GAS  C:\Users\Diogo\AppData\Local\Temp\ccnRS0Cj.s 			page 7


 166              		.cfi_startproc
 167              		@ args = 0, pretend = 0, frame = 0
 168              		@ frame_needed = 0, uses_anonymous_args = 0
 169 0080 70B5     		push	{r4, r5, r6, lr}
 170              	.LCFI3:
 171              		.cfi_def_cfa_offset 16
 172              		.cfi_offset 4, -16
 173              		.cfi_offset 5, -12
 174              		.cfi_offset 6, -8
 175              		.cfi_offset 14, -4
 178:hello.c       ****     char teste[10];//
 179:hello.c       **** 		uint32_t cont;
 180:hello.c       ****     // Run from the PLL at 120 MHz.
 181:hello.c       ****     //
 182:hello.c       ****     g_ui32SysClock = MAP_SysCtlClockFreqSet((SYSCTL_XTAL_25MHZ |
 176              		.loc 1 182 0
 177 0082 2F4B     		ldr	r3, .L9
 178 0084 1B68     		ldr	r3, [r3]
 179 0086 D3F8C030 		ldr	r3, [r3, #192]
 180 008a 2E49     		ldr	r1, .L9+4
 181 008c 2E48     		ldr	r0, .L9+8
 182 008e 9847     		blx	r3
 183              	.LVL12:
 184 0090 2E4C     		ldr	r4, .L9+12
 185 0092 2060     		str	r0, [r4]
 183:hello.c       ****                 SYSCTL_OSC_MAIN | SYSCTL_USE_PLL |
 184:hello.c       ****                 SYSCTL_CFG_VCO_480), 120000000);
 185:hello.c       **** 
 186:hello.c       ****     //
 187:hello.c       ****     // Configure the device pins.
 188:hello.c       ****     //
 189:hello.c       ****     PinoutSet(false, false);
 186              		.loc 1 189 0
 187 0094 0021     		movs	r1, #0
 188 0096 0846     		mov	r0, r1
 189 0098 FFF7FEFF 		bl	PinoutSet
 190              	.LVL13:
 190:hello.c       **** 
 191:hello.c       ****     //
 192:hello.c       ****     // Enable the GPIO pins for the LED D1 (PN1).
 193:hello.c       ****     //
 194:hello.c       ****     ROM_GPIOPinTypeGPIOOutput(GPIO_PORTN_BASE, GPIO_PIN_1);
 191              		.loc 1 194 0
 192 009c 2C4D     		ldr	r5, .L9+16
 193 009e 2D4E     		ldr	r6, .L9+20
 194 00a0 3368     		ldr	r3, [r6]
 195 00a2 DB6B     		ldr	r3, [r3, #60]
 196 00a4 0221     		movs	r1, #2
 197 00a6 2846     		mov	r0, r5
 198 00a8 9847     		blx	r3
 199              	.LVL14:
 195:hello.c       ****     ROM_GPIOPinTypeGPIOOutput(GPIO_PORTN_BASE, GPIO_PIN_2);
 200              		.loc 1 195 0
 201 00aa 3368     		ldr	r3, [r6]
 202 00ac DB6B     		ldr	r3, [r3, #60]
 203 00ae 0421     		movs	r1, #4
 204 00b0 2846     		mov	r0, r5
ARM GAS  C:\Users\Diogo\AppData\Local\Temp\ccnRS0Cj.s 			page 8


 205 00b2 9847     		blx	r3
 206              	.LVL15:
 196:hello.c       **** 
 197:hello.c       ****     //
 198:hello.c       ****     // Initialize the UART.
 199:hello.c       ****     //
 200:hello.c       ****     ConfigureUART();
 207              		.loc 1 200 0
 208 00b4 FFF7FEFF 		bl	ConfigureUART
 209              	.LVL16:
 201:hello.c       **** 
 202:hello.c       ****     //
 203:hello.c       ****     // Hello!
 204:hello.c       ****     //
 205:hello.c       **** 		    UARTprintf("\n\n\n\n\n\n\n\n\n\n\n");
 210              		.loc 1 205 0
 211 00b8 274D     		ldr	r5, .L9+24
 212 00ba 2846     		mov	r0, r5
 213 00bc FFF7FEFF 		bl	UARTprintf
 214              	.LVL17:
 206:hello.c       **** 				    UARTprintf("\n\n\n\n\n\n\n\n\n\n\n");
 215              		.loc 1 206 0
 216 00c0 2846     		mov	r0, r5
 217 00c2 FFF7FEFF 		bl	UARTprintf
 218              	.LVL18:
 207:hello.c       **** 						    UARTprintf("\n\n\n\n\n\n\n\n\n\n\n");
 219              		.loc 1 207 0
 220 00c6 2846     		mov	r0, r5
 221 00c8 FFF7FEFF 		bl	UARTprintf
 222              	.LVL19:
 208:hello.c       ****     UARTprintf("Hello, world  TIVA CCCC !\n");
 223              		.loc 1 208 0
 224 00cc 2348     		ldr	r0, .L9+28
 225 00ce FFF7FEFF 		bl	UARTprintf
 226              	.LVL20:
 209:hello.c       ****     //UARTgets(char *pcBuf, uint32_t ui32Len)teste = getchar();//
 210:hello.c       ****    // UARTgets(teste,  cont);//teste = getchar();//
 211:hello.c       **** 
 212:hello.c       **** 		//ASSERT(teste[0] == '0');
 213:hello.c       **** 
 214:hello.c       **** 		//testafila();
 215:hello.c       **** // UARTprintf("%s %d\n" ,__FILE__, __LINE__);
 216:hello.c       **** 	 // We are finished.  Hang around flashing D1.
 217:hello.c       ****     //
 218:hello.c       **** 		//exit(0);
 219:hello.c       **** 		UARTprintf("Ligando o LED\n");
 227              		.loc 1 219 0
 228 00d2 2348     		ldr	r0, .L9+32
 229 00d4 FFF7FEFF 		bl	UARTprintf
 230              	.LVL21:
 220:hello.c       **** 		//
 221:hello.c       **** 		// Turn on D1.
 222:hello.c       **** 		//
 223:hello.c       **** 		LEDWrite(CLP_D1, 1);
 231              		.loc 1 223 0
 232 00d8 0121     		movs	r1, #1
 233 00da 0846     		mov	r0, r1
ARM GAS  C:\Users\Diogo\AppData\Local\Temp\ccnRS0Cj.s 			page 9


 234 00dc FFF7FEFF 		bl	LEDWrite
 235              	.LVL22:
 224:hello.c       **** 		LEDWrite(CLP_D2, 0);
 236              		.loc 1 224 0
 237 00e0 0021     		movs	r1, #0
 238 00e2 0220     		movs	r0, #2
 239 00e4 FFF7FEFF 		bl	LEDWrite
 240              	.LVL23:
 225:hello.c       **** 
 226:hello.c       **** 		//
 227:hello.c       **** 		// Delay for a bit.
 228:hello.c       **** 		//
 229:hello.c       **** 		SysCtlDelay(g_ui32SysClock / 10 / 3);
 241              		.loc 1 229 0
 242 00e8 2068     		ldr	r0, [r4]
 243 00ea 1E4D     		ldr	r5, .L9+36
 244 00ec A5FB0030 		umull	r3, r0, r5, r0
 245 00f0 0009     		lsrs	r0, r0, #4
 246 00f2 FFF7FEFF 		bl	SysCtlDelay
 247              	.LVL24:
 230:hello.c       **** 
 231:hello.c       **** 		//
 232:hello.c       **** 		UARTprintf("Desligando o LED\n");
 248              		.loc 1 232 0
 249 00f6 1C48     		ldr	r0, .L9+40
 250 00f8 FFF7FEFF 		bl	UARTprintf
 251              	.LVL25:
 233:hello.c       **** 		//
 234:hello.c       **** 		LEDWrite(CLP_D1, 0);
 252              		.loc 1 234 0
 253 00fc 0021     		movs	r1, #0
 254 00fe 0120     		movs	r0, #1
 255 0100 FFF7FEFF 		bl	LEDWrite
 256              	.LVL26:
 235:hello.c       **** 		LEDWrite(CLP_D2, 1);
 257              		.loc 1 235 0
 258 0104 0121     		movs	r1, #1
 259 0106 0220     		movs	r0, #2
 260 0108 FFF7FEFF 		bl	LEDWrite
 261              	.LVL27:
 236:hello.c       **** 		//
 237:hello.c       **** 		// Delay for a bit.
 238:hello.c       **** 		//
 239:hello.c       **** 		SysCtlDelay(g_ui32SysClock / 10 / 3);
 262              		.loc 1 239 0
 263 010c 2068     		ldr	r0, [r4]
 264 010e A5FB0030 		umull	r3, r0, r5, r0
 265 0112 0009     		lsrs	r0, r0, #4
 266 0114 FFF7FEFF 		bl	SysCtlDelay
 267              	.LVL28:
 240:hello.c       **** 		UARTprintf("Criando Tarefa 1\n");
 268              		.loc 1 240 0
 269 0118 1448     		ldr	r0, .L9+44
 270 011a FFF7FEFF 		bl	UARTprintf
 271              	.LVL29:
 241:hello.c       ****         createThread(BodyPing,Thread1Stack,STACK_SIZE);
 272              		.loc 1 241 0
ARM GAS  C:\Users\Diogo\AppData\Local\Temp\ccnRS0Cj.s 			page 10


 273 011e 4022     		movs	r2, #64
 274 0120 1349     		ldr	r1, .L9+48
 275 0122 1448     		ldr	r0, .L9+52
 276 0124 FFF7FEFF 		bl	createThread
 277              	.LVL30:
 242:hello.c       **** 		UARTprintf("Criando Tarefa 2\n");
 278              		.loc 1 242 0
 279 0128 1348     		ldr	r0, .L9+56
 280 012a FFF7FEFF 		bl	UARTprintf
 281              	.LVL31:
 243:hello.c       ****         createThread(BodyPong,Thread2Stack,STACK_SIZE);
 282              		.loc 1 243 0
 283 012e 4022     		movs	r2, #64
 284 0130 1249     		ldr	r1, .L9+60
 285 0132 1348     		ldr	r0, .L9+64
 286 0134 FFF7FEFF 		bl	createThread
 287              	.LVL32:
 244:hello.c       ****         startSwitcher(); // start the thread switching (this does not return)
 288              		.loc 1 244 0
 289 0138 FFF7FEFF 		bl	startSwitcher
 290              	.LVL33:
 245:hello.c       **** }
 291              		.loc 1 245 0
 292 013c 0020     		movs	r0, #0
 293 013e 70BD     		pop	{r4, r5, r6, pc}
 294              	.L10:
 295              		.align	2
 296              	.L9:
 297 0140 44000001 		.word	16777284
 298 0144 000E2707 		.word	120000000
 299 0148 800600F1 		.word	-251656576
 300 014c 00000000 		.word	g_ui32SysClock
 301 0150 00400640 		.word	1074151424
 302 0154 20000001 		.word	16777248
 303 0158 08000000 		.word	.LC1
 304 015c 14000000 		.word	.LC2
 305 0160 30000000 		.word	.LC3
 306 0164 89888888 		.word	-2004318071
 307 0168 40000000 		.word	.LC4
 308 016c 54000000 		.word	.LC5
 309 0170 00000000 		.word	Thread1Stack
 310 0174 00000000 		.word	BodyPing
 311 0178 68000000 		.word	.LC6
 312 017c 00000000 		.word	Thread2Stack
 313 0180 00000000 		.word	BodyPong
 314              		.cfi_endproc
 315              	.LFE3:
 316              		.size	main, .-main
 317              		.comm	g_ui32SysClock,4,4
 318              		.comm	Thread2Stack,256,4
 319              		.comm	Thread1Stack,256,4
 320              		.section	.rodata.str1.4,"aMS",%progbits,1
 321              		.align	2
 322              	.LC0:
 323 0000 25732025 		.ascii	"%s %d\012\000"
 323      640A00
 324 0007 00       		.space	1
ARM GAS  C:\Users\Diogo\AppData\Local\Temp\ccnRS0Cj.s 			page 11


 325              	.LC1:
 326 0008 0A0A0A0A 		.ascii	"\012\012\012\012\012\012\012\012\012\012\012\000"
 326      0A0A0A0A 
 326      0A0A0A00 
 327              	.LC2:
 328 0014 48656C6C 		.ascii	"Hello, world  TIVA CCCC !\012\000"
 328      6F2C2077 
 328      6F726C64 
 328      20205449 
 328      56412043 
 329 002f 00       		.space	1
 330              	.LC3:
 331 0030 4C696761 		.ascii	"Ligando o LED\012\000"
 331      6E646F20 
 331      6F204C45 
 331      440A00
 332 003f 00       		.space	1
 333              	.LC4:
 334 0040 4465736C 		.ascii	"Desligando o LED\012\000"
 334      6967616E 
 334      646F206F 
 334      204C4544 
 334      0A00
 335 0052 0000     		.space	2
 336              	.LC5:
 337 0054 43726961 		.ascii	"Criando Tarefa 1\012\000"
 337      6E646F20 
 337      54617265 
 337      66612031 
 337      0A00
 338 0066 0000     		.space	2
 339              	.LC6:
 340 0068 43726961 		.ascii	"Criando Tarefa 2\012\000"
 340      6E646F20 
 340      54617265 
 340      66612032 
 340      0A00
 341              		.text
 342              	.Letext0:
 343              		.file 2 "c:\\program files (x86)\\gnu tools arm embedded\\7 2018-q2-update\\arm-none-eabi\\include
 344              		.file 3 "c:\\program files (x86)\\gnu tools arm embedded\\7 2018-q2-update\\arm-none-eabi\\include
 345              		.file 4 "c:\\program files (x86)\\gnu tools arm embedded\\7 2018-q2-update\\arm-none-eabi\\include
 346              		.file 5 "c:\\program files (x86)\\gnu tools arm embedded\\7 2018-q2-update\\arm-none-eabi\\include
 347              		.file 6 "c:\\program files (x86)\\gnu tools arm embedded\\7 2018-q2-update\\lib\\gcc\\arm-none-eab
 348              		.file 7 "c:\\program files (x86)\\gnu tools arm embedded\\7 2018-q2-update\\arm-none-eabi\\include
 349              		.file 8 "c:\\program files (x86)\\gnu tools arm embedded\\7 2018-q2-update\\arm-none-eabi\\include
 350              		.file 9 "drivers/pinout.h"
 351              		.file 10 "./inc/utils/uartstdio.h"
 352              		.file 11 "./inc/driverlib/sysctl.h"
 353              		.file 12 "Threads/thread.h"
 354              		.section	.debug_info,"",%progbits
 355              	.Ldebug_info0:
 356 0000 9B0D0000 		.4byte	0xd9b
 357 0004 0200     		.2byte	0x2
 358 0006 00000000 		.4byte	.Ldebug_abbrev0
 359 000a 04       		.byte	0x4
 360 000b 01       		.uleb128 0x1
ARM GAS  C:\Users\Diogo\AppData\Local\Temp\ccnRS0Cj.s 			page 12


 361 000c C3020000 		.4byte	.LASF143
 362 0010 0C       		.byte	0xc
 363 0011 F3010000 		.4byte	.LASF144
 364 0015 41050000 		.4byte	.LASF145
 365 0019 00000000 		.4byte	.Ltext0
 366 001d 84010000 		.4byte	.Letext0
 367 0021 00000000 		.4byte	.Ldebug_line0
 368 0025 02       		.uleb128 0x2
 369 0026 01       		.byte	0x1
 370 0027 06       		.byte	0x6
 371 0028 C3000000 		.4byte	.LASF0
 372 002c 02       		.uleb128 0x2
 373 002d 01       		.byte	0x1
 374 002e 08       		.byte	0x8
 375 002f BE030000 		.4byte	.LASF1
 376 0033 02       		.uleb128 0x2
 377 0034 02       		.byte	0x2
 378 0035 05       		.byte	0x5
 379 0036 DA030000 		.4byte	.LASF2
 380 003a 02       		.uleb128 0x2
 381 003b 02       		.byte	0x2
 382 003c 07       		.byte	0x7
 383 003d 52020000 		.4byte	.LASF3
 384 0041 02       		.uleb128 0x2
 385 0042 04       		.byte	0x4
 386 0043 05       		.byte	0x5
 387 0044 08010000 		.4byte	.LASF4
 388 0048 03       		.uleb128 0x3
 389 0049 AA010000 		.4byte	.LASF9
 390 004d 02       		.byte	0x2
 391 004e 4F       		.byte	0x4f
 392 004f 53000000 		.4byte	0x53
 393 0053 02       		.uleb128 0x2
 394 0054 04       		.byte	0x4
 395 0055 07       		.byte	0x7
 396 0056 24020000 		.4byte	.LASF5
 397 005a 02       		.uleb128 0x2
 398 005b 08       		.byte	0x8
 399 005c 05       		.byte	0x5
 400 005d B5000000 		.4byte	.LASF6
 401 0061 02       		.uleb128 0x2
 402 0062 08       		.byte	0x8
 403 0063 07       		.byte	0x7
 404 0064 5C000000 		.4byte	.LASF7
 405 0068 04       		.uleb128 0x4
 406 0069 04       		.byte	0x4
 407 006a 05       		.byte	0x5
 408 006b 696E7400 		.ascii	"int\000"
 409 006f 02       		.uleb128 0x2
 410 0070 04       		.byte	0x4
 411 0071 07       		.byte	0x7
 412 0072 00020000 		.4byte	.LASF8
 413 0076 03       		.uleb128 0x3
 414 0077 8F040000 		.4byte	.LASF10
 415 007b 03       		.byte	0x3
 416 007c 30       		.byte	0x30
 417 007d 48000000 		.4byte	0x48
ARM GAS  C:\Users\Diogo\AppData\Local\Temp\ccnRS0Cj.s 			page 13


 418 0081 05       		.uleb128 0x5
 419 0082 04       		.byte	0x4
 420 0083 02       		.uleb128 0x2
 421 0084 08       		.byte	0x8
 422 0085 04       		.byte	0x4
 423 0086 5D030000 		.4byte	.LASF11
 424 008a 03       		.uleb128 0x3
 425 008b 95020000 		.4byte	.LASF12
 426 008f 04       		.byte	0x4
 427 0090 22       		.byte	0x22
 428 0091 95000000 		.4byte	0x95
 429 0095 06       		.uleb128 0x6
 430 0096 04       		.byte	0x4
 431 0097 9B000000 		.4byte	0x9b
 432 009b 07       		.uleb128 0x7
 433 009c 88040000 		.4byte	.LASF119
 434 00a0 01       		.byte	0x1
 435 00a1 03       		.uleb128 0x3
 436 00a2 9F030000 		.4byte	.LASF13
 437 00a6 05       		.byte	0x5
 438 00a7 2C       		.byte	0x2c
 439 00a8 41000000 		.4byte	0x41
 440 00ac 03       		.uleb128 0x3
 441 00ad AA040000 		.4byte	.LASF14
 442 00b1 05       		.byte	0x5
 443 00b2 72       		.byte	0x72
 444 00b3 41000000 		.4byte	0x41
 445 00b7 08       		.uleb128 0x8
 446 00b8 9D020000 		.4byte	.LASF15
 447 00bc 06       		.byte	0x6
 448 00bd 6501     		.2byte	0x165
 449 00bf 6F000000 		.4byte	0x6f
 450 00c3 09       		.uleb128 0x9
 451 00c4 04       		.byte	0x4
 452 00c5 05       		.byte	0x5
 453 00c6 A6       		.byte	0xa6
 454 00c7 E2000000 		.4byte	0xe2
 455 00cb 0A       		.uleb128 0xa
 456 00cc 8F020000 		.4byte	.LASF16
 457 00d0 05       		.byte	0x5
 458 00d1 A8       		.byte	0xa8
 459 00d2 B7000000 		.4byte	0xb7
 460 00d6 0A       		.uleb128 0xa
 461 00d7 0D020000 		.4byte	.LASF17
 462 00db 05       		.byte	0x5
 463 00dc A9       		.byte	0xa9
 464 00dd E2000000 		.4byte	0xe2
 465 00e1 00       		.byte	0
 466 00e2 0B       		.uleb128 0xb
 467 00e3 2C000000 		.4byte	0x2c
 468 00e7 F2000000 		.4byte	0xf2
 469 00eb 0C       		.uleb128 0xc
 470 00ec 6F000000 		.4byte	0x6f
 471 00f0 03       		.byte	0x3
 472 00f1 00       		.byte	0
 473 00f2 0D       		.uleb128 0xd
 474 00f3 08       		.byte	0x8
ARM GAS  C:\Users\Diogo\AppData\Local\Temp\ccnRS0Cj.s 			page 14


 475 00f4 05       		.byte	0x5
 476 00f5 A3       		.byte	0xa3
 477 00f6 17010000 		.4byte	0x117
 478 00fa 0E       		.uleb128 0xe
 479 00fb 80040000 		.4byte	.LASF18
 480 00ff 05       		.byte	0x5
 481 0100 A5       		.byte	0xa5
 482 0101 68000000 		.4byte	0x68
 483 0105 02       		.byte	0x2
 484 0106 23       		.byte	0x23
 485 0107 00       		.uleb128 0
 486 0108 0E       		.uleb128 0xe
 487 0109 E9040000 		.4byte	.LASF19
 488 010d 05       		.byte	0x5
 489 010e AA       		.byte	0xaa
 490 010f C3000000 		.4byte	0xc3
 491 0113 02       		.byte	0x2
 492 0114 23       		.byte	0x23
 493 0115 04       		.uleb128 0x4
 494 0116 00       		.byte	0
 495 0117 03       		.uleb128 0x3
 496 0118 02040000 		.4byte	.LASF20
 497 011c 05       		.byte	0x5
 498 011d AB       		.byte	0xab
 499 011e F2000000 		.4byte	0xf2
 500 0122 03       		.uleb128 0x3
 501 0123 BB010000 		.4byte	.LASF21
 502 0127 05       		.byte	0x5
 503 0128 AF       		.byte	0xaf
 504 0129 8A000000 		.4byte	0x8a
 505 012d 06       		.uleb128 0x6
 506 012e 04       		.byte	0x4
 507 012f 33010000 		.4byte	0x133
 508 0133 02       		.uleb128 0x2
 509 0134 01       		.byte	0x1
 510 0135 08       		.byte	0x8
 511 0136 B9040000 		.4byte	.LASF22
 512 013a 0F       		.uleb128 0xf
 513 013b 33010000 		.4byte	0x133
 514 013f 03       		.uleb128 0x3
 515 0140 FF040000 		.4byte	.LASF23
 516 0144 07       		.byte	0x7
 517 0145 16       		.byte	0x16
 518 0146 53000000 		.4byte	0x53
 519 014a 10       		.uleb128 0x10
 520 014b CC010000 		.4byte	.LASF28
 521 014f 18       		.byte	0x18
 522 0150 07       		.byte	0x7
 523 0151 2F       		.byte	0x2f
 524 0152 A9010000 		.4byte	0x1a9
 525 0156 0E       		.uleb128 0xe
 526 0157 D6040000 		.4byte	.LASF24
 527 015b 07       		.byte	0x7
 528 015c 31       		.byte	0x31
 529 015d A9010000 		.4byte	0x1a9
 530 0161 02       		.byte	0x2
 531 0162 23       		.byte	0x23
ARM GAS  C:\Users\Diogo\AppData\Local\Temp\ccnRS0Cj.s 			page 15


 532 0163 00       		.uleb128 0
 533 0164 11       		.uleb128 0x11
 534 0165 5F6B00   		.ascii	"_k\000"
 535 0168 07       		.byte	0x7
 536 0169 32       		.byte	0x32
 537 016a 68000000 		.4byte	0x68
 538 016e 02       		.byte	0x2
 539 016f 23       		.byte	0x23
 540 0170 04       		.uleb128 0x4
 541 0171 0E       		.uleb128 0xe
 542 0172 6B040000 		.4byte	.LASF25
 543 0176 07       		.byte	0x7
 544 0177 32       		.byte	0x32
 545 0178 68000000 		.4byte	0x68
 546 017c 02       		.byte	0x2
 547 017d 23       		.byte	0x23
 548 017e 08       		.uleb128 0x8
 549 017f 0E       		.uleb128 0xe
 550 0180 B5010000 		.4byte	.LASF26
 551 0184 07       		.byte	0x7
 552 0185 32       		.byte	0x32
 553 0186 68000000 		.4byte	0x68
 554 018a 02       		.byte	0x2
 555 018b 23       		.byte	0x23
 556 018c 0C       		.uleb128 0xc
 557 018d 0E       		.uleb128 0xe
 558 018e 6B050000 		.4byte	.LASF27
 559 0192 07       		.byte	0x7
 560 0193 32       		.byte	0x32
 561 0194 68000000 		.4byte	0x68
 562 0198 02       		.byte	0x2
 563 0199 23       		.byte	0x23
 564 019a 10       		.uleb128 0x10
 565 019b 11       		.uleb128 0x11
 566 019c 5F7800   		.ascii	"_x\000"
 567 019f 07       		.byte	0x7
 568 01a0 33       		.byte	0x33
 569 01a1 AF010000 		.4byte	0x1af
 570 01a5 02       		.byte	0x2
 571 01a6 23       		.byte	0x23
 572 01a7 14       		.uleb128 0x14
 573 01a8 00       		.byte	0
 574 01a9 06       		.uleb128 0x6
 575 01aa 04       		.byte	0x4
 576 01ab 4A010000 		.4byte	0x14a
 577 01af 0B       		.uleb128 0xb
 578 01b0 3F010000 		.4byte	0x13f
 579 01b4 BF010000 		.4byte	0x1bf
 580 01b8 0C       		.uleb128 0xc
 581 01b9 6F000000 		.4byte	0x6f
 582 01bd 00       		.byte	0
 583 01be 00       		.byte	0
 584 01bf 10       		.uleb128 0x10
 585 01c0 FB010000 		.4byte	.LASF29
 586 01c4 24       		.byte	0x24
 587 01c5 07       		.byte	0x7
 588 01c6 37       		.byte	0x37
ARM GAS  C:\Users\Diogo\AppData\Local\Temp\ccnRS0Cj.s 			page 16


 589 01c7 4A020000 		.4byte	0x24a
 590 01cb 0E       		.uleb128 0xe
 591 01cc A0000000 		.4byte	.LASF30
 592 01d0 07       		.byte	0x7
 593 01d1 39       		.byte	0x39
 594 01d2 68000000 		.4byte	0x68
 595 01d6 02       		.byte	0x2
 596 01d7 23       		.byte	0x23
 597 01d8 00       		.uleb128 0
 598 01d9 0E       		.uleb128 0xe
 599 01da BE040000 		.4byte	.LASF31
 600 01de 07       		.byte	0x7
 601 01df 3A       		.byte	0x3a
 602 01e0 68000000 		.4byte	0x68
 603 01e4 02       		.byte	0x2
 604 01e5 23       		.byte	0x23
 605 01e6 04       		.uleb128 0x4
 606 01e7 0E       		.uleb128 0xe
 607 01e8 DB000000 		.4byte	.LASF32
 608 01ec 07       		.byte	0x7
 609 01ed 3B       		.byte	0x3b
 610 01ee 68000000 		.4byte	0x68
 611 01f2 02       		.byte	0x2
 612 01f3 23       		.byte	0x23
 613 01f4 08       		.uleb128 0x8
 614 01f5 0E       		.uleb128 0xe
 615 01f6 17060000 		.4byte	.LASF33
 616 01fa 07       		.byte	0x7
 617 01fb 3C       		.byte	0x3c
 618 01fc 68000000 		.4byte	0x68
 619 0200 02       		.byte	0x2
 620 0201 23       		.byte	0x23
 621 0202 0C       		.uleb128 0xc
 622 0203 0E       		.uleb128 0xe
 623 0204 70030000 		.4byte	.LASF34
 624 0208 07       		.byte	0x7
 625 0209 3D       		.byte	0x3d
 626 020a 68000000 		.4byte	0x68
 627 020e 02       		.byte	0x2
 628 020f 23       		.byte	0x23
 629 0210 10       		.uleb128 0x10
 630 0211 0E       		.uleb128 0xe
 631 0212 B9020000 		.4byte	.LASF35
 632 0216 07       		.byte	0x7
 633 0217 3E       		.byte	0x3e
 634 0218 68000000 		.4byte	0x68
 635 021c 02       		.byte	0x2
 636 021d 23       		.byte	0x23
 637 021e 14       		.uleb128 0x14
 638 021f 0E       		.uleb128 0xe
 639 0220 70050000 		.4byte	.LASF36
 640 0224 07       		.byte	0x7
 641 0225 3F       		.byte	0x3f
 642 0226 68000000 		.4byte	0x68
 643 022a 02       		.byte	0x2
 644 022b 23       		.byte	0x23
 645 022c 18       		.uleb128 0x18
ARM GAS  C:\Users\Diogo\AppData\Local\Temp\ccnRS0Cj.s 			page 17


 646 022d 0E       		.uleb128 0xe
 647 022e E4030000 		.4byte	.LASF37
 648 0232 07       		.byte	0x7
 649 0233 40       		.byte	0x40
 650 0234 68000000 		.4byte	0x68
 651 0238 02       		.byte	0x2
 652 0239 23       		.byte	0x23
 653 023a 1C       		.uleb128 0x1c
 654 023b 0E       		.uleb128 0xe
 655 023c D9050000 		.4byte	.LASF38
 656 0240 07       		.byte	0x7
 657 0241 41       		.byte	0x41
 658 0242 68000000 		.4byte	0x68
 659 0246 02       		.byte	0x2
 660 0247 23       		.byte	0x23
 661 0248 20       		.uleb128 0x20
 662 0249 00       		.byte	0
 663 024a 12       		.uleb128 0x12
 664 024b EA000000 		.4byte	.LASF39
 665 024f 0801     		.2byte	0x108
 666 0251 07       		.byte	0x7
 667 0252 4A       		.byte	0x4a
 668 0253 93020000 		.4byte	0x293
 669 0257 0E       		.uleb128 0xe
 670 0258 92010000 		.4byte	.LASF40
 671 025c 07       		.byte	0x7
 672 025d 4B       		.byte	0x4b
 673 025e 93020000 		.4byte	0x293
 674 0262 02       		.byte	0x2
 675 0263 23       		.byte	0x23
 676 0264 00       		.uleb128 0
 677 0265 0E       		.uleb128 0xe
 678 0266 00000000 		.4byte	.LASF41
 679 026a 07       		.byte	0x7
 680 026b 4C       		.byte	0x4c
 681 026c 93020000 		.4byte	0x293
 682 0270 03       		.byte	0x3
 683 0271 23       		.byte	0x23
 684 0272 8001     		.uleb128 0x80
 685 0274 0E       		.uleb128 0xe
 686 0275 F1040000 		.4byte	.LASF42
 687 0279 07       		.byte	0x7
 688 027a 4E       		.byte	0x4e
 689 027b 3F010000 		.4byte	0x13f
 690 027f 03       		.byte	0x3
 691 0280 23       		.byte	0x23
 692 0281 8002     		.uleb128 0x100
 693 0283 0E       		.uleb128 0xe
 694 0284 2A010000 		.4byte	.LASF43
 695 0288 07       		.byte	0x7
 696 0289 51       		.byte	0x51
 697 028a 3F010000 		.4byte	0x13f
 698 028e 03       		.byte	0x3
 699 028f 23       		.byte	0x23
 700 0290 8402     		.uleb128 0x104
 701 0292 00       		.byte	0
 702 0293 0B       		.uleb128 0xb
ARM GAS  C:\Users\Diogo\AppData\Local\Temp\ccnRS0Cj.s 			page 18


 703 0294 81000000 		.4byte	0x81
 704 0298 A3020000 		.4byte	0x2a3
 705 029c 0C       		.uleb128 0xc
 706 029d 6F000000 		.4byte	0x6f
 707 02a1 1F       		.byte	0x1f
 708 02a2 00       		.byte	0
 709 02a3 12       		.uleb128 0x12
 710 02a4 82030000 		.4byte	.LASF44
 711 02a8 9001     		.2byte	0x190
 712 02aa 07       		.byte	0x7
 713 02ab 5D       		.byte	0x5d
 714 02ac EA020000 		.4byte	0x2ea
 715 02b0 0E       		.uleb128 0xe
 716 02b1 D6040000 		.4byte	.LASF24
 717 02b5 07       		.byte	0x7
 718 02b6 5E       		.byte	0x5e
 719 02b7 EA020000 		.4byte	0x2ea
 720 02bb 02       		.byte	0x2
 721 02bc 23       		.byte	0x23
 722 02bd 00       		.uleb128 0
 723 02be 0E       		.uleb128 0xe
 724 02bf 3B040000 		.4byte	.LASF45
 725 02c3 07       		.byte	0x7
 726 02c4 5F       		.byte	0x5f
 727 02c5 68000000 		.4byte	0x68
 728 02c9 02       		.byte	0x2
 729 02ca 23       		.byte	0x23
 730 02cb 04       		.uleb128 0x4
 731 02cc 0E       		.uleb128 0xe
 732 02cd A5010000 		.4byte	.LASF46
 733 02d1 07       		.byte	0x7
 734 02d2 61       		.byte	0x61
 735 02d3 F0020000 		.4byte	0x2f0
 736 02d7 02       		.byte	0x2
 737 02d8 23       		.byte	0x23
 738 02d9 08       		.uleb128 0x8
 739 02da 0E       		.uleb128 0xe
 740 02db EA000000 		.4byte	.LASF39
 741 02df 07       		.byte	0x7
 742 02e0 62       		.byte	0x62
 743 02e1 4A020000 		.4byte	0x24a
 744 02e5 03       		.byte	0x3
 745 02e6 23       		.byte	0x23
 746 02e7 8801     		.uleb128 0x88
 747 02e9 00       		.byte	0
 748 02ea 06       		.uleb128 0x6
 749 02eb 04       		.byte	0x4
 750 02ec A3020000 		.4byte	0x2a3
 751 02f0 0B       		.uleb128 0xb
 752 02f1 00030000 		.4byte	0x300
 753 02f5 00030000 		.4byte	0x300
 754 02f9 0C       		.uleb128 0xc
 755 02fa 6F000000 		.4byte	0x6f
 756 02fe 1F       		.byte	0x1f
 757 02ff 00       		.byte	0
 758 0300 06       		.uleb128 0x6
 759 0301 04       		.byte	0x4
ARM GAS  C:\Users\Diogo\AppData\Local\Temp\ccnRS0Cj.s 			page 19


 760 0302 06030000 		.4byte	0x306
 761 0306 13       		.uleb128 0x13
 762 0307 01       		.byte	0x1
 763 0308 10       		.uleb128 0x10
 764 0309 EE030000 		.4byte	.LASF47
 765 030d 08       		.byte	0x8
 766 030e 07       		.byte	0x7
 767 030f 75       		.byte	0x75
 768 0310 31030000 		.4byte	0x331
 769 0314 0E       		.uleb128 0xe
 770 0315 D5000000 		.4byte	.LASF48
 771 0319 07       		.byte	0x7
 772 031a 76       		.byte	0x76
 773 031b 31030000 		.4byte	0x331
 774 031f 02       		.byte	0x2
 775 0320 23       		.byte	0x23
 776 0321 00       		.uleb128 0
 777 0322 0E       		.uleb128 0xe
 778 0323 13000000 		.4byte	.LASF49
 779 0327 07       		.byte	0x7
 780 0328 77       		.byte	0x77
 781 0329 68000000 		.4byte	0x68
 782 032d 02       		.byte	0x2
 783 032e 23       		.byte	0x23
 784 032f 04       		.uleb128 0x4
 785 0330 00       		.byte	0
 786 0331 06       		.uleb128 0x6
 787 0332 04       		.byte	0x4
 788 0333 2C000000 		.4byte	0x2c
 789 0337 10       		.uleb128 0x10
 790 0338 0D040000 		.4byte	.LASF50
 791 033c 68       		.byte	0x68
 792 033d 07       		.byte	0x7
 793 033e B5       		.byte	0xb5
 794 033f 91040000 		.4byte	0x491
 795 0343 11       		.uleb128 0x11
 796 0344 5F7000   		.ascii	"_p\000"
 797 0347 07       		.byte	0x7
 798 0348 B6       		.byte	0xb6
 799 0349 31030000 		.4byte	0x331
 800 034d 02       		.byte	0x2
 801 034e 23       		.byte	0x23
 802 034f 00       		.uleb128 0
 803 0350 11       		.uleb128 0x11
 804 0351 5F7200   		.ascii	"_r\000"
 805 0354 07       		.byte	0x7
 806 0355 B7       		.byte	0xb7
 807 0356 68000000 		.4byte	0x68
 808 035a 02       		.byte	0x2
 809 035b 23       		.byte	0x23
 810 035c 04       		.uleb128 0x4
 811 035d 11       		.uleb128 0x11
 812 035e 5F7700   		.ascii	"_w\000"
 813 0361 07       		.byte	0x7
 814 0362 B8       		.byte	0xb8
 815 0363 68000000 		.4byte	0x68
 816 0367 02       		.byte	0x2
ARM GAS  C:\Users\Diogo\AppData\Local\Temp\ccnRS0Cj.s 			page 20


 817 0368 23       		.byte	0x23
 818 0369 08       		.uleb128 0x8
 819 036a 0E       		.uleb128 0xe
 820 036b 23010000 		.4byte	.LASF51
 821 036f 07       		.byte	0x7
 822 0370 B9       		.byte	0xb9
 823 0371 33000000 		.4byte	0x33
 824 0375 02       		.byte	0x2
 825 0376 23       		.byte	0x23
 826 0377 0C       		.uleb128 0xc
 827 0378 0E       		.uleb128 0xe
 828 0379 36020000 		.4byte	.LASF52
 829 037d 07       		.byte	0x7
 830 037e BA       		.byte	0xba
 831 037f 33000000 		.4byte	0x33
 832 0383 02       		.byte	0x2
 833 0384 23       		.byte	0x23
 834 0385 0E       		.uleb128 0xe
 835 0386 11       		.uleb128 0x11
 836 0387 5F626600 		.ascii	"_bf\000"
 837 038b 07       		.byte	0x7
 838 038c BB       		.byte	0xbb
 839 038d 08030000 		.4byte	0x308
 840 0391 02       		.byte	0x2
 841 0392 23       		.byte	0x23
 842 0393 10       		.uleb128 0x10
 843 0394 0E       		.uleb128 0xe
 844 0395 73000000 		.4byte	.LASF53
 845 0399 07       		.byte	0x7
 846 039a BC       		.byte	0xbc
 847 039b 68000000 		.4byte	0x68
 848 039f 02       		.byte	0x2
 849 03a0 23       		.byte	0x23
 850 03a1 18       		.uleb128 0x18
 851 03a2 0E       		.uleb128 0xe
 852 03a3 F8000000 		.4byte	.LASF54
 853 03a7 07       		.byte	0x7
 854 03a8 C3       		.byte	0xc3
 855 03a9 81000000 		.4byte	0x81
 856 03ad 02       		.byte	0x2
 857 03ae 23       		.byte	0x23
 858 03af 1C       		.uleb128 0x1c
 859 03b0 0E       		.uleb128 0xe
 860 03b1 E3010000 		.4byte	.LASF55
 861 03b5 07       		.byte	0x7
 862 03b6 C5       		.byte	0xc5
 863 03b7 19060000 		.4byte	0x619
 864 03bb 02       		.byte	0x2
 865 03bc 23       		.byte	0x23
 866 03bd 20       		.uleb128 0x20
 867 03be 0E       		.uleb128 0xe
 868 03bf B2020000 		.4byte	.LASF56
 869 03c3 07       		.byte	0x7
 870 03c4 C7       		.byte	0xc7
 871 03c5 44060000 		.4byte	0x644
 872 03c9 02       		.byte	0x2
 873 03ca 23       		.byte	0x23
ARM GAS  C:\Users\Diogo\AppData\Local\Temp\ccnRS0Cj.s 			page 21


 874 03cb 24       		.uleb128 0x24
 875 03cc 0E       		.uleb128 0xe
 876 03cd 98040000 		.4byte	.LASF57
 877 03d1 07       		.byte	0x7
 878 03d2 CA       		.byte	0xca
 879 03d3 69060000 		.4byte	0x669
 880 03d7 02       		.byte	0x2
 881 03d8 23       		.byte	0x23
 882 03d9 28       		.uleb128 0x28
 883 03da 0E       		.uleb128 0xe
 884 03db F3050000 		.4byte	.LASF58
 885 03df 07       		.byte	0x7
 886 03e0 CB       		.byte	0xcb
 887 03e1 84060000 		.4byte	0x684
 888 03e5 02       		.byte	0x2
 889 03e6 23       		.byte	0x23
 890 03e7 2C       		.uleb128 0x2c
 891 03e8 11       		.uleb128 0x11
 892 03e9 5F756200 		.ascii	"_ub\000"
 893 03ed 07       		.byte	0x7
 894 03ee CE       		.byte	0xce
 895 03ef 08030000 		.4byte	0x308
 896 03f3 02       		.byte	0x2
 897 03f4 23       		.byte	0x23
 898 03f5 30       		.uleb128 0x30
 899 03f6 11       		.uleb128 0x11
 900 03f7 5F757000 		.ascii	"_up\000"
 901 03fb 07       		.byte	0x7
 902 03fc CF       		.byte	0xcf
 903 03fd 31030000 		.4byte	0x331
 904 0401 02       		.byte	0x2
 905 0402 23       		.byte	0x23
 906 0403 38       		.uleb128 0x38
 907 0404 11       		.uleb128 0x11
 908 0405 5F757200 		.ascii	"_ur\000"
 909 0409 07       		.byte	0x7
 910 040a D0       		.byte	0xd0
 911 040b 68000000 		.4byte	0x68
 912 040f 02       		.byte	0x2
 913 0410 23       		.byte	0x23
 914 0411 3C       		.uleb128 0x3c
 915 0412 0E       		.uleb128 0xe
 916 0413 CF000000 		.4byte	.LASF59
 917 0417 07       		.byte	0x7
 918 0418 D3       		.byte	0xd3
 919 0419 8A060000 		.4byte	0x68a
 920 041d 02       		.byte	0x2
 921 041e 23       		.byte	0x23
 922 041f 40       		.uleb128 0x40
 923 0420 0E       		.uleb128 0xe
 924 0421 CB050000 		.4byte	.LASF60
 925 0425 07       		.byte	0x7
 926 0426 D4       		.byte	0xd4
 927 0427 9A060000 		.4byte	0x69a
 928 042b 02       		.byte	0x2
 929 042c 23       		.byte	0x23
 930 042d 43       		.uleb128 0x43
ARM GAS  C:\Users\Diogo\AppData\Local\Temp\ccnRS0Cj.s 			page 22


 931 042e 11       		.uleb128 0x11
 932 042f 5F6C6200 		.ascii	"_lb\000"
 933 0433 07       		.byte	0x7
 934 0434 D7       		.byte	0xd7
 935 0435 08030000 		.4byte	0x308
 936 0439 02       		.byte	0x2
 937 043a 23       		.byte	0x23
 938 043b 44       		.uleb128 0x44
 939 043c 0E       		.uleb128 0xe
 940 043d 4D010000 		.4byte	.LASF61
 941 0441 07       		.byte	0x7
 942 0442 DA       		.byte	0xda
 943 0443 68000000 		.4byte	0x68
 944 0447 02       		.byte	0x2
 945 0448 23       		.byte	0x23
 946 0449 4C       		.uleb128 0x4c
 947 044a 0E       		.uleb128 0xe
 948 044b 5E010000 		.4byte	.LASF62
 949 044f 07       		.byte	0x7
 950 0450 DB       		.byte	0xdb
 951 0451 A1000000 		.4byte	0xa1
 952 0455 02       		.byte	0x2
 953 0456 23       		.byte	0x23
 954 0457 50       		.uleb128 0x50
 955 0458 0E       		.uleb128 0xe
 956 0459 36000000 		.4byte	.LASF63
 957 045d 07       		.byte	0x7
 958 045e DE       		.byte	0xde
 959 045f B0040000 		.4byte	0x4b0
 960 0463 02       		.byte	0x2
 961 0464 23       		.byte	0x23
 962 0465 54       		.uleb128 0x54
 963 0466 0E       		.uleb128 0xe
 964 0467 A4020000 		.4byte	.LASF64
 965 046b 07       		.byte	0x7
 966 046c E2       		.byte	0xe2
 967 046d 22010000 		.4byte	0x122
 968 0471 02       		.byte	0x2
 969 0472 23       		.byte	0x23
 970 0473 58       		.uleb128 0x58
 971 0474 0E       		.uleb128 0xe
 972 0475 15040000 		.4byte	.LASF65
 973 0479 07       		.byte	0x7
 974 047a E4       		.byte	0xe4
 975 047b 17010000 		.4byte	0x117
 976 047f 02       		.byte	0x2
 977 0480 23       		.byte	0x23
 978 0481 5C       		.uleb128 0x5c
 979 0482 0E       		.uleb128 0xe
 980 0483 AA020000 		.4byte	.LASF66
 981 0487 07       		.byte	0x7
 982 0488 E5       		.byte	0xe5
 983 0489 68000000 		.4byte	0x68
 984 048d 02       		.byte	0x2
 985 048e 23       		.byte	0x23
 986 048f 64       		.uleb128 0x64
 987 0490 00       		.byte	0
ARM GAS  C:\Users\Diogo\AppData\Local\Temp\ccnRS0Cj.s 			page 23


 988 0491 14       		.uleb128 0x14
 989 0492 01       		.byte	0x1
 990 0493 68000000 		.4byte	0x68
 991 0497 B0040000 		.4byte	0x4b0
 992 049b 15       		.uleb128 0x15
 993 049c B0040000 		.4byte	0x4b0
 994 04a0 15       		.uleb128 0x15
 995 04a1 81000000 		.4byte	0x81
 996 04a5 15       		.uleb128 0x15
 997 04a6 2D010000 		.4byte	0x12d
 998 04aa 15       		.uleb128 0x15
 999 04ab 68000000 		.4byte	0x68
 1000 04af 00       		.byte	0
 1001 04b0 06       		.uleb128 0x6
 1002 04b1 04       		.byte	0x4
 1003 04b2 BB040000 		.4byte	0x4bb
 1004 04b6 0F       		.uleb128 0xf
 1005 04b7 B0040000 		.4byte	0x4b0
 1006 04bb 16       		.uleb128 0x16
 1007 04bc 73040000 		.4byte	.LASF67
 1008 04c0 2804     		.2byte	0x428
 1009 04c2 07       		.byte	0x7
 1010 04c3 6002     		.2byte	0x260
 1011 04c5 19060000 		.4byte	0x619
 1012 04c9 17       		.uleb128 0x17
 1013 04ca B2040000 		.4byte	.LASF68
 1014 04ce 07       		.byte	0x7
 1015 04cf 6202     		.2byte	0x262
 1016 04d1 68000000 		.4byte	0x68
 1017 04d5 02       		.byte	0x2
 1018 04d6 23       		.byte	0x23
 1019 04d7 00       		.uleb128 0
 1020 04d8 17       		.uleb128 0x17
 1021 04d9 32010000 		.4byte	.LASF69
 1022 04dd 07       		.byte	0x7
 1023 04de 6702     		.2byte	0x267
 1024 04e0 F7060000 		.4byte	0x6f7
 1025 04e4 02       		.byte	0x2
 1026 04e5 23       		.byte	0x23
 1027 04e6 04       		.uleb128 0x4
 1028 04e7 17       		.uleb128 0x17
 1029 04e8 14020000 		.4byte	.LASF70
 1030 04ec 07       		.byte	0x7
 1031 04ed 6702     		.2byte	0x267
 1032 04ef F7060000 		.4byte	0x6f7
 1033 04f3 02       		.byte	0x2
 1034 04f4 23       		.byte	0x23
 1035 04f5 08       		.uleb128 0x8
 1036 04f6 17       		.uleb128 0x17
 1037 04f7 C4010000 		.4byte	.LASF71
 1038 04fb 07       		.byte	0x7
 1039 04fc 6702     		.2byte	0x267
 1040 04fe F7060000 		.4byte	0x6f7
 1041 0502 02       		.byte	0x2
 1042 0503 23       		.byte	0x23
 1043 0504 0C       		.uleb128 0xc
 1044 0505 17       		.uleb128 0x17
ARM GAS  C:\Users\Diogo\AppData\Local\Temp\ccnRS0Cj.s 			page 24


 1045 0506 36040000 		.4byte	.LASF72
 1046 050a 07       		.byte	0x7
 1047 050b 6902     		.2byte	0x269
 1048 050d 68000000 		.4byte	0x68
 1049 0511 02       		.byte	0x2
 1050 0512 23       		.byte	0x23
 1051 0513 10       		.uleb128 0x10
 1052 0514 17       		.uleb128 0x17
 1053 0515 21000000 		.4byte	.LASF73
 1054 0519 07       		.byte	0x7
 1055 051a 6A02     		.2byte	0x26a
 1056 051c 12090000 		.4byte	0x912
 1057 0520 02       		.byte	0x2
 1058 0521 23       		.byte	0x23
 1059 0522 14       		.uleb128 0x14
 1060 0523 17       		.uleb128 0x17
 1061 0524 52040000 		.4byte	.LASF74
 1062 0528 07       		.byte	0x7
 1063 0529 6D02     		.2byte	0x26d
 1064 052b 68000000 		.4byte	0x68
 1065 052f 02       		.byte	0x2
 1066 0530 23       		.byte	0x23
 1067 0531 30       		.uleb128 0x30
 1068 0532 17       		.uleb128 0x17
 1069 0533 40040000 		.4byte	.LASF75
 1070 0537 07       		.byte	0x7
 1071 0538 6E02     		.2byte	0x26e
 1072 053a 28090000 		.4byte	0x928
 1073 053e 02       		.byte	0x2
 1074 053f 23       		.byte	0x23
 1075 0540 34       		.uleb128 0x34
 1076 0541 17       		.uleb128 0x17
 1077 0542 94030000 		.4byte	.LASF76
 1078 0546 07       		.byte	0x7
 1079 0547 7002     		.2byte	0x270
 1080 0549 68000000 		.4byte	0x68
 1081 054d 02       		.byte	0x2
 1082 054e 23       		.byte	0x23
 1083 054f 38       		.uleb128 0x38
 1084 0550 17       		.uleb128 0x17
 1085 0551 48040000 		.4byte	.LASF77
 1086 0555 07       		.byte	0x7
 1087 0556 7202     		.2byte	0x272
 1088 0558 3A090000 		.4byte	0x93a
 1089 055c 02       		.byte	0x2
 1090 055d 23       		.byte	0x23
 1091 055e 3C       		.uleb128 0x3c
 1092 055f 17       		.uleb128 0x17
 1093 0560 87020000 		.4byte	.LASF78
 1094 0564 07       		.byte	0x7
 1095 0565 7502     		.2byte	0x275
 1096 0567 A9010000 		.4byte	0x1a9
 1097 056b 02       		.byte	0x2
 1098 056c 23       		.byte	0x23
 1099 056d 40       		.uleb128 0x40
 1100 056e 17       		.uleb128 0x17
 1101 056f E9010000 		.4byte	.LASF79
ARM GAS  C:\Users\Diogo\AppData\Local\Temp\ccnRS0Cj.s 			page 25


 1102 0573 07       		.byte	0x7
 1103 0574 7602     		.2byte	0x276
 1104 0576 68000000 		.4byte	0x68
 1105 057a 02       		.byte	0x2
 1106 057b 23       		.byte	0x23
 1107 057c 44       		.uleb128 0x44
 1108 057d 17       		.uleb128 0x17
 1109 057e 0D060000 		.4byte	.LASF80
 1110 0582 07       		.byte	0x7
 1111 0583 7702     		.2byte	0x277
 1112 0585 A9010000 		.4byte	0x1a9
 1113 0589 02       		.byte	0x2
 1114 058a 23       		.byte	0x23
 1115 058b 48       		.uleb128 0x48
 1116 058c 17       		.uleb128 0x17
 1117 058d A6030000 		.4byte	.LASF81
 1118 0591 07       		.byte	0x7
 1119 0592 7802     		.2byte	0x278
 1120 0594 40090000 		.4byte	0x940
 1121 0598 02       		.byte	0x2
 1122 0599 23       		.byte	0x23
 1123 059a 4C       		.uleb128 0x4c
 1124 059b 17       		.uleb128 0x17
 1125 059c 1C020000 		.4byte	.LASF82
 1126 05a0 07       		.byte	0x7
 1127 05a1 7B02     		.2byte	0x27b
 1128 05a3 68000000 		.4byte	0x68
 1129 05a7 02       		.byte	0x2
 1130 05a8 23       		.byte	0x23
 1131 05a9 50       		.uleb128 0x50
 1132 05aa 17       		.uleb128 0x17
 1133 05ab 56010000 		.4byte	.LASF83
 1134 05af 07       		.byte	0x7
 1135 05b0 7C02     		.2byte	0x27c
 1136 05b2 2D010000 		.4byte	0x12d
 1137 05b6 02       		.byte	0x2
 1138 05b7 23       		.byte	0x23
 1139 05b8 54       		.uleb128 0x54
 1140 05b9 17       		.uleb128 0x17
 1141 05ba CC030000 		.4byte	.LASF84
 1142 05be 07       		.byte	0x7
 1143 05bf 9F02     		.2byte	0x29f
 1144 05c1 F0080000 		.4byte	0x8f0
 1145 05c5 02       		.byte	0x2
 1146 05c6 23       		.byte	0x23
 1147 05c7 58       		.uleb128 0x58
 1148 05c8 17       		.uleb128 0x17
 1149 05c9 82030000 		.4byte	.LASF44
 1150 05cd 07       		.byte	0x7
 1151 05ce A302     		.2byte	0x2a3
 1152 05d0 EA020000 		.4byte	0x2ea
 1153 05d4 03       		.byte	0x3
 1154 05d5 23       		.byte	0x23
 1155 05d6 C802     		.uleb128 0x148
 1156 05d8 17       		.uleb128 0x17
 1157 05d9 65020000 		.4byte	.LASF85
 1158 05dd 07       		.byte	0x7
ARM GAS  C:\Users\Diogo\AppData\Local\Temp\ccnRS0Cj.s 			page 26


 1159 05de A402     		.2byte	0x2a4
 1160 05e0 A3020000 		.4byte	0x2a3
 1161 05e4 03       		.byte	0x3
 1162 05e5 23       		.byte	0x23
 1163 05e6 CC02     		.uleb128 0x14c
 1164 05e8 17       		.uleb128 0x17
 1165 05e9 B3050000 		.4byte	.LASF86
 1166 05ed 07       		.byte	0x7
 1167 05ee A802     		.2byte	0x2a8
 1168 05f0 52090000 		.4byte	0x952
 1169 05f4 03       		.byte	0x3
 1170 05f5 23       		.byte	0x23
 1171 05f6 DC05     		.uleb128 0x2dc
 1172 05f8 17       		.uleb128 0x17
 1173 05f9 00010000 		.4byte	.LASF87
 1174 05fd 07       		.byte	0x7
 1175 05fe AD02     		.2byte	0x2ad
 1176 0600 B6060000 		.4byte	0x6b6
 1177 0604 03       		.byte	0x3
 1178 0605 23       		.byte	0x23
 1179 0606 E005     		.uleb128 0x2e0
 1180 0608 17       		.uleb128 0x17
 1181 0609 E5000000 		.4byte	.LASF88
 1182 060d 07       		.byte	0x7
 1183 060e AF02     		.2byte	0x2af
 1184 0610 5E090000 		.4byte	0x95e
 1185 0614 03       		.byte	0x3
 1186 0615 23       		.byte	0x23
 1187 0616 EC05     		.uleb128 0x2ec
 1188 0618 00       		.byte	0
 1189 0619 06       		.uleb128 0x6
 1190 061a 04       		.byte	0x4
 1191 061b 91040000 		.4byte	0x491
 1192 061f 14       		.uleb128 0x14
 1193 0620 01       		.byte	0x1
 1194 0621 68000000 		.4byte	0x68
 1195 0625 3E060000 		.4byte	0x63e
 1196 0629 15       		.uleb128 0x15
 1197 062a B0040000 		.4byte	0x4b0
 1198 062e 15       		.uleb128 0x15
 1199 062f 81000000 		.4byte	0x81
 1200 0633 15       		.uleb128 0x15
 1201 0634 3E060000 		.4byte	0x63e
 1202 0638 15       		.uleb128 0x15
 1203 0639 68000000 		.4byte	0x68
 1204 063d 00       		.byte	0
 1205 063e 06       		.uleb128 0x6
 1206 063f 04       		.byte	0x4
 1207 0640 3A010000 		.4byte	0x13a
 1208 0644 06       		.uleb128 0x6
 1209 0645 04       		.byte	0x4
 1210 0646 1F060000 		.4byte	0x61f
 1211 064a 14       		.uleb128 0x14
 1212 064b 01       		.byte	0x1
 1213 064c AC000000 		.4byte	0xac
 1214 0650 69060000 		.4byte	0x669
 1215 0654 15       		.uleb128 0x15
ARM GAS  C:\Users\Diogo\AppData\Local\Temp\ccnRS0Cj.s 			page 27


 1216 0655 B0040000 		.4byte	0x4b0
 1217 0659 15       		.uleb128 0x15
 1218 065a 81000000 		.4byte	0x81
 1219 065e 15       		.uleb128 0x15
 1220 065f AC000000 		.4byte	0xac
 1221 0663 15       		.uleb128 0x15
 1222 0664 68000000 		.4byte	0x68
 1223 0668 00       		.byte	0
 1224 0669 06       		.uleb128 0x6
 1225 066a 04       		.byte	0x4
 1226 066b 4A060000 		.4byte	0x64a
 1227 066f 14       		.uleb128 0x14
 1228 0670 01       		.byte	0x1
 1229 0671 68000000 		.4byte	0x68
 1230 0675 84060000 		.4byte	0x684
 1231 0679 15       		.uleb128 0x15
 1232 067a B0040000 		.4byte	0x4b0
 1233 067e 15       		.uleb128 0x15
 1234 067f 81000000 		.4byte	0x81
 1235 0683 00       		.byte	0
 1236 0684 06       		.uleb128 0x6
 1237 0685 04       		.byte	0x4
 1238 0686 6F060000 		.4byte	0x66f
 1239 068a 0B       		.uleb128 0xb
 1240 068b 2C000000 		.4byte	0x2c
 1241 068f 9A060000 		.4byte	0x69a
 1242 0693 0C       		.uleb128 0xc
 1243 0694 6F000000 		.4byte	0x6f
 1244 0698 02       		.byte	0x2
 1245 0699 00       		.byte	0
 1246 069a 0B       		.uleb128 0xb
 1247 069b 2C000000 		.4byte	0x2c
 1248 069f AA060000 		.4byte	0x6aa
 1249 06a3 0C       		.uleb128 0xc
 1250 06a4 6F000000 		.4byte	0x6f
 1251 06a8 00       		.byte	0
 1252 06a9 00       		.byte	0
 1253 06aa 08       		.uleb128 0x8
 1254 06ab FB030000 		.4byte	.LASF89
 1255 06af 07       		.byte	0x7
 1256 06b0 1F01     		.2byte	0x11f
 1257 06b2 37030000 		.4byte	0x337
 1258 06b6 18       		.uleb128 0x18
 1259 06b7 7A050000 		.4byte	.LASF90
 1260 06bb 0C       		.byte	0xc
 1261 06bc 07       		.byte	0x7
 1262 06bd 2301     		.2byte	0x123
 1263 06bf F1060000 		.4byte	0x6f1
 1264 06c3 17       		.uleb128 0x17
 1265 06c4 D6040000 		.4byte	.LASF24
 1266 06c8 07       		.byte	0x7
 1267 06c9 2501     		.2byte	0x125
 1268 06cb F1060000 		.4byte	0x6f1
 1269 06cf 02       		.byte	0x2
 1270 06d0 23       		.byte	0x23
 1271 06d1 00       		.uleb128 0
 1272 06d2 17       		.uleb128 0x17
ARM GAS  C:\Users\Diogo\AppData\Local\Temp\ccnRS0Cj.s 			page 28


 1273 06d3 4B020000 		.4byte	.LASF91
 1274 06d7 07       		.byte	0x7
 1275 06d8 2601     		.2byte	0x126
 1276 06da 68000000 		.4byte	0x68
 1277 06de 02       		.byte	0x2
 1278 06df 23       		.byte	0x23
 1279 06e0 04       		.uleb128 0x4
 1280 06e1 17       		.uleb128 0x17
 1281 06e2 F5030000 		.4byte	.LASF92
 1282 06e6 07       		.byte	0x7
 1283 06e7 2701     		.2byte	0x127
 1284 06e9 F7060000 		.4byte	0x6f7
 1285 06ed 02       		.byte	0x2
 1286 06ee 23       		.byte	0x23
 1287 06ef 08       		.uleb128 0x8
 1288 06f0 00       		.byte	0
 1289 06f1 06       		.uleb128 0x6
 1290 06f2 04       		.byte	0x4
 1291 06f3 B6060000 		.4byte	0x6b6
 1292 06f7 06       		.uleb128 0x6
 1293 06f8 04       		.byte	0x4
 1294 06f9 AA060000 		.4byte	0x6aa
 1295 06fd 18       		.uleb128 0x18
 1296 06fe 19000000 		.4byte	.LASF93
 1297 0702 0E       		.byte	0xe
 1298 0703 07       		.byte	0x7
 1299 0704 3F01     		.2byte	0x13f
 1300 0706 38070000 		.4byte	0x738
 1301 070a 17       		.uleb128 0x17
 1302 070b 7A040000 		.4byte	.LASF94
 1303 070f 07       		.byte	0x7
 1304 0710 4001     		.2byte	0x140
 1305 0712 38070000 		.4byte	0x738
 1306 0716 02       		.byte	0x2
 1307 0717 23       		.byte	0x23
 1308 0718 00       		.uleb128 0
 1309 0719 17       		.uleb128 0x17
 1310 071a D0040000 		.4byte	.LASF95
 1311 071e 07       		.byte	0x7
 1312 071f 4101     		.2byte	0x141
 1313 0721 38070000 		.4byte	0x738
 1314 0725 02       		.byte	0x2
 1315 0726 23       		.byte	0x23
 1316 0727 06       		.uleb128 0x6
 1317 0728 17       		.uleb128 0x17
 1318 0729 FA040000 		.4byte	.LASF96
 1319 072d 07       		.byte	0x7
 1320 072e 4201     		.2byte	0x142
 1321 0730 3A000000 		.4byte	0x3a
 1322 0734 02       		.byte	0x2
 1323 0735 23       		.byte	0x23
 1324 0736 0C       		.uleb128 0xc
 1325 0737 00       		.byte	0
 1326 0738 0B       		.uleb128 0xb
 1327 0739 3A000000 		.4byte	0x3a
 1328 073d 48070000 		.4byte	0x748
 1329 0741 0C       		.uleb128 0xc
ARM GAS  C:\Users\Diogo\AppData\Local\Temp\ccnRS0Cj.s 			page 29


 1330 0742 6F000000 		.4byte	0x6f
 1331 0746 02       		.byte	0x2
 1332 0747 00       		.byte	0
 1333 0748 19       		.uleb128 0x19
 1334 0749 D0       		.byte	0xd0
 1335 074a 07       		.byte	0x7
 1336 074b 8002     		.2byte	0x280
 1337 074d 78080000 		.4byte	0x878
 1338 0751 17       		.uleb128 0x17
 1339 0752 34050000 		.4byte	.LASF97
 1340 0756 07       		.byte	0x7
 1341 0757 8202     		.2byte	0x282
 1342 0759 6F000000 		.4byte	0x6f
 1343 075d 02       		.byte	0x2
 1344 075e 23       		.byte	0x23
 1345 075f 00       		.uleb128 0
 1346 0760 17       		.uleb128 0x17
 1347 0761 DC040000 		.4byte	.LASF98
 1348 0765 07       		.byte	0x7
 1349 0766 8302     		.2byte	0x283
 1350 0768 2D010000 		.4byte	0x12d
 1351 076c 02       		.byte	0x2
 1352 076d 23       		.byte	0x23
 1353 076e 04       		.uleb128 0x4
 1354 076f 17       		.uleb128 0x17
 1355 0770 7A020000 		.4byte	.LASF99
 1356 0774 07       		.byte	0x7
 1357 0775 8402     		.2byte	0x284
 1358 0777 78080000 		.4byte	0x878
 1359 077b 02       		.byte	0x2
 1360 077c 23       		.byte	0x23
 1361 077d 08       		.uleb128 0x8
 1362 077e 17       		.uleb128 0x17
 1363 077f E4050000 		.4byte	.LASF100
 1364 0783 07       		.byte	0x7
 1365 0784 8502     		.2byte	0x285
 1366 0786 BF010000 		.4byte	0x1bf
 1367 078a 02       		.byte	0x2
 1368 078b 23       		.byte	0x23
 1369 078c 24       		.uleb128 0x24
 1370 078d 17       		.uleb128 0x17
 1371 078e D4010000 		.4byte	.LASF101
 1372 0792 07       		.byte	0x7
 1373 0793 8602     		.2byte	0x286
 1374 0795 68000000 		.4byte	0x68
 1375 0799 02       		.byte	0x2
 1376 079a 23       		.byte	0x23
 1377 079b 48       		.uleb128 0x48
 1378 079c 17       		.uleb128 0x17
 1379 079d 1E040000 		.4byte	.LASF102
 1380 07a1 07       		.byte	0x7
 1381 07a2 8702     		.2byte	0x287
 1382 07a4 61000000 		.4byte	0x61
 1383 07a8 02       		.byte	0x2
 1384 07a9 23       		.byte	0x23
 1385 07aa 50       		.uleb128 0x50
 1386 07ab 17       		.uleb128 0x17
ARM GAS  C:\Users\Diogo\AppData\Local\Temp\ccnRS0Cj.s 			page 30


 1387 07ac FA050000 		.4byte	.LASF103
 1388 07b0 07       		.byte	0x7
 1389 07b1 8802     		.2byte	0x288
 1390 07b3 FD060000 		.4byte	0x6fd
 1391 07b7 02       		.byte	0x2
 1392 07b8 23       		.byte	0x23
 1393 07b9 58       		.uleb128 0x58
 1394 07ba 17       		.uleb128 0x17
 1395 07bb 29040000 		.4byte	.LASF104
 1396 07bf 07       		.byte	0x7
 1397 07c0 8902     		.2byte	0x289
 1398 07c2 17010000 		.4byte	0x117
 1399 07c6 02       		.byte	0x2
 1400 07c7 23       		.byte	0x23
 1401 07c8 68       		.uleb128 0x68
 1402 07c9 17       		.uleb128 0x17
 1403 07ca FF050000 		.4byte	.LASF105
 1404 07ce 07       		.byte	0x7
 1405 07cf 8A02     		.2byte	0x28a
 1406 07d1 17010000 		.4byte	0x117
 1407 07d5 02       		.byte	0x2
 1408 07d6 23       		.byte	0x23
 1409 07d7 70       		.uleb128 0x70
 1410 07d8 17       		.uleb128 0x17
 1411 07d9 B0030000 		.4byte	.LASF106
 1412 07dd 07       		.byte	0x7
 1413 07de 8B02     		.2byte	0x28b
 1414 07e0 17010000 		.4byte	0x117
 1415 07e4 02       		.byte	0x2
 1416 07e5 23       		.byte	0x23
 1417 07e6 78       		.uleb128 0x78
 1418 07e7 17       		.uleb128 0x17
 1419 07e8 A4050000 		.4byte	.LASF107
 1420 07ec 07       		.byte	0x7
 1421 07ed 8C02     		.2byte	0x28c
 1422 07ef 88080000 		.4byte	0x888
 1423 07f3 03       		.byte	0x3
 1424 07f4 23       		.byte	0x23
 1425 07f5 8001     		.uleb128 0x80
 1426 07f7 17       		.uleb128 0x17
 1427 07f8 6E020000 		.4byte	.LASF108
 1428 07fc 07       		.byte	0x7
 1429 07fd 8D02     		.2byte	0x28d
 1430 07ff 98080000 		.4byte	0x898
 1431 0803 03       		.byte	0x3
 1432 0804 23       		.byte	0x23
 1433 0805 8801     		.uleb128 0x88
 1434 0807 17       		.uleb128 0x17
 1435 0808 07050000 		.4byte	.LASF109
 1436 080c 07       		.byte	0x7
 1437 080d 8E02     		.2byte	0x28e
 1438 080f 68000000 		.4byte	0x68
 1439 0813 03       		.byte	0x3
 1440 0814 23       		.byte	0x23
 1441 0815 A001     		.uleb128 0xa0
 1442 0817 17       		.uleb128 0x17
 1443 0818 77010000 		.4byte	.LASF110
ARM GAS  C:\Users\Diogo\AppData\Local\Temp\ccnRS0Cj.s 			page 31


 1444 081c 07       		.byte	0x7
 1445 081d 8F02     		.2byte	0x28f
 1446 081f 17010000 		.4byte	0x117
 1447 0823 03       		.byte	0x3
 1448 0824 23       		.byte	0x23
 1449 0825 A401     		.uleb128 0xa4
 1450 0827 17       		.uleb128 0x17
 1451 0828 87000000 		.4byte	.LASF111
 1452 082c 07       		.byte	0x7
 1453 082d 9002     		.2byte	0x290
 1454 082f 17010000 		.4byte	0x117
 1455 0833 03       		.byte	0x3
 1456 0834 23       		.byte	0x23
 1457 0835 AC01     		.uleb128 0xac
 1458 0837 17       		.uleb128 0x17
 1459 0838 66010000 		.4byte	.LASF112
 1460 083c 07       		.byte	0x7
 1461 083d 9102     		.2byte	0x291
 1462 083f 17010000 		.4byte	0x117
 1463 0843 03       		.byte	0x3
 1464 0844 23       		.byte	0x23
 1465 0845 B401     		.uleb128 0xb4
 1466 0847 17       		.uleb128 0x17
 1467 0848 3C000000 		.4byte	.LASF113
 1468 084c 07       		.byte	0x7
 1469 084d 9202     		.2byte	0x292
 1470 084f 17010000 		.4byte	0x117
 1471 0853 03       		.byte	0x3
 1472 0854 23       		.byte	0x23
 1473 0855 BC01     		.uleb128 0xbc
 1474 0857 17       		.uleb128 0x17
 1475 0858 4B000000 		.4byte	.LASF114
 1476 085c 07       		.byte	0x7
 1477 085d 9302     		.2byte	0x293
 1478 085f 17010000 		.4byte	0x117
 1479 0863 03       		.byte	0x3
 1480 0864 23       		.byte	0x23
 1481 0865 C401     		.uleb128 0xc4
 1482 0867 17       		.uleb128 0x17
 1483 0868 D1030000 		.4byte	.LASF115
 1484 086c 07       		.byte	0x7
 1485 086d 9402     		.2byte	0x294
 1486 086f 68000000 		.4byte	0x68
 1487 0873 03       		.byte	0x3
 1488 0874 23       		.byte	0x23
 1489 0875 CC01     		.uleb128 0xcc
 1490 0877 00       		.byte	0
 1491 0878 0B       		.uleb128 0xb
 1492 0879 33010000 		.4byte	0x133
 1493 087d 88080000 		.4byte	0x888
 1494 0881 0C       		.uleb128 0xc
 1495 0882 6F000000 		.4byte	0x6f
 1496 0886 19       		.byte	0x19
 1497 0887 00       		.byte	0
 1498 0888 0B       		.uleb128 0xb
 1499 0889 33010000 		.4byte	0x133
 1500 088d 98080000 		.4byte	0x898
ARM GAS  C:\Users\Diogo\AppData\Local\Temp\ccnRS0Cj.s 			page 32


 1501 0891 0C       		.uleb128 0xc
 1502 0892 6F000000 		.4byte	0x6f
 1503 0896 07       		.byte	0x7
 1504 0897 00       		.byte	0
 1505 0898 0B       		.uleb128 0xb
 1506 0899 33010000 		.4byte	0x133
 1507 089d A8080000 		.4byte	0x8a8
 1508 08a1 0C       		.uleb128 0xc
 1509 08a2 6F000000 		.4byte	0x6f
 1510 08a6 17       		.byte	0x17
 1511 08a7 00       		.byte	0
 1512 08a8 19       		.uleb128 0x19
 1513 08a9 F0       		.byte	0xf0
 1514 08aa 07       		.byte	0x7
 1515 08ab 9902     		.2byte	0x299
 1516 08ad D0080000 		.4byte	0x8d0
 1517 08b1 17       		.uleb128 0x17
 1518 08b2 69030000 		.4byte	.LASF116
 1519 08b6 07       		.byte	0x7
 1520 08b7 9C02     		.2byte	0x29c
 1521 08b9 D0080000 		.4byte	0x8d0
 1522 08bd 02       		.byte	0x2
 1523 08be 23       		.byte	0x23
 1524 08bf 00       		.uleb128 0
 1525 08c0 17       		.uleb128 0x17
 1526 08c1 9B050000 		.4byte	.LASF117
 1527 08c5 07       		.byte	0x7
 1528 08c6 9D02     		.2byte	0x29d
 1529 08c8 E0080000 		.4byte	0x8e0
 1530 08cc 02       		.byte	0x2
 1531 08cd 23       		.byte	0x23
 1532 08ce 78       		.uleb128 0x78
 1533 08cf 00       		.byte	0
 1534 08d0 0B       		.uleb128 0xb
 1535 08d1 31030000 		.4byte	0x331
 1536 08d5 E0080000 		.4byte	0x8e0
 1537 08d9 0C       		.uleb128 0xc
 1538 08da 6F000000 		.4byte	0x6f
 1539 08de 1D       		.byte	0x1d
 1540 08df 00       		.byte	0
 1541 08e0 0B       		.uleb128 0xb
 1542 08e1 6F000000 		.4byte	0x6f
 1543 08e5 F0080000 		.4byte	0x8f0
 1544 08e9 0C       		.uleb128 0xc
 1545 08ea 6F000000 		.4byte	0x6f
 1546 08ee 1D       		.byte	0x1d
 1547 08ef 00       		.byte	0
 1548 08f0 1A       		.uleb128 0x1a
 1549 08f1 F0       		.byte	0xf0
 1550 08f2 07       		.byte	0x7
 1551 08f3 7E02     		.2byte	0x27e
 1552 08f5 12090000 		.4byte	0x912
 1553 08f9 1B       		.uleb128 0x1b
 1554 08fa 73040000 		.4byte	.LASF67
 1555 08fe 07       		.byte	0x7
 1556 08ff 9502     		.2byte	0x295
 1557 0901 48070000 		.4byte	0x748
ARM GAS  C:\Users\Diogo\AppData\Local\Temp\ccnRS0Cj.s 			page 33


 1558 0905 1B       		.uleb128 0x1b
 1559 0906 D1050000 		.4byte	.LASF118
 1560 090a 07       		.byte	0x7
 1561 090b 9E02     		.2byte	0x29e
 1562 090d A8080000 		.4byte	0x8a8
 1563 0911 00       		.byte	0
 1564 0912 0B       		.uleb128 0xb
 1565 0913 33010000 		.4byte	0x133
 1566 0917 22090000 		.4byte	0x922
 1567 091b 0C       		.uleb128 0xc
 1568 091c 6F000000 		.4byte	0x6f
 1569 0920 18       		.byte	0x18
 1570 0921 00       		.byte	0
 1571 0922 07       		.uleb128 0x7
 1572 0923 7C000000 		.4byte	.LASF120
 1573 0927 01       		.byte	0x1
 1574 0928 06       		.uleb128 0x6
 1575 0929 04       		.byte	0x4
 1576 092a 22090000 		.4byte	0x922
 1577 092e 1C       		.uleb128 0x1c
 1578 092f 01       		.byte	0x1
 1579 0930 3A090000 		.4byte	0x93a
 1580 0934 15       		.uleb128 0x15
 1581 0935 B0040000 		.4byte	0x4b0
 1582 0939 00       		.byte	0
 1583 093a 06       		.uleb128 0x6
 1584 093b 04       		.byte	0x4
 1585 093c 2E090000 		.4byte	0x92e
 1586 0940 06       		.uleb128 0x6
 1587 0941 04       		.byte	0x4
 1588 0942 A9010000 		.4byte	0x1a9
 1589 0946 1C       		.uleb128 0x1c
 1590 0947 01       		.byte	0x1
 1591 0948 52090000 		.4byte	0x952
 1592 094c 15       		.uleb128 0x15
 1593 094d 68000000 		.4byte	0x68
 1594 0951 00       		.byte	0
 1595 0952 06       		.uleb128 0x6
 1596 0953 04       		.byte	0x4
 1597 0954 58090000 		.4byte	0x958
 1598 0958 06       		.uleb128 0x6
 1599 0959 04       		.byte	0x4
 1600 095a 46090000 		.4byte	0x946
 1601 095e 0B       		.uleb128 0xb
 1602 095f AA060000 		.4byte	0x6aa
 1603 0963 6E090000 		.4byte	0x96e
 1604 0967 0C       		.uleb128 0xc
 1605 0968 6F000000 		.4byte	0x6f
 1606 096c 02       		.byte	0x2
 1607 096d 00       		.byte	0
 1608 096e 1D       		.uleb128 0x1d
 1609 096f 9E040000 		.4byte	.LASF121
 1610 0973 07       		.byte	0x7
 1611 0974 2E03     		.2byte	0x32e
 1612 0976 B0040000 		.4byte	0x4b0
 1613 097a 01       		.byte	0x1
 1614 097b 01       		.byte	0x1
ARM GAS  C:\Users\Diogo\AppData\Local\Temp\ccnRS0Cj.s 			page 34


 1615 097c 1D       		.uleb128 0x1d
 1616 097d 21050000 		.4byte	.LASF122
 1617 0981 07       		.byte	0x7
 1618 0982 2F03     		.2byte	0x32f
 1619 0984 B6040000 		.4byte	0x4b6
 1620 0988 01       		.byte	0x1
 1621 0989 01       		.byte	0x1
 1622 098a 1E       		.uleb128 0x1e
 1623 098b 8A030000 		.4byte	.LASF123
 1624 098f 08       		.byte	0x8
 1625 0990 63       		.byte	0x63
 1626 0991 2D010000 		.4byte	0x12d
 1627 0995 01       		.byte	0x1
 1628 0996 01       		.byte	0x1
 1629 0997 0B       		.uleb128 0xb
 1630 0998 76000000 		.4byte	0x76
 1631 099c A7090000 		.4byte	0x9a7
 1632 09a0 0C       		.uleb128 0xc
 1633 09a1 6F000000 		.4byte	0x6f
 1634 09a5 3F       		.byte	0x3f
 1635 09a6 00       		.byte	0
 1636 09a7 1F       		.uleb128 0x1f
 1637 09a8 50030000 		.4byte	.LASF124
 1638 09ac 01       		.byte	0x1
 1639 09ad 30       		.byte	0x30
 1640 09ae 97090000 		.4byte	0x997
 1641 09b2 01       		.byte	0x1
 1642 09b3 05       		.byte	0x5
 1643 09b4 03       		.byte	0x3
 1644 09b5 00000000 		.4byte	Thread1Stack
 1645 09b9 1F       		.uleb128 0x1f
 1646 09ba 14050000 		.4byte	.LASF125
 1647 09be 01       		.byte	0x1
 1648 09bf 31       		.byte	0x31
 1649 09c0 97090000 		.4byte	0x997
 1650 09c4 01       		.byte	0x1
 1651 09c5 05       		.byte	0x5
 1652 09c6 03       		.byte	0x3
 1653 09c7 00000000 		.4byte	Thread2Stack
 1654 09cb 1F       		.uleb128 0x1f
 1655 09cc 3C020000 		.4byte	.LASF126
 1656 09d0 01       		.byte	0x1
 1657 09d1 47       		.byte	0x47
 1658 09d2 76000000 		.4byte	0x76
 1659 09d6 01       		.byte	0x1
 1660 09d7 05       		.byte	0x5
 1661 09d8 03       		.byte	0x3
 1662 09d9 00000000 		.4byte	g_ui32SysClock
 1663 09dd 20       		.uleb128 0x20
 1664 09de 01       		.byte	0x1
 1665 09df 12060000 		.4byte	.LASF129
 1666 09e3 01       		.byte	0x1
 1667 09e4 B0       		.byte	0xb0
 1668 09e5 01       		.byte	0x1
 1669 09e6 68000000 		.4byte	0x68
 1670 09ea 80000000 		.4byte	.LFB3
 1671 09ee 84010000 		.4byte	.LFE3
ARM GAS  C:\Users\Diogo\AppData\Local\Temp\ccnRS0Cj.s 			page 35


 1672 09f2 00000000 		.4byte	.LLST5
 1673 09f6 01       		.byte	0x1
 1674 09f7 DE0B0000 		.4byte	0xbde
 1675 09fb 21       		.uleb128 0x21
 1676 09fc 47010000 		.4byte	.LASF127
 1677 0a00 01       		.byte	0x1
 1678 0a01 B2       		.byte	0xb2
 1679 0a02 DE0B0000 		.4byte	0xbde
 1680 0a06 21       		.uleb128 0x21
 1681 0a07 AE050000 		.4byte	.LASF128
 1682 0a0b 01       		.byte	0x1
 1683 0a0c B3       		.byte	0xb3
 1684 0a0d 76000000 		.4byte	0x76
 1685 0a11 22       		.uleb128 0x22
 1686 0a12 90000000 		.4byte	.LVL12
 1687 0a16 2E0A0000 		.4byte	0xa2e
 1688 0a1a 23       		.uleb128 0x23
 1689 0a1b 01       		.byte	0x1
 1690 0a1c 50       		.byte	0x50
 1691 0a1d 06       		.byte	0x6
 1692 0a1e 11       		.byte	0x11
 1693 0a1f 808D8088 		.sleb128 -251656576
 1693      7F
 1694 0a24 23       		.uleb128 0x23
 1695 0a25 01       		.byte	0x1
 1696 0a26 51       		.byte	0x51
 1697 0a27 05       		.byte	0x5
 1698 0a28 0C       		.byte	0xc
 1699 0a29 000E2707 		.4byte	0x7270e00
 1700 0a2d 00       		.byte	0
 1701 0a2e 24       		.uleb128 0x24
 1702 0a2f 9C000000 		.4byte	.LVL13
 1703 0a33 350D0000 		.4byte	0xd35
 1704 0a37 460A0000 		.4byte	0xa46
 1705 0a3b 23       		.uleb128 0x23
 1706 0a3c 01       		.byte	0x1
 1707 0a3d 50       		.byte	0x50
 1708 0a3e 01       		.byte	0x1
 1709 0a3f 30       		.byte	0x30
 1710 0a40 23       		.uleb128 0x23
 1711 0a41 01       		.byte	0x1
 1712 0a42 51       		.byte	0x51
 1713 0a43 01       		.byte	0x1
 1714 0a44 30       		.byte	0x30
 1715 0a45 00       		.byte	0
 1716 0a46 22       		.uleb128 0x22
 1717 0a47 AA000000 		.4byte	.LVL14
 1718 0a4b 5B0A0000 		.4byte	0xa5b
 1719 0a4f 23       		.uleb128 0x23
 1720 0a50 01       		.byte	0x1
 1721 0a51 50       		.byte	0x50
 1722 0a52 02       		.byte	0x2
 1723 0a53 75       		.byte	0x75
 1724 0a54 00       		.sleb128 0
 1725 0a55 23       		.uleb128 0x23
 1726 0a56 01       		.byte	0x1
 1727 0a57 51       		.byte	0x51
ARM GAS  C:\Users\Diogo\AppData\Local\Temp\ccnRS0Cj.s 			page 36


 1728 0a58 01       		.byte	0x1
 1729 0a59 32       		.byte	0x32
 1730 0a5a 00       		.byte	0
 1731 0a5b 22       		.uleb128 0x22
 1732 0a5c B4000000 		.4byte	.LVL15
 1733 0a60 700A0000 		.4byte	0xa70
 1734 0a64 23       		.uleb128 0x23
 1735 0a65 01       		.byte	0x1
 1736 0a66 50       		.byte	0x50
 1737 0a67 02       		.byte	0x2
 1738 0a68 75       		.byte	0x75
 1739 0a69 00       		.sleb128 0
 1740 0a6a 23       		.uleb128 0x23
 1741 0a6b 01       		.byte	0x1
 1742 0a6c 51       		.byte	0x51
 1743 0a6d 01       		.byte	0x1
 1744 0a6e 34       		.byte	0x34
 1745 0a6f 00       		.byte	0
 1746 0a70 25       		.uleb128 0x25
 1747 0a71 B8000000 		.4byte	.LVL16
 1748 0a75 310C0000 		.4byte	0xc31
 1749 0a79 24       		.uleb128 0x24
 1750 0a7a C0000000 		.4byte	.LVL17
 1751 0a7e 420D0000 		.4byte	0xd42
 1752 0a82 8D0A0000 		.4byte	0xa8d
 1753 0a86 23       		.uleb128 0x23
 1754 0a87 01       		.byte	0x1
 1755 0a88 50       		.byte	0x50
 1756 0a89 02       		.byte	0x2
 1757 0a8a 75       		.byte	0x75
 1758 0a8b 00       		.sleb128 0
 1759 0a8c 00       		.byte	0
 1760 0a8d 24       		.uleb128 0x24
 1761 0a8e C6000000 		.4byte	.LVL18
 1762 0a92 420D0000 		.4byte	0xd42
 1763 0a96 A10A0000 		.4byte	0xaa1
 1764 0a9a 23       		.uleb128 0x23
 1765 0a9b 01       		.byte	0x1
 1766 0a9c 50       		.byte	0x50
 1767 0a9d 02       		.byte	0x2
 1768 0a9e 75       		.byte	0x75
 1769 0a9f 00       		.sleb128 0
 1770 0aa0 00       		.byte	0
 1771 0aa1 24       		.uleb128 0x24
 1772 0aa2 CC000000 		.4byte	.LVL19
 1773 0aa6 420D0000 		.4byte	0xd42
 1774 0aaa B50A0000 		.4byte	0xab5
 1775 0aae 23       		.uleb128 0x23
 1776 0aaf 01       		.byte	0x1
 1777 0ab0 50       		.byte	0x50
 1778 0ab1 02       		.byte	0x2
 1779 0ab2 75       		.byte	0x75
 1780 0ab3 00       		.sleb128 0
 1781 0ab4 00       		.byte	0
 1782 0ab5 24       		.uleb128 0x24
 1783 0ab6 D2000000 		.4byte	.LVL20
 1784 0aba 420D0000 		.4byte	0xd42
ARM GAS  C:\Users\Diogo\AppData\Local\Temp\ccnRS0Cj.s 			page 37


 1785 0abe CC0A0000 		.4byte	0xacc
 1786 0ac2 23       		.uleb128 0x23
 1787 0ac3 01       		.byte	0x1
 1788 0ac4 50       		.byte	0x50
 1789 0ac5 05       		.byte	0x5
 1790 0ac6 03       		.byte	0x3
 1791 0ac7 14000000 		.4byte	.LC2
 1792 0acb 00       		.byte	0
 1793 0acc 24       		.uleb128 0x24
 1794 0acd D8000000 		.4byte	.LVL21
 1795 0ad1 420D0000 		.4byte	0xd42
 1796 0ad5 E30A0000 		.4byte	0xae3
 1797 0ad9 23       		.uleb128 0x23
 1798 0ada 01       		.byte	0x1
 1799 0adb 50       		.byte	0x50
 1800 0adc 05       		.byte	0x5
 1801 0add 03       		.byte	0x3
 1802 0ade 30000000 		.4byte	.LC3
 1803 0ae2 00       		.byte	0
 1804 0ae3 24       		.uleb128 0x24
 1805 0ae4 E0000000 		.4byte	.LVL22
 1806 0ae8 4F0D0000 		.4byte	0xd4f
 1807 0aec FB0A0000 		.4byte	0xafb
 1808 0af0 23       		.uleb128 0x23
 1809 0af1 01       		.byte	0x1
 1810 0af2 50       		.byte	0x50
 1811 0af3 01       		.byte	0x1
 1812 0af4 31       		.byte	0x31
 1813 0af5 23       		.uleb128 0x23
 1814 0af6 01       		.byte	0x1
 1815 0af7 51       		.byte	0x51
 1816 0af8 01       		.byte	0x1
 1817 0af9 31       		.byte	0x31
 1818 0afa 00       		.byte	0
 1819 0afb 24       		.uleb128 0x24
 1820 0afc E8000000 		.4byte	.LVL23
 1821 0b00 4F0D0000 		.4byte	0xd4f
 1822 0b04 130B0000 		.4byte	0xb13
 1823 0b08 23       		.uleb128 0x23
 1824 0b09 01       		.byte	0x1
 1825 0b0a 50       		.byte	0x50
 1826 0b0b 01       		.byte	0x1
 1827 0b0c 32       		.byte	0x32
 1828 0b0d 23       		.uleb128 0x23
 1829 0b0e 01       		.byte	0x1
 1830 0b0f 51       		.byte	0x51
 1831 0b10 01       		.byte	0x1
 1832 0b11 30       		.byte	0x30
 1833 0b12 00       		.byte	0
 1834 0b13 25       		.uleb128 0x25
 1835 0b14 F6000000 		.4byte	.LVL24
 1836 0b18 5C0D0000 		.4byte	0xd5c
 1837 0b1c 24       		.uleb128 0x24
 1838 0b1d FC000000 		.4byte	.LVL25
 1839 0b21 420D0000 		.4byte	0xd42
 1840 0b25 330B0000 		.4byte	0xb33
 1841 0b29 23       		.uleb128 0x23
ARM GAS  C:\Users\Diogo\AppData\Local\Temp\ccnRS0Cj.s 			page 38


 1842 0b2a 01       		.byte	0x1
 1843 0b2b 50       		.byte	0x50
 1844 0b2c 05       		.byte	0x5
 1845 0b2d 03       		.byte	0x3
 1846 0b2e 40000000 		.4byte	.LC4
 1847 0b32 00       		.byte	0
 1848 0b33 24       		.uleb128 0x24
 1849 0b34 04010000 		.4byte	.LVL26
 1850 0b38 4F0D0000 		.4byte	0xd4f
 1851 0b3c 4B0B0000 		.4byte	0xb4b
 1852 0b40 23       		.uleb128 0x23
 1853 0b41 01       		.byte	0x1
 1854 0b42 50       		.byte	0x50
 1855 0b43 01       		.byte	0x1
 1856 0b44 31       		.byte	0x31
 1857 0b45 23       		.uleb128 0x23
 1858 0b46 01       		.byte	0x1
 1859 0b47 51       		.byte	0x51
 1860 0b48 01       		.byte	0x1
 1861 0b49 30       		.byte	0x30
 1862 0b4a 00       		.byte	0
 1863 0b4b 24       		.uleb128 0x24
 1864 0b4c 0C010000 		.4byte	.LVL27
 1865 0b50 4F0D0000 		.4byte	0xd4f
 1866 0b54 630B0000 		.4byte	0xb63
 1867 0b58 23       		.uleb128 0x23
 1868 0b59 01       		.byte	0x1
 1869 0b5a 50       		.byte	0x50
 1870 0b5b 01       		.byte	0x1
 1871 0b5c 32       		.byte	0x32
 1872 0b5d 23       		.uleb128 0x23
 1873 0b5e 01       		.byte	0x1
 1874 0b5f 51       		.byte	0x51
 1875 0b60 01       		.byte	0x1
 1876 0b61 31       		.byte	0x31
 1877 0b62 00       		.byte	0
 1878 0b63 25       		.uleb128 0x25
 1879 0b64 18010000 		.4byte	.LVL28
 1880 0b68 5C0D0000 		.4byte	0xd5c
 1881 0b6c 24       		.uleb128 0x24
 1882 0b6d 1E010000 		.4byte	.LVL29
 1883 0b71 420D0000 		.4byte	0xd42
 1884 0b75 830B0000 		.4byte	0xb83
 1885 0b79 23       		.uleb128 0x23
 1886 0b7a 01       		.byte	0x1
 1887 0b7b 50       		.byte	0x50
 1888 0b7c 05       		.byte	0x5
 1889 0b7d 03       		.byte	0x3
 1890 0b7e 54000000 		.4byte	.LC5
 1891 0b82 00       		.byte	0
 1892 0b83 24       		.uleb128 0x24
 1893 0b84 28010000 		.4byte	.LVL30
 1894 0b88 6A0D0000 		.4byte	0xd6a
 1895 0b8c A00B0000 		.4byte	0xba0
 1896 0b90 23       		.uleb128 0x23
 1897 0b91 01       		.byte	0x1
 1898 0b92 51       		.byte	0x51
ARM GAS  C:\Users\Diogo\AppData\Local\Temp\ccnRS0Cj.s 			page 39


 1899 0b93 05       		.byte	0x5
 1900 0b94 03       		.byte	0x3
 1901 0b95 00000000 		.4byte	Thread1Stack
 1902 0b99 23       		.uleb128 0x23
 1903 0b9a 01       		.byte	0x1
 1904 0b9b 52       		.byte	0x52
 1905 0b9c 02       		.byte	0x2
 1906 0b9d 08       		.byte	0x8
 1907 0b9e 40       		.byte	0x40
 1908 0b9f 00       		.byte	0
 1909 0ba0 24       		.uleb128 0x24
 1910 0ba1 2E010000 		.4byte	.LVL31
 1911 0ba5 420D0000 		.4byte	0xd42
 1912 0ba9 B70B0000 		.4byte	0xbb7
 1913 0bad 23       		.uleb128 0x23
 1914 0bae 01       		.byte	0x1
 1915 0baf 50       		.byte	0x50
 1916 0bb0 05       		.byte	0x5
 1917 0bb1 03       		.byte	0x3
 1918 0bb2 68000000 		.4byte	.LC6
 1919 0bb6 00       		.byte	0
 1920 0bb7 24       		.uleb128 0x24
 1921 0bb8 38010000 		.4byte	.LVL32
 1922 0bbc 6A0D0000 		.4byte	0xd6a
 1923 0bc0 D40B0000 		.4byte	0xbd4
 1924 0bc4 23       		.uleb128 0x23
 1925 0bc5 01       		.byte	0x1
 1926 0bc6 51       		.byte	0x51
 1927 0bc7 05       		.byte	0x5
 1928 0bc8 03       		.byte	0x3
 1929 0bc9 00000000 		.4byte	Thread2Stack
 1930 0bcd 23       		.uleb128 0x23
 1931 0bce 01       		.byte	0x1
 1932 0bcf 52       		.byte	0x52
 1933 0bd0 02       		.byte	0x2
 1934 0bd1 08       		.byte	0x8
 1935 0bd2 40       		.byte	0x40
 1936 0bd3 00       		.byte	0
 1937 0bd4 25       		.uleb128 0x25
 1938 0bd5 3C010000 		.4byte	.LVL33
 1939 0bd9 770D0000 		.4byte	0xd77
 1940 0bdd 00       		.byte	0
 1941 0bde 0B       		.uleb128 0xb
 1942 0bdf 33010000 		.4byte	0x133
 1943 0be3 EE0B0000 		.4byte	0xbee
 1944 0be7 0C       		.uleb128 0xc
 1945 0be8 6F000000 		.4byte	0x6f
 1946 0bec 09       		.byte	0x9
 1947 0bed 00       		.byte	0
 1948 0bee 20       		.uleb128 0x20
 1949 0bef 01       		.byte	0x1
 1950 0bf0 11010000 		.4byte	.LASF130
 1951 0bf4 01       		.byte	0x1
 1952 0bf5 A2       		.byte	0xa2
 1953 0bf6 01       		.byte	0x1
 1954 0bf7 2B0C0000 		.4byte	0xc2b
 1955 0bfb 74000000 		.4byte	.LFB2
ARM GAS  C:\Users\Diogo\AppData\Local\Temp\ccnRS0Cj.s 			page 40


 1956 0bff 80000000 		.4byte	.LFE2
 1957 0c03 20000000 		.4byte	.LLST4
 1958 0c07 01       		.byte	0x1
 1959 0c08 2B0C0000 		.4byte	0xc2b
 1960 0c0c 26       		.uleb128 0x26
 1961 0c0d 61757800 		.ascii	"aux\000"
 1962 0c11 01       		.byte	0x1
 1963 0c12 A4       		.byte	0xa4
 1964 0c13 2B0C0000 		.4byte	0xc2b
 1965 0c17 01       		.byte	0x1
 1966 0c18 50       		.byte	0x50
 1967 0c19 27       		.uleb128 0x27
 1968 0c1a 7E000000 		.4byte	.LVL11
 1969 0c1e 840D0000 		.4byte	0xd84
 1970 0c22 23       		.uleb128 0x23
 1971 0c23 01       		.byte	0x1
 1972 0c24 50       		.byte	0x50
 1973 0c25 03       		.byte	0x3
 1974 0c26 0A       		.byte	0xa
 1975 0c27 0001     		.2byte	0x100
 1976 0c29 00       		.byte	0
 1977 0c2a 00       		.byte	0
 1978 0c2b 06       		.uleb128 0x6
 1979 0c2c 04       		.byte	0x4
 1980 0c2d 76000000 		.4byte	0x76
 1981 0c31 28       		.uleb128 0x28
 1982 0c32 01       		.byte	0x1
 1983 0c33 BD050000 		.4byte	.LASF131
 1984 0c37 01       		.byte	0x1
 1985 0c38 5C       		.byte	0x5c
 1986 0c39 01       		.byte	0x1
 1987 0c3a 14000000 		.4byte	.LFB1
 1988 0c3e 74000000 		.4byte	.LFE1
 1989 0c42 40000000 		.4byte	.LLST3
 1990 0c46 01       		.byte	0x1
 1991 0c47 DB0C0000 		.4byte	0xcdb
 1992 0c4b 22       		.uleb128 0x22
 1993 0c4c 20000000 		.4byte	.LVL4
 1994 0c50 5F0C0000 		.4byte	0xc5f
 1995 0c54 23       		.uleb128 0x23
 1996 0c55 01       		.byte	0x1
 1997 0c56 50       		.byte	0x50
 1998 0c57 06       		.byte	0x6
 1999 0c58 11       		.byte	0x11
 2000 0c59 80908080 		.sleb128 -268433408
 2000      7F
 2001 0c5e 00       		.byte	0
 2002 0c5f 22       		.uleb128 0x22
 2003 0c60 28000000 		.4byte	.LVL5
 2004 0c64 730C0000 		.4byte	0xc73
 2005 0c68 23       		.uleb128 0x23
 2006 0c69 01       		.byte	0x1
 2007 0c6a 50       		.byte	0x50
 2008 0c6b 06       		.byte	0x6
 2009 0c6c 11       		.byte	0x11
 2010 0c6d 80B08080 		.sleb128 -268429312
 2010      7F
ARM GAS  C:\Users\Diogo\AppData\Local\Temp\ccnRS0Cj.s 			page 41


 2011 0c72 00       		.byte	0
 2012 0c73 22       		.uleb128 0x22
 2013 0c74 32000000 		.4byte	.LVL6
 2014 0c78 820C0000 		.4byte	0xc82
 2015 0c7c 23       		.uleb128 0x23
 2016 0c7d 01       		.byte	0x1
 2017 0c7e 50       		.byte	0x50
 2018 0c7f 01       		.byte	0x1
 2019 0c80 31       		.byte	0x31
 2020 0c81 00       		.byte	0
 2021 0c82 22       		.uleb128 0x22
 2022 0c83 3C000000 		.4byte	.LVL7
 2023 0c87 930C0000 		.4byte	0xc93
 2024 0c8b 23       		.uleb128 0x23
 2025 0c8c 01       		.byte	0x1
 2026 0c8d 50       		.byte	0x50
 2027 0c8e 03       		.byte	0x3
 2028 0c8f 0A       		.byte	0xa
 2029 0c90 0104     		.2byte	0x401
 2030 0c92 00       		.byte	0
 2031 0c93 22       		.uleb128 0x22
 2032 0c94 48000000 		.4byte	.LVL8
 2033 0c98 AB0C0000 		.4byte	0xcab
 2034 0c9c 23       		.uleb128 0x23
 2035 0c9d 01       		.byte	0x1
 2036 0c9e 50       		.byte	0x50
 2037 0c9f 05       		.byte	0x5
 2038 0ca0 0C       		.byte	0xc
 2039 0ca1 00400040 		.4byte	0x40004000
 2040 0ca5 23       		.uleb128 0x23
 2041 0ca6 01       		.byte	0x1
 2042 0ca7 51       		.byte	0x51
 2043 0ca8 01       		.byte	0x1
 2044 0ca9 33       		.byte	0x33
 2045 0caa 00       		.byte	0
 2046 0cab 22       		.uleb128 0x22
 2047 0cac 54000000 		.4byte	.LVL9
 2048 0cb0 C30C0000 		.4byte	0xcc3
 2049 0cb4 23       		.uleb128 0x23
 2050 0cb5 01       		.byte	0x1
 2051 0cb6 50       		.byte	0x50
 2052 0cb7 05       		.byte	0x5
 2053 0cb8 0C       		.byte	0xc
 2054 0cb9 00400040 		.4byte	0x40004000
 2055 0cbd 23       		.uleb128 0x23
 2056 0cbe 01       		.byte	0x1
 2057 0cbf 51       		.byte	0x51
 2058 0cc0 01       		.byte	0x1
 2059 0cc1 35       		.byte	0x35
 2060 0cc2 00       		.byte	0
 2061 0cc3 27       		.uleb128 0x27
 2062 0cc4 62000000 		.4byte	.LVL10
 2063 0cc8 910D0000 		.4byte	0xd91
 2064 0ccc 23       		.uleb128 0x23
 2065 0ccd 01       		.byte	0x1
 2066 0cce 50       		.byte	0x50
 2067 0ccf 01       		.byte	0x1
ARM GAS  C:\Users\Diogo\AppData\Local\Temp\ccnRS0Cj.s 			page 42


 2068 0cd0 30       		.byte	0x30
 2069 0cd1 23       		.uleb128 0x23
 2070 0cd2 01       		.byte	0x1
 2071 0cd3 51       		.byte	0x51
 2072 0cd4 04       		.byte	0x4
 2073 0cd5 08       		.byte	0x8
 2074 0cd6 E1       		.byte	0xe1
 2075 0cd7 39       		.byte	0x39
 2076 0cd8 24       		.byte	0x24
 2077 0cd9 00       		.byte	0
 2078 0cda 00       		.byte	0
 2079 0cdb 28       		.uleb128 0x28
 2080 0cdc 01       		.byte	0x1
 2081 0cdd 2C000000 		.4byte	.LASF132
 2082 0ce1 01       		.byte	0x1
 2083 0ce2 50       		.byte	0x50
 2084 0ce3 01       		.byte	0x1
 2085 0ce4 00000000 		.4byte	.LFB0
 2086 0ce8 14000000 		.4byte	.LFE0
 2087 0cec 60000000 		.4byte	.LLST0
 2088 0cf0 01       		.byte	0x1
 2089 0cf1 350D0000 		.4byte	0xd35
 2090 0cf5 29       		.uleb128 0x29
 2091 0cf6 90050000 		.4byte	.LASF133
 2092 0cfa 01       		.byte	0x1
 2093 0cfb 50       		.byte	0x50
 2094 0cfc 2D010000 		.4byte	0x12d
 2095 0d00 80000000 		.4byte	.LLST1
 2096 0d04 29       		.uleb128 0x29
 2097 0d05 79030000 		.4byte	.LASF134
 2098 0d09 01       		.byte	0x1
 2099 0d0a 50       		.byte	0x50
 2100 0d0b 76000000 		.4byte	0x76
 2101 0d0f AC000000 		.4byte	.LLST2
 2102 0d13 27       		.uleb128 0x27
 2103 0d14 0C000000 		.4byte	.LVL3
 2104 0d18 420D0000 		.4byte	0xd42
 2105 0d1c 23       		.uleb128 0x23
 2106 0d1d 01       		.byte	0x1
 2107 0d1e 50       		.byte	0x50
 2108 0d1f 05       		.byte	0x5
 2109 0d20 03       		.byte	0x3
 2110 0d21 00000000 		.4byte	.LC0
 2111 0d25 23       		.uleb128 0x23
 2112 0d26 01       		.byte	0x1
 2113 0d27 51       		.byte	0x51
 2114 0d28 03       		.byte	0x3
 2115 0d29 F3       		.byte	0xf3
 2116 0d2a 01       		.uleb128 0x1
 2117 0d2b 50       		.byte	0x50
 2118 0d2c 23       		.uleb128 0x23
 2119 0d2d 01       		.byte	0x1
 2120 0d2e 52       		.byte	0x52
 2121 0d2f 03       		.byte	0x3
 2122 0d30 F3       		.byte	0xf3
 2123 0d31 01       		.uleb128 0x1
 2124 0d32 51       		.byte	0x51
ARM GAS  C:\Users\Diogo\AppData\Local\Temp\ccnRS0Cj.s 			page 43


 2125 0d33 00       		.byte	0
 2126 0d34 00       		.byte	0
 2127 0d35 2A       		.uleb128 0x2a
 2128 0d36 01       		.byte	0x1
 2129 0d37 01       		.byte	0x1
 2130 0d38 96000000 		.4byte	.LASF135
 2131 0d3c 96000000 		.4byte	.LASF135
 2132 0d40 09       		.byte	0x9
 2133 0d41 43       		.byte	0x43
 2134 0d42 2A       		.uleb128 0x2a
 2135 0d43 01       		.byte	0x1
 2136 0d44 01       		.byte	0x1
 2137 0d45 9A010000 		.4byte	.LASF136
 2138 0d49 9A010000 		.4byte	.LASF136
 2139 0d4d 0A       		.byte	0xa
 2140 0d4e 41       		.byte	0x41
 2141 0d4f 2A       		.uleb128 0x2a
 2142 0d50 01       		.byte	0x1
 2143 0d51 01       		.byte	0x1
 2144 0d52 C7040000 		.4byte	.LASF137
 2145 0d56 C7040000 		.4byte	.LASF137
 2146 0d5a 09       		.byte	0x9
 2147 0d5b 44       		.byte	0x44
 2148 0d5c 2B       		.uleb128 0x2b
 2149 0d5d 01       		.byte	0x1
 2150 0d5e 01       		.byte	0x1
 2151 0d5f A9000000 		.4byte	.LASF138
 2152 0d63 A9000000 		.4byte	.LASF138
 2153 0d67 0B       		.byte	0xb
 2154 0d68 6802     		.2byte	0x268
 2155 0d6a 2A       		.uleb128 0x2a
 2156 0d6b 01       		.byte	0x1
 2157 0d6c 01       		.byte	0x1
 2158 0d6d 85010000 		.4byte	.LASF139
 2159 0d71 85010000 		.4byte	.LASF139
 2160 0d75 0C       		.byte	0xc
 2161 0d76 02       		.byte	0x2
 2162 0d77 2A       		.uleb128 0x2a
 2163 0d78 01       		.byte	0x1
 2164 0d79 01       		.byte	0x1
 2165 0d7a 39010000 		.4byte	.LASF140
 2166 0d7e 39010000 		.4byte	.LASF140
 2167 0d82 0C       		.byte	0xc
 2168 0d83 03       		.byte	0x3
 2169 0d84 2A       		.uleb128 0x2a
 2170 0d85 01       		.byte	0x1
 2171 0d86 01       		.byte	0x1
 2172 0d87 0C000000 		.4byte	.LASF141
 2173 0d8b 0C000000 		.4byte	.LASF141
 2174 0d8f 08       		.byte	0x8
 2175 0d90 68       		.byte	0x68
 2176 0d91 2A       		.uleb128 0x2a
 2177 0d92 01       		.byte	0x1
 2178 0d93 01       		.byte	0x1
 2179 0d94 80050000 		.4byte	.LASF142
 2180 0d98 80050000 		.4byte	.LASF142
 2181 0d9c 0A       		.byte	0xa
ARM GAS  C:\Users\Diogo\AppData\Local\Temp\ccnRS0Cj.s 			page 44


 2182 0d9d 3D       		.byte	0x3d
 2183 0d9e 00       		.byte	0
 2184              		.section	.debug_abbrev,"",%progbits
 2185              	.Ldebug_abbrev0:
 2186 0000 01       		.uleb128 0x1
 2187 0001 11       		.uleb128 0x11
 2188 0002 01       		.byte	0x1
 2189 0003 25       		.uleb128 0x25
 2190 0004 0E       		.uleb128 0xe
 2191 0005 13       		.uleb128 0x13
 2192 0006 0B       		.uleb128 0xb
 2193 0007 03       		.uleb128 0x3
 2194 0008 0E       		.uleb128 0xe
 2195 0009 1B       		.uleb128 0x1b
 2196 000a 0E       		.uleb128 0xe
 2197 000b 11       		.uleb128 0x11
 2198 000c 01       		.uleb128 0x1
 2199 000d 12       		.uleb128 0x12
 2200 000e 01       		.uleb128 0x1
 2201 000f 10       		.uleb128 0x10
 2202 0010 06       		.uleb128 0x6
 2203 0011 00       		.byte	0
 2204 0012 00       		.byte	0
 2205 0013 02       		.uleb128 0x2
 2206 0014 24       		.uleb128 0x24
 2207 0015 00       		.byte	0
 2208 0016 0B       		.uleb128 0xb
 2209 0017 0B       		.uleb128 0xb
 2210 0018 3E       		.uleb128 0x3e
 2211 0019 0B       		.uleb128 0xb
 2212 001a 03       		.uleb128 0x3
 2213 001b 0E       		.uleb128 0xe
 2214 001c 00       		.byte	0
 2215 001d 00       		.byte	0
 2216 001e 03       		.uleb128 0x3
 2217 001f 16       		.uleb128 0x16
 2218 0020 00       		.byte	0
 2219 0021 03       		.uleb128 0x3
 2220 0022 0E       		.uleb128 0xe
 2221 0023 3A       		.uleb128 0x3a
 2222 0024 0B       		.uleb128 0xb
 2223 0025 3B       		.uleb128 0x3b
 2224 0026 0B       		.uleb128 0xb
 2225 0027 49       		.uleb128 0x49
 2226 0028 13       		.uleb128 0x13
 2227 0029 00       		.byte	0
 2228 002a 00       		.byte	0
 2229 002b 04       		.uleb128 0x4
 2230 002c 24       		.uleb128 0x24
 2231 002d 00       		.byte	0
 2232 002e 0B       		.uleb128 0xb
 2233 002f 0B       		.uleb128 0xb
 2234 0030 3E       		.uleb128 0x3e
 2235 0031 0B       		.uleb128 0xb
 2236 0032 03       		.uleb128 0x3
 2237 0033 08       		.uleb128 0x8
 2238 0034 00       		.byte	0
ARM GAS  C:\Users\Diogo\AppData\Local\Temp\ccnRS0Cj.s 			page 45


 2239 0035 00       		.byte	0
 2240 0036 05       		.uleb128 0x5
 2241 0037 0F       		.uleb128 0xf
 2242 0038 00       		.byte	0
 2243 0039 0B       		.uleb128 0xb
 2244 003a 0B       		.uleb128 0xb
 2245 003b 00       		.byte	0
 2246 003c 00       		.byte	0
 2247 003d 06       		.uleb128 0x6
 2248 003e 0F       		.uleb128 0xf
 2249 003f 00       		.byte	0
 2250 0040 0B       		.uleb128 0xb
 2251 0041 0B       		.uleb128 0xb
 2252 0042 49       		.uleb128 0x49
 2253 0043 13       		.uleb128 0x13
 2254 0044 00       		.byte	0
 2255 0045 00       		.byte	0
 2256 0046 07       		.uleb128 0x7
 2257 0047 13       		.uleb128 0x13
 2258 0048 00       		.byte	0
 2259 0049 03       		.uleb128 0x3
 2260 004a 0E       		.uleb128 0xe
 2261 004b 3C       		.uleb128 0x3c
 2262 004c 0C       		.uleb128 0xc
 2263 004d 00       		.byte	0
 2264 004e 00       		.byte	0
 2265 004f 08       		.uleb128 0x8
 2266 0050 16       		.uleb128 0x16
 2267 0051 00       		.byte	0
 2268 0052 03       		.uleb128 0x3
 2269 0053 0E       		.uleb128 0xe
 2270 0054 3A       		.uleb128 0x3a
 2271 0055 0B       		.uleb128 0xb
 2272 0056 3B       		.uleb128 0x3b
 2273 0057 05       		.uleb128 0x5
 2274 0058 49       		.uleb128 0x49
 2275 0059 13       		.uleb128 0x13
 2276 005a 00       		.byte	0
 2277 005b 00       		.byte	0
 2278 005c 09       		.uleb128 0x9
 2279 005d 17       		.uleb128 0x17
 2280 005e 01       		.byte	0x1
 2281 005f 0B       		.uleb128 0xb
 2282 0060 0B       		.uleb128 0xb
 2283 0061 3A       		.uleb128 0x3a
 2284 0062 0B       		.uleb128 0xb
 2285 0063 3B       		.uleb128 0x3b
 2286 0064 0B       		.uleb128 0xb
 2287 0065 01       		.uleb128 0x1
 2288 0066 13       		.uleb128 0x13
 2289 0067 00       		.byte	0
 2290 0068 00       		.byte	0
 2291 0069 0A       		.uleb128 0xa
 2292 006a 0D       		.uleb128 0xd
 2293 006b 00       		.byte	0
 2294 006c 03       		.uleb128 0x3
 2295 006d 0E       		.uleb128 0xe
ARM GAS  C:\Users\Diogo\AppData\Local\Temp\ccnRS0Cj.s 			page 46


 2296 006e 3A       		.uleb128 0x3a
 2297 006f 0B       		.uleb128 0xb
 2298 0070 3B       		.uleb128 0x3b
 2299 0071 0B       		.uleb128 0xb
 2300 0072 49       		.uleb128 0x49
 2301 0073 13       		.uleb128 0x13
 2302 0074 00       		.byte	0
 2303 0075 00       		.byte	0
 2304 0076 0B       		.uleb128 0xb
 2305 0077 01       		.uleb128 0x1
 2306 0078 01       		.byte	0x1
 2307 0079 49       		.uleb128 0x49
 2308 007a 13       		.uleb128 0x13
 2309 007b 01       		.uleb128 0x1
 2310 007c 13       		.uleb128 0x13
 2311 007d 00       		.byte	0
 2312 007e 00       		.byte	0
 2313 007f 0C       		.uleb128 0xc
 2314 0080 21       		.uleb128 0x21
 2315 0081 00       		.byte	0
 2316 0082 49       		.uleb128 0x49
 2317 0083 13       		.uleb128 0x13
 2318 0084 2F       		.uleb128 0x2f
 2319 0085 0B       		.uleb128 0xb
 2320 0086 00       		.byte	0
 2321 0087 00       		.byte	0
 2322 0088 0D       		.uleb128 0xd
 2323 0089 13       		.uleb128 0x13
 2324 008a 01       		.byte	0x1
 2325 008b 0B       		.uleb128 0xb
 2326 008c 0B       		.uleb128 0xb
 2327 008d 3A       		.uleb128 0x3a
 2328 008e 0B       		.uleb128 0xb
 2329 008f 3B       		.uleb128 0x3b
 2330 0090 0B       		.uleb128 0xb
 2331 0091 01       		.uleb128 0x1
 2332 0092 13       		.uleb128 0x13
 2333 0093 00       		.byte	0
 2334 0094 00       		.byte	0
 2335 0095 0E       		.uleb128 0xe
 2336 0096 0D       		.uleb128 0xd
 2337 0097 00       		.byte	0
 2338 0098 03       		.uleb128 0x3
 2339 0099 0E       		.uleb128 0xe
 2340 009a 3A       		.uleb128 0x3a
 2341 009b 0B       		.uleb128 0xb
 2342 009c 3B       		.uleb128 0x3b
 2343 009d 0B       		.uleb128 0xb
 2344 009e 49       		.uleb128 0x49
 2345 009f 13       		.uleb128 0x13
 2346 00a0 38       		.uleb128 0x38
 2347 00a1 0A       		.uleb128 0xa
 2348 00a2 00       		.byte	0
 2349 00a3 00       		.byte	0
 2350 00a4 0F       		.uleb128 0xf
 2351 00a5 26       		.uleb128 0x26
 2352 00a6 00       		.byte	0
ARM GAS  C:\Users\Diogo\AppData\Local\Temp\ccnRS0Cj.s 			page 47


 2353 00a7 49       		.uleb128 0x49
 2354 00a8 13       		.uleb128 0x13
 2355 00a9 00       		.byte	0
 2356 00aa 00       		.byte	0
 2357 00ab 10       		.uleb128 0x10
 2358 00ac 13       		.uleb128 0x13
 2359 00ad 01       		.byte	0x1
 2360 00ae 03       		.uleb128 0x3
 2361 00af 0E       		.uleb128 0xe
 2362 00b0 0B       		.uleb128 0xb
 2363 00b1 0B       		.uleb128 0xb
 2364 00b2 3A       		.uleb128 0x3a
 2365 00b3 0B       		.uleb128 0xb
 2366 00b4 3B       		.uleb128 0x3b
 2367 00b5 0B       		.uleb128 0xb
 2368 00b6 01       		.uleb128 0x1
 2369 00b7 13       		.uleb128 0x13
 2370 00b8 00       		.byte	0
 2371 00b9 00       		.byte	0
 2372 00ba 11       		.uleb128 0x11
 2373 00bb 0D       		.uleb128 0xd
 2374 00bc 00       		.byte	0
 2375 00bd 03       		.uleb128 0x3
 2376 00be 08       		.uleb128 0x8
 2377 00bf 3A       		.uleb128 0x3a
 2378 00c0 0B       		.uleb128 0xb
 2379 00c1 3B       		.uleb128 0x3b
 2380 00c2 0B       		.uleb128 0xb
 2381 00c3 49       		.uleb128 0x49
 2382 00c4 13       		.uleb128 0x13
 2383 00c5 38       		.uleb128 0x38
 2384 00c6 0A       		.uleb128 0xa
 2385 00c7 00       		.byte	0
 2386 00c8 00       		.byte	0
 2387 00c9 12       		.uleb128 0x12
 2388 00ca 13       		.uleb128 0x13
 2389 00cb 01       		.byte	0x1
 2390 00cc 03       		.uleb128 0x3
 2391 00cd 0E       		.uleb128 0xe
 2392 00ce 0B       		.uleb128 0xb
 2393 00cf 05       		.uleb128 0x5
 2394 00d0 3A       		.uleb128 0x3a
 2395 00d1 0B       		.uleb128 0xb
 2396 00d2 3B       		.uleb128 0x3b
 2397 00d3 0B       		.uleb128 0xb
 2398 00d4 01       		.uleb128 0x1
 2399 00d5 13       		.uleb128 0x13
 2400 00d6 00       		.byte	0
 2401 00d7 00       		.byte	0
 2402 00d8 13       		.uleb128 0x13
 2403 00d9 15       		.uleb128 0x15
 2404 00da 00       		.byte	0
 2405 00db 27       		.uleb128 0x27
 2406 00dc 0C       		.uleb128 0xc
 2407 00dd 00       		.byte	0
 2408 00de 00       		.byte	0
 2409 00df 14       		.uleb128 0x14
ARM GAS  C:\Users\Diogo\AppData\Local\Temp\ccnRS0Cj.s 			page 48


 2410 00e0 15       		.uleb128 0x15
 2411 00e1 01       		.byte	0x1
 2412 00e2 27       		.uleb128 0x27
 2413 00e3 0C       		.uleb128 0xc
 2414 00e4 49       		.uleb128 0x49
 2415 00e5 13       		.uleb128 0x13
 2416 00e6 01       		.uleb128 0x1
 2417 00e7 13       		.uleb128 0x13
 2418 00e8 00       		.byte	0
 2419 00e9 00       		.byte	0
 2420 00ea 15       		.uleb128 0x15
 2421 00eb 05       		.uleb128 0x5
 2422 00ec 00       		.byte	0
 2423 00ed 49       		.uleb128 0x49
 2424 00ee 13       		.uleb128 0x13
 2425 00ef 00       		.byte	0
 2426 00f0 00       		.byte	0
 2427 00f1 16       		.uleb128 0x16
 2428 00f2 13       		.uleb128 0x13
 2429 00f3 01       		.byte	0x1
 2430 00f4 03       		.uleb128 0x3
 2431 00f5 0E       		.uleb128 0xe
 2432 00f6 0B       		.uleb128 0xb
 2433 00f7 05       		.uleb128 0x5
 2434 00f8 3A       		.uleb128 0x3a
 2435 00f9 0B       		.uleb128 0xb
 2436 00fa 3B       		.uleb128 0x3b
 2437 00fb 05       		.uleb128 0x5
 2438 00fc 01       		.uleb128 0x1
 2439 00fd 13       		.uleb128 0x13
 2440 00fe 00       		.byte	0
 2441 00ff 00       		.byte	0
 2442 0100 17       		.uleb128 0x17
 2443 0101 0D       		.uleb128 0xd
 2444 0102 00       		.byte	0
 2445 0103 03       		.uleb128 0x3
 2446 0104 0E       		.uleb128 0xe
 2447 0105 3A       		.uleb128 0x3a
 2448 0106 0B       		.uleb128 0xb
 2449 0107 3B       		.uleb128 0x3b
 2450 0108 05       		.uleb128 0x5
 2451 0109 49       		.uleb128 0x49
 2452 010a 13       		.uleb128 0x13
 2453 010b 38       		.uleb128 0x38
 2454 010c 0A       		.uleb128 0xa
 2455 010d 00       		.byte	0
 2456 010e 00       		.byte	0
 2457 010f 18       		.uleb128 0x18
 2458 0110 13       		.uleb128 0x13
 2459 0111 01       		.byte	0x1
 2460 0112 03       		.uleb128 0x3
 2461 0113 0E       		.uleb128 0xe
 2462 0114 0B       		.uleb128 0xb
 2463 0115 0B       		.uleb128 0xb
 2464 0116 3A       		.uleb128 0x3a
 2465 0117 0B       		.uleb128 0xb
 2466 0118 3B       		.uleb128 0x3b
ARM GAS  C:\Users\Diogo\AppData\Local\Temp\ccnRS0Cj.s 			page 49


 2467 0119 05       		.uleb128 0x5
 2468 011a 01       		.uleb128 0x1
 2469 011b 13       		.uleb128 0x13
 2470 011c 00       		.byte	0
 2471 011d 00       		.byte	0
 2472 011e 19       		.uleb128 0x19
 2473 011f 13       		.uleb128 0x13
 2474 0120 01       		.byte	0x1
 2475 0121 0B       		.uleb128 0xb
 2476 0122 0B       		.uleb128 0xb
 2477 0123 3A       		.uleb128 0x3a
 2478 0124 0B       		.uleb128 0xb
 2479 0125 3B       		.uleb128 0x3b
 2480 0126 05       		.uleb128 0x5
 2481 0127 01       		.uleb128 0x1
 2482 0128 13       		.uleb128 0x13
 2483 0129 00       		.byte	0
 2484 012a 00       		.byte	0
 2485 012b 1A       		.uleb128 0x1a
 2486 012c 17       		.uleb128 0x17
 2487 012d 01       		.byte	0x1
 2488 012e 0B       		.uleb128 0xb
 2489 012f 0B       		.uleb128 0xb
 2490 0130 3A       		.uleb128 0x3a
 2491 0131 0B       		.uleb128 0xb
 2492 0132 3B       		.uleb128 0x3b
 2493 0133 05       		.uleb128 0x5
 2494 0134 01       		.uleb128 0x1
 2495 0135 13       		.uleb128 0x13
 2496 0136 00       		.byte	0
 2497 0137 00       		.byte	0
 2498 0138 1B       		.uleb128 0x1b
 2499 0139 0D       		.uleb128 0xd
 2500 013a 00       		.byte	0
 2501 013b 03       		.uleb128 0x3
 2502 013c 0E       		.uleb128 0xe
 2503 013d 3A       		.uleb128 0x3a
 2504 013e 0B       		.uleb128 0xb
 2505 013f 3B       		.uleb128 0x3b
 2506 0140 05       		.uleb128 0x5
 2507 0141 49       		.uleb128 0x49
 2508 0142 13       		.uleb128 0x13
 2509 0143 00       		.byte	0
 2510 0144 00       		.byte	0
 2511 0145 1C       		.uleb128 0x1c
 2512 0146 15       		.uleb128 0x15
 2513 0147 01       		.byte	0x1
 2514 0148 27       		.uleb128 0x27
 2515 0149 0C       		.uleb128 0xc
 2516 014a 01       		.uleb128 0x1
 2517 014b 13       		.uleb128 0x13
 2518 014c 00       		.byte	0
 2519 014d 00       		.byte	0
 2520 014e 1D       		.uleb128 0x1d
 2521 014f 34       		.uleb128 0x34
 2522 0150 00       		.byte	0
 2523 0151 03       		.uleb128 0x3
ARM GAS  C:\Users\Diogo\AppData\Local\Temp\ccnRS0Cj.s 			page 50


 2524 0152 0E       		.uleb128 0xe
 2525 0153 3A       		.uleb128 0x3a
 2526 0154 0B       		.uleb128 0xb
 2527 0155 3B       		.uleb128 0x3b
 2528 0156 05       		.uleb128 0x5
 2529 0157 49       		.uleb128 0x49
 2530 0158 13       		.uleb128 0x13
 2531 0159 3F       		.uleb128 0x3f
 2532 015a 0C       		.uleb128 0xc
 2533 015b 3C       		.uleb128 0x3c
 2534 015c 0C       		.uleb128 0xc
 2535 015d 00       		.byte	0
 2536 015e 00       		.byte	0
 2537 015f 1E       		.uleb128 0x1e
 2538 0160 34       		.uleb128 0x34
 2539 0161 00       		.byte	0
 2540 0162 03       		.uleb128 0x3
 2541 0163 0E       		.uleb128 0xe
 2542 0164 3A       		.uleb128 0x3a
 2543 0165 0B       		.uleb128 0xb
 2544 0166 3B       		.uleb128 0x3b
 2545 0167 0B       		.uleb128 0xb
 2546 0168 49       		.uleb128 0x49
 2547 0169 13       		.uleb128 0x13
 2548 016a 3F       		.uleb128 0x3f
 2549 016b 0C       		.uleb128 0xc
 2550 016c 3C       		.uleb128 0x3c
 2551 016d 0C       		.uleb128 0xc
 2552 016e 00       		.byte	0
 2553 016f 00       		.byte	0
 2554 0170 1F       		.uleb128 0x1f
 2555 0171 34       		.uleb128 0x34
 2556 0172 00       		.byte	0
 2557 0173 03       		.uleb128 0x3
 2558 0174 0E       		.uleb128 0xe
 2559 0175 3A       		.uleb128 0x3a
 2560 0176 0B       		.uleb128 0xb
 2561 0177 3B       		.uleb128 0x3b
 2562 0178 0B       		.uleb128 0xb
 2563 0179 49       		.uleb128 0x49
 2564 017a 13       		.uleb128 0x13
 2565 017b 3F       		.uleb128 0x3f
 2566 017c 0C       		.uleb128 0xc
 2567 017d 02       		.uleb128 0x2
 2568 017e 0A       		.uleb128 0xa
 2569 017f 00       		.byte	0
 2570 0180 00       		.byte	0
 2571 0181 20       		.uleb128 0x20
 2572 0182 2E       		.uleb128 0x2e
 2573 0183 01       		.byte	0x1
 2574 0184 3F       		.uleb128 0x3f
 2575 0185 0C       		.uleb128 0xc
 2576 0186 03       		.uleb128 0x3
 2577 0187 0E       		.uleb128 0xe
 2578 0188 3A       		.uleb128 0x3a
 2579 0189 0B       		.uleb128 0xb
 2580 018a 3B       		.uleb128 0x3b
ARM GAS  C:\Users\Diogo\AppData\Local\Temp\ccnRS0Cj.s 			page 51


 2581 018b 0B       		.uleb128 0xb
 2582 018c 27       		.uleb128 0x27
 2583 018d 0C       		.uleb128 0xc
 2584 018e 49       		.uleb128 0x49
 2585 018f 13       		.uleb128 0x13
 2586 0190 11       		.uleb128 0x11
 2587 0191 01       		.uleb128 0x1
 2588 0192 12       		.uleb128 0x12
 2589 0193 01       		.uleb128 0x1
 2590 0194 40       		.uleb128 0x40
 2591 0195 06       		.uleb128 0x6
 2592 0196 9742     		.uleb128 0x2117
 2593 0198 0C       		.uleb128 0xc
 2594 0199 01       		.uleb128 0x1
 2595 019a 13       		.uleb128 0x13
 2596 019b 00       		.byte	0
 2597 019c 00       		.byte	0
 2598 019d 21       		.uleb128 0x21
 2599 019e 34       		.uleb128 0x34
 2600 019f 00       		.byte	0
 2601 01a0 03       		.uleb128 0x3
 2602 01a1 0E       		.uleb128 0xe
 2603 01a2 3A       		.uleb128 0x3a
 2604 01a3 0B       		.uleb128 0xb
 2605 01a4 3B       		.uleb128 0x3b
 2606 01a5 0B       		.uleb128 0xb
 2607 01a6 49       		.uleb128 0x49
 2608 01a7 13       		.uleb128 0x13
 2609 01a8 00       		.byte	0
 2610 01a9 00       		.byte	0
 2611 01aa 22       		.uleb128 0x22
 2612 01ab 898201   		.uleb128 0x4109
 2613 01ae 01       		.byte	0x1
 2614 01af 11       		.uleb128 0x11
 2615 01b0 01       		.uleb128 0x1
 2616 01b1 01       		.uleb128 0x1
 2617 01b2 13       		.uleb128 0x13
 2618 01b3 00       		.byte	0
 2619 01b4 00       		.byte	0
 2620 01b5 23       		.uleb128 0x23
 2621 01b6 8A8201   		.uleb128 0x410a
 2622 01b9 00       		.byte	0
 2623 01ba 02       		.uleb128 0x2
 2624 01bb 0A       		.uleb128 0xa
 2625 01bc 9142     		.uleb128 0x2111
 2626 01be 0A       		.uleb128 0xa
 2627 01bf 00       		.byte	0
 2628 01c0 00       		.byte	0
 2629 01c1 24       		.uleb128 0x24
 2630 01c2 898201   		.uleb128 0x4109
 2631 01c5 01       		.byte	0x1
 2632 01c6 11       		.uleb128 0x11
 2633 01c7 01       		.uleb128 0x1
 2634 01c8 31       		.uleb128 0x31
 2635 01c9 13       		.uleb128 0x13
 2636 01ca 01       		.uleb128 0x1
 2637 01cb 13       		.uleb128 0x13
ARM GAS  C:\Users\Diogo\AppData\Local\Temp\ccnRS0Cj.s 			page 52


 2638 01cc 00       		.byte	0
 2639 01cd 00       		.byte	0
 2640 01ce 25       		.uleb128 0x25
 2641 01cf 898201   		.uleb128 0x4109
 2642 01d2 00       		.byte	0
 2643 01d3 11       		.uleb128 0x11
 2644 01d4 01       		.uleb128 0x1
 2645 01d5 31       		.uleb128 0x31
 2646 01d6 13       		.uleb128 0x13
 2647 01d7 00       		.byte	0
 2648 01d8 00       		.byte	0
 2649 01d9 26       		.uleb128 0x26
 2650 01da 34       		.uleb128 0x34
 2651 01db 00       		.byte	0
 2652 01dc 03       		.uleb128 0x3
 2653 01dd 08       		.uleb128 0x8
 2654 01de 3A       		.uleb128 0x3a
 2655 01df 0B       		.uleb128 0xb
 2656 01e0 3B       		.uleb128 0x3b
 2657 01e1 0B       		.uleb128 0xb
 2658 01e2 49       		.uleb128 0x49
 2659 01e3 13       		.uleb128 0x13
 2660 01e4 02       		.uleb128 0x2
 2661 01e5 0A       		.uleb128 0xa
 2662 01e6 00       		.byte	0
 2663 01e7 00       		.byte	0
 2664 01e8 27       		.uleb128 0x27
 2665 01e9 898201   		.uleb128 0x4109
 2666 01ec 01       		.byte	0x1
 2667 01ed 11       		.uleb128 0x11
 2668 01ee 01       		.uleb128 0x1
 2669 01ef 31       		.uleb128 0x31
 2670 01f0 13       		.uleb128 0x13
 2671 01f1 00       		.byte	0
 2672 01f2 00       		.byte	0
 2673 01f3 28       		.uleb128 0x28
 2674 01f4 2E       		.uleb128 0x2e
 2675 01f5 01       		.byte	0x1
 2676 01f6 3F       		.uleb128 0x3f
 2677 01f7 0C       		.uleb128 0xc
 2678 01f8 03       		.uleb128 0x3
 2679 01f9 0E       		.uleb128 0xe
 2680 01fa 3A       		.uleb128 0x3a
 2681 01fb 0B       		.uleb128 0xb
 2682 01fc 3B       		.uleb128 0x3b
 2683 01fd 0B       		.uleb128 0xb
 2684 01fe 27       		.uleb128 0x27
 2685 01ff 0C       		.uleb128 0xc
 2686 0200 11       		.uleb128 0x11
 2687 0201 01       		.uleb128 0x1
 2688 0202 12       		.uleb128 0x12
 2689 0203 01       		.uleb128 0x1
 2690 0204 40       		.uleb128 0x40
 2691 0205 06       		.uleb128 0x6
 2692 0206 9742     		.uleb128 0x2117
 2693 0208 0C       		.uleb128 0xc
 2694 0209 01       		.uleb128 0x1
ARM GAS  C:\Users\Diogo\AppData\Local\Temp\ccnRS0Cj.s 			page 53


 2695 020a 13       		.uleb128 0x13
 2696 020b 00       		.byte	0
 2697 020c 00       		.byte	0
 2698 020d 29       		.uleb128 0x29
 2699 020e 05       		.uleb128 0x5
 2700 020f 00       		.byte	0
 2701 0210 03       		.uleb128 0x3
 2702 0211 0E       		.uleb128 0xe
 2703 0212 3A       		.uleb128 0x3a
 2704 0213 0B       		.uleb128 0xb
 2705 0214 3B       		.uleb128 0x3b
 2706 0215 0B       		.uleb128 0xb
 2707 0216 49       		.uleb128 0x49
 2708 0217 13       		.uleb128 0x13
 2709 0218 02       		.uleb128 0x2
 2710 0219 06       		.uleb128 0x6
 2711 021a 00       		.byte	0
 2712 021b 00       		.byte	0
 2713 021c 2A       		.uleb128 0x2a
 2714 021d 2E       		.uleb128 0x2e
 2715 021e 00       		.byte	0
 2716 021f 3F       		.uleb128 0x3f
 2717 0220 0C       		.uleb128 0xc
 2718 0221 3C       		.uleb128 0x3c
 2719 0222 0C       		.uleb128 0xc
 2720 0223 8740     		.uleb128 0x2007
 2721 0225 0E       		.uleb128 0xe
 2722 0226 03       		.uleb128 0x3
 2723 0227 0E       		.uleb128 0xe
 2724 0228 3A       		.uleb128 0x3a
 2725 0229 0B       		.uleb128 0xb
 2726 022a 3B       		.uleb128 0x3b
 2727 022b 0B       		.uleb128 0xb
 2728 022c 00       		.byte	0
 2729 022d 00       		.byte	0
 2730 022e 2B       		.uleb128 0x2b
 2731 022f 2E       		.uleb128 0x2e
 2732 0230 00       		.byte	0
 2733 0231 3F       		.uleb128 0x3f
 2734 0232 0C       		.uleb128 0xc
 2735 0233 3C       		.uleb128 0x3c
 2736 0234 0C       		.uleb128 0xc
 2737 0235 8740     		.uleb128 0x2007
 2738 0237 0E       		.uleb128 0xe
 2739 0238 03       		.uleb128 0x3
 2740 0239 0E       		.uleb128 0xe
 2741 023a 3A       		.uleb128 0x3a
 2742 023b 0B       		.uleb128 0xb
 2743 023c 3B       		.uleb128 0x3b
 2744 023d 05       		.uleb128 0x5
 2745 023e 00       		.byte	0
 2746 023f 00       		.byte	0
 2747 0240 00       		.byte	0
 2748              		.section	.debug_loc,"",%progbits
 2749              	.Ldebug_loc0:
 2750              	.LLST5:
 2751 0000 80000000 		.4byte	.LFB3-.Ltext0
ARM GAS  C:\Users\Diogo\AppData\Local\Temp\ccnRS0Cj.s 			page 54


 2752 0004 82000000 		.4byte	.LCFI3-.Ltext0
 2753 0008 0200     		.2byte	0x2
 2754 000a 7D       		.byte	0x7d
 2755 000b 00       		.sleb128 0
 2756 000c 82000000 		.4byte	.LCFI3-.Ltext0
 2757 0010 84010000 		.4byte	.LFE3-.Ltext0
 2758 0014 0200     		.2byte	0x2
 2759 0016 7D       		.byte	0x7d
 2760 0017 10       		.sleb128 16
 2761 0018 00000000 		.4byte	0
 2762 001c 00000000 		.4byte	0
 2763              	.LLST4:
 2764 0020 74000000 		.4byte	.LFB2-.Ltext0
 2765 0024 76000000 		.4byte	.LCFI2-.Ltext0
 2766 0028 0200     		.2byte	0x2
 2767 002a 7D       		.byte	0x7d
 2768 002b 00       		.sleb128 0
 2769 002c 76000000 		.4byte	.LCFI2-.Ltext0
 2770 0030 80000000 		.4byte	.LFE2-.Ltext0
 2771 0034 0200     		.2byte	0x2
 2772 0036 7D       		.byte	0x7d
 2773 0037 08       		.sleb128 8
 2774 0038 00000000 		.4byte	0
 2775 003c 00000000 		.4byte	0
 2776              	.LLST3:
 2777 0040 14000000 		.4byte	.LFB1-.Ltext0
 2778 0044 16000000 		.4byte	.LCFI1-.Ltext0
 2779 0048 0200     		.2byte	0x2
 2780 004a 7D       		.byte	0x7d
 2781 004b 00       		.sleb128 0
 2782 004c 16000000 		.4byte	.LCFI1-.Ltext0
 2783 0050 74000000 		.4byte	.LFE1-.Ltext0
 2784 0054 0200     		.2byte	0x2
 2785 0056 7D       		.byte	0x7d
 2786 0057 08       		.sleb128 8
 2787 0058 00000000 		.4byte	0
 2788 005c 00000000 		.4byte	0
 2789              	.LLST0:
 2790 0060 00000000 		.4byte	.LFB0-.Ltext0
 2791 0064 02000000 		.4byte	.LCFI0-.Ltext0
 2792 0068 0200     		.2byte	0x2
 2793 006a 7D       		.byte	0x7d
 2794 006b 00       		.sleb128 0
 2795 006c 02000000 		.4byte	.LCFI0-.Ltext0
 2796 0070 14000000 		.4byte	.LFE0-.Ltext0
 2797 0074 0200     		.2byte	0x2
 2798 0076 7D       		.byte	0x7d
 2799 0077 08       		.sleb128 8
 2800 0078 00000000 		.4byte	0
 2801 007c 00000000 		.4byte	0
 2802              	.LLST1:
 2803 0080 00000000 		.4byte	.LVL0-.Ltext0
 2804 0084 08000000 		.4byte	.LVL2-.Ltext0
 2805 0088 0100     		.2byte	0x1
 2806 008a 50       		.byte	0x50
 2807 008b 08000000 		.4byte	.LVL2-.Ltext0
 2808 008f 0B000000 		.4byte	.LVL3-1-.Ltext0
ARM GAS  C:\Users\Diogo\AppData\Local\Temp\ccnRS0Cj.s 			page 55


 2809 0093 0100     		.2byte	0x1
 2810 0095 51       		.byte	0x51
 2811 0096 0B000000 		.4byte	.LVL3-1-.Ltext0
 2812 009a 14000000 		.4byte	.LFE0-.Ltext0
 2813 009e 0400     		.2byte	0x4
 2814 00a0 F3       		.byte	0xf3
 2815 00a1 01       		.uleb128 0x1
 2816 00a2 50       		.byte	0x50
 2817 00a3 9F       		.byte	0x9f
 2818 00a4 00000000 		.4byte	0
 2819 00a8 00000000 		.4byte	0
 2820              	.LLST2:
 2821 00ac 00000000 		.4byte	.LVL0-.Ltext0
 2822 00b0 06000000 		.4byte	.LVL1-.Ltext0
 2823 00b4 0100     		.2byte	0x1
 2824 00b6 51       		.byte	0x51
 2825 00b7 06000000 		.4byte	.LVL1-.Ltext0
 2826 00bb 0B000000 		.4byte	.LVL3-1-.Ltext0
 2827 00bf 0100     		.2byte	0x1
 2828 00c1 52       		.byte	0x52
 2829 00c2 0B000000 		.4byte	.LVL3-1-.Ltext0
 2830 00c6 14000000 		.4byte	.LFE0-.Ltext0
 2831 00ca 0400     		.2byte	0x4
 2832 00cc F3       		.byte	0xf3
 2833 00cd 01       		.uleb128 0x1
 2834 00ce 51       		.byte	0x51
 2835 00cf 9F       		.byte	0x9f
 2836 00d0 00000000 		.4byte	0
 2837 00d4 00000000 		.4byte	0
 2838              		.section	.debug_aranges,"",%progbits
 2839 0000 1C000000 		.4byte	0x1c
 2840 0004 0200     		.2byte	0x2
 2841 0006 00000000 		.4byte	.Ldebug_info0
 2842 000a 04       		.byte	0x4
 2843 000b 00       		.byte	0
 2844 000c 0000     		.2byte	0
 2845 000e 0000     		.2byte	0
 2846 0010 00000000 		.4byte	.Ltext0
 2847 0014 84010000 		.4byte	.Letext0-.Ltext0
 2848 0018 00000000 		.4byte	0
 2849 001c 00000000 		.4byte	0
 2850              		.section	.debug_line,"",%progbits
 2851              	.Ldebug_line0:
 2852 0000 89020000 		.section	.debug_str,"MS",%progbits,1
 2852      02004502 
 2852      00000201 
 2852      FB0E0D00 
 2852      01010101 
 2853              	.LASF41:
 2854 0000 5F64736F 		.ascii	"_dso_handle\000"
 2854      5F68616E 
 2854      646C6500 
 2855              	.LASF141:
 2856 000c 6D616C6C 		.ascii	"malloc\000"
 2856      6F6300
 2857              	.LASF49:
 2858 0013 5F73697A 		.ascii	"_size\000"
ARM GAS  C:\Users\Diogo\AppData\Local\Temp\ccnRS0Cj.s 			page 56


 2858      6500
 2859              	.LASF93:
 2860 0019 5F72616E 		.ascii	"_rand48\000"
 2860      64343800 
 2861              	.LASF73:
 2862 0021 5F656D65 		.ascii	"_emergency\000"
 2862      7267656E 
 2862      637900
 2863              	.LASF132:
 2864 002c 5F5F6572 		.ascii	"__error__\000"
 2864      726F725F 
 2864      5F00
 2865              	.LASF63:
 2866 0036 5F646174 		.ascii	"_data\000"
 2866      6100
 2867              	.LASF113:
 2868 003c 5F776372 		.ascii	"_wcrtomb_state\000"
 2868      746F6D62 
 2868      5F737461 
 2868      746500
 2869              	.LASF114:
 2870 004b 5F776373 		.ascii	"_wcsrtombs_state\000"
 2870      72746F6D 
 2870      62735F73 
 2870      74617465 
 2870      00
 2871              	.LASF7:
 2872 005c 6C6F6E67 		.ascii	"long long unsigned int\000"
 2872      206C6F6E 
 2872      6720756E 
 2872      7369676E 
 2872      65642069 
 2873              	.LASF53:
 2874 0073 5F6C6266 		.ascii	"_lbfsize\000"
 2874      73697A65 
 2874      00
 2875              	.LASF120:
 2876 007c 5F5F6C6F 		.ascii	"__locale_t\000"
 2876      63616C65 
 2876      5F7400
 2877              	.LASF111:
 2878 0087 5F6D6272 		.ascii	"_mbrtowc_state\000"
 2878      746F7763 
 2878      5F737461 
 2878      746500
 2879              	.LASF135:
 2880 0096 50696E6F 		.ascii	"PinoutSet\000"
 2880      75745365 
 2880      7400
 2881              	.LASF30:
 2882 00a0 5F5F746D 		.ascii	"__tm_sec\000"
 2882      5F736563 
 2882      00
 2883              	.LASF138:
 2884 00a9 53797343 		.ascii	"SysCtlDelay\000"
 2884      746C4465 
 2884      6C617900 
ARM GAS  C:\Users\Diogo\AppData\Local\Temp\ccnRS0Cj.s 			page 57


 2885              	.LASF6:
 2886 00b5 6C6F6E67 		.ascii	"long long int\000"
 2886      206C6F6E 
 2886      6720696E 
 2886      7400
 2887              	.LASF0:
 2888 00c3 7369676E 		.ascii	"signed char\000"
 2888      65642063 
 2888      68617200 
 2889              	.LASF59:
 2890 00cf 5F756275 		.ascii	"_ubuf\000"
 2890      6600
 2891              	.LASF48:
 2892 00d5 5F626173 		.ascii	"_base\000"
 2892      6500
 2893              	.LASF32:
 2894 00db 5F5F746D 		.ascii	"__tm_hour\000"
 2894      5F686F75 
 2894      7200
 2895              	.LASF88:
 2896 00e5 5F5F7366 		.ascii	"__sf\000"
 2896      00
 2897              	.LASF39:
 2898 00ea 5F6F6E5F 		.ascii	"_on_exit_args\000"
 2898      65786974 
 2898      5F617267 
 2898      7300
 2899              	.LASF54:
 2900 00f8 5F636F6F 		.ascii	"_cookie\000"
 2900      6B696500 
 2901              	.LASF87:
 2902 0100 5F5F7367 		.ascii	"__sglue\000"
 2902      6C756500 
 2903              	.LASF4:
 2904 0108 6C6F6E67 		.ascii	"long int\000"
 2904      20696E74 
 2904      00
 2905              	.LASF130:
 2906 0111 63726561 		.ascii	"createThreadStack\000"
 2906      74655468 
 2906      72656164 
 2906      53746163 
 2906      6B00
 2907              	.LASF51:
 2908 0123 5F666C61 		.ascii	"_flags\000"
 2908      677300
 2909              	.LASF43:
 2910 012a 5F69735F 		.ascii	"_is_cxa\000"
 2910      63786100 
 2911              	.LASF69:
 2912 0132 5F737464 		.ascii	"_stdin\000"
 2912      696E00
 2913              	.LASF140:
 2914 0139 73746172 		.ascii	"startSwitcher\000"
 2914      74537769 
 2914      74636865 
 2914      7200
ARM GAS  C:\Users\Diogo\AppData\Local\Temp\ccnRS0Cj.s 			page 58


 2915              	.LASF127:
 2916 0147 74657374 		.ascii	"teste\000"
 2916      6500
 2917              	.LASF61:
 2918 014d 5F626C6B 		.ascii	"_blksize\000"
 2918      73697A65 
 2918      00
 2919              	.LASF83:
 2920 0156 5F637674 		.ascii	"_cvtbuf\000"
 2920      62756600 
 2921              	.LASF62:
 2922 015e 5F6F6666 		.ascii	"_offset\000"
 2922      73657400 
 2923              	.LASF112:
 2924 0166 5F6D6273 		.ascii	"_mbsrtowcs_state\000"
 2924      72746F77 
 2924      63735F73 
 2924      74617465 
 2924      00
 2925              	.LASF110:
 2926 0177 5F6D6272 		.ascii	"_mbrlen_state\000"
 2926      6C656E5F 
 2926      73746174 
 2926      6500
 2927              	.LASF139:
 2928 0185 63726561 		.ascii	"createThread\000"
 2928      74655468 
 2928      72656164 
 2928      00
 2929              	.LASF40:
 2930 0192 5F666E61 		.ascii	"_fnargs\000"
 2930      72677300 
 2931              	.LASF136:
 2932 019a 55415254 		.ascii	"UARTprintf\000"
 2932      7072696E 
 2932      746600
 2933              	.LASF46:
 2934 01a5 5F666E73 		.ascii	"_fns\000"
 2934      00
 2935              	.LASF9:
 2936 01aa 5F5F7569 		.ascii	"__uint32_t\000"
 2936      6E743332 
 2936      5F7400
 2937              	.LASF26:
 2938 01b5 5F736967 		.ascii	"_sign\000"
 2938      6E00
 2939              	.LASF21:
 2940 01bb 5F666C6F 		.ascii	"_flock_t\000"
 2940      636B5F74 
 2940      00
 2941              	.LASF71:
 2942 01c4 5F737464 		.ascii	"_stderr\000"
 2942      65727200 
 2943              	.LASF28:
 2944 01cc 5F426967 		.ascii	"_Bigint\000"
 2944      696E7400 
 2945              	.LASF101:
ARM GAS  C:\Users\Diogo\AppData\Local\Temp\ccnRS0Cj.s 			page 59


 2946 01d4 5F67616D 		.ascii	"_gamma_signgam\000"
 2946      6D615F73 
 2946      69676E67 
 2946      616D00
 2947              	.LASF55:
 2948 01e3 5F726561 		.ascii	"_read\000"
 2948      6400
 2949              	.LASF79:
 2950 01e9 5F726573 		.ascii	"_result_k\000"
 2950      756C745F 
 2950      6B00
 2951              	.LASF144:
 2952 01f3 68656C6C 		.ascii	"hello.c\000"
 2952      6F2E6300 
 2953              	.LASF29:
 2954 01fb 5F5F746D 		.ascii	"__tm\000"
 2954      00
 2955              	.LASF8:
 2956 0200 756E7369 		.ascii	"unsigned int\000"
 2956      676E6564 
 2956      20696E74 
 2956      00
 2957              	.LASF17:
 2958 020d 5F5F7763 		.ascii	"__wchb\000"
 2958      686200
 2959              	.LASF70:
 2960 0214 5F737464 		.ascii	"_stdout\000"
 2960      6F757400 
 2961              	.LASF82:
 2962 021c 5F637674 		.ascii	"_cvtlen\000"
 2962      6C656E00 
 2963              	.LASF5:
 2964 0224 6C6F6E67 		.ascii	"long unsigned int\000"
 2964      20756E73 
 2964      69676E65 
 2964      6420696E 
 2964      7400
 2965              	.LASF52:
 2966 0236 5F66696C 		.ascii	"_file\000"
 2966      6500
 2967              	.LASF126:
 2968 023c 675F7569 		.ascii	"g_ui32SysClock\000"
 2968      33325379 
 2968      73436C6F 
 2968      636B00
 2969              	.LASF91:
 2970 024b 5F6E696F 		.ascii	"_niobs\000"
 2970      627300
 2971              	.LASF3:
 2972 0252 73686F72 		.ascii	"short unsigned int\000"
 2972      7420756E 
 2972      7369676E 
 2972      65642069 
 2972      6E7400
 2973              	.LASF85:
 2974 0265 5F617465 		.ascii	"_atexit0\000"
 2974      78697430 
ARM GAS  C:\Users\Diogo\AppData\Local\Temp\ccnRS0Cj.s 			page 60


 2974      00
 2975              	.LASF108:
 2976 026e 5F736967 		.ascii	"_signal_buf\000"
 2976      6E616C5F 
 2976      62756600 
 2977              	.LASF99:
 2978 027a 5F617363 		.ascii	"_asctime_buf\000"
 2978      74696D65 
 2978      5F627566 
 2978      00
 2979              	.LASF78:
 2980 0287 5F726573 		.ascii	"_result\000"
 2980      756C7400 
 2981              	.LASF16:
 2982 028f 5F5F7763 		.ascii	"__wch\000"
 2982      6800
 2983              	.LASF12:
 2984 0295 5F4C4F43 		.ascii	"_LOCK_T\000"
 2984      4B5F5400 
 2985              	.LASF15:
 2986 029d 77696E74 		.ascii	"wint_t\000"
 2986      5F7400
 2987              	.LASF64:
 2988 02a4 5F6C6F63 		.ascii	"_lock\000"
 2988      6B00
 2989              	.LASF66:
 2990 02aa 5F666C61 		.ascii	"_flags2\000"
 2990      67733200 
 2991              	.LASF56:
 2992 02b2 5F777269 		.ascii	"_write\000"
 2992      746500
 2993              	.LASF35:
 2994 02b9 5F5F746D 		.ascii	"__tm_year\000"
 2994      5F796561 
 2994      7200
 2995              	.LASF143:
 2996 02c3 474E5520 		.ascii	"GNU C11 7.3.1 20180622 (release) [ARM/embedded-7-br"
 2996      43313120 
 2996      372E332E 
 2996      31203230 
 2996      31383036 
 2997 02f6 616E6368 		.ascii	"anch revision 261907] -mcpu=cortex-m4 -mthumb -mapc"
 2997      20726576 
 2997      6973696F 
 2997      6E203236 
 2997      31393037 
 2998 0329 732D6672 		.ascii	"s-frame -mthumb-interwork -gdwarf-2 -O\000"
 2998      616D6520 
 2998      2D6D7468 
 2998      756D622D 
 2998      696E7465 
 2999              	.LASF124:
 3000 0350 54687265 		.ascii	"Thread1Stack\000"
 3000      61643153 
 3000      7461636B 
 3000      00
 3001              	.LASF11:
ARM GAS  C:\Users\Diogo\AppData\Local\Temp\ccnRS0Cj.s 			page 61


 3002 035d 6C6F6E67 		.ascii	"long double\000"
 3002      20646F75 
 3002      626C6500 
 3003              	.LASF116:
 3004 0369 5F6E6578 		.ascii	"_nextf\000"
 3004      746600
 3005              	.LASF34:
 3006 0370 5F5F746D 		.ascii	"__tm_mon\000"
 3006      5F6D6F6E 
 3006      00
 3007              	.LASF134:
 3008 0379 75693332 		.ascii	"ui32Line\000"
 3008      4C696E65 
 3008      00
 3009              	.LASF44:
 3010 0382 5F617465 		.ascii	"_atexit\000"
 3010      78697400 
 3011              	.LASF123:
 3012 038a 7375626F 		.ascii	"suboptarg\000"
 3012      70746172 
 3012      6700
 3013              	.LASF76:
 3014 0394 5F5F7364 		.ascii	"__sdidinit\000"
 3014      6964696E 
 3014      697400
 3015              	.LASF13:
 3016 039f 5F6F6666 		.ascii	"_off_t\000"
 3016      5F7400
 3017              	.LASF81:
 3018 03a6 5F667265 		.ascii	"_freelist\000"
 3018      656C6973 
 3018      7400
 3019              	.LASF106:
 3020 03b0 5F776374 		.ascii	"_wctomb_state\000"
 3020      6F6D625F 
 3020      73746174 
 3020      6500
 3021              	.LASF1:
 3022 03be 756E7369 		.ascii	"unsigned char\000"
 3022      676E6564 
 3022      20636861 
 3022      7200
 3023              	.LASF84:
 3024 03cc 5F6E6577 		.ascii	"_new\000"
 3024      00
 3025              	.LASF115:
 3026 03d1 5F685F65 		.ascii	"_h_errno\000"
 3026      72726E6F 
 3026      00
 3027              	.LASF2:
 3028 03da 73686F72 		.ascii	"short int\000"
 3028      7420696E 
 3028      7400
 3029              	.LASF37:
 3030 03e4 5F5F746D 		.ascii	"__tm_yday\000"
 3030      5F796461 
 3030      7900
ARM GAS  C:\Users\Diogo\AppData\Local\Temp\ccnRS0Cj.s 			page 62


 3031              	.LASF47:
 3032 03ee 5F5F7362 		.ascii	"__sbuf\000"
 3032      756600
 3033              	.LASF92:
 3034 03f5 5F696F62 		.ascii	"_iobs\000"
 3034      7300
 3035              	.LASF89:
 3036 03fb 5F5F4649 		.ascii	"__FILE\000"
 3036      4C4500
 3037              	.LASF20:
 3038 0402 5F6D6273 		.ascii	"_mbstate_t\000"
 3038      74617465 
 3038      5F7400
 3039              	.LASF50:
 3040 040d 5F5F7346 		.ascii	"__sFILE\000"
 3040      494C4500 
 3041              	.LASF65:
 3042 0415 5F6D6273 		.ascii	"_mbstate\000"
 3042      74617465 
 3042      00
 3043              	.LASF102:
 3044 041e 5F72616E 		.ascii	"_rand_next\000"
 3044      645F6E65 
 3044      787400
 3045              	.LASF104:
 3046 0429 5F6D626C 		.ascii	"_mblen_state\000"
 3046      656E5F73 
 3046      74617465 
 3046      00
 3047              	.LASF72:
 3048 0436 5F696E63 		.ascii	"_inc\000"
 3048      00
 3049              	.LASF45:
 3050 043b 5F696E64 		.ascii	"_ind\000"
 3050      00
 3051              	.LASF75:
 3052 0440 5F6C6F63 		.ascii	"_locale\000"
 3052      616C6500 
 3053              	.LASF77:
 3054 0448 5F5F636C 		.ascii	"__cleanup\000"
 3054      65616E75 
 3054      7000
 3055              	.LASF74:
 3056 0452 5F756E73 		.ascii	"_unspecified_locale_info\000"
 3056      70656369 
 3056      66696564 
 3056      5F6C6F63 
 3056      616C655F 
 3057              	.LASF25:
 3058 046b 5F6D6178 		.ascii	"_maxwds\000"
 3058      77647300 
 3059              	.LASF67:
 3060 0473 5F726565 		.ascii	"_reent\000"
 3060      6E7400
 3061              	.LASF94:
 3062 047a 5F736565 		.ascii	"_seed\000"
 3062      6400
ARM GAS  C:\Users\Diogo\AppData\Local\Temp\ccnRS0Cj.s 			page 63


 3063              	.LASF18:
 3064 0480 5F5F636F 		.ascii	"__count\000"
 3064      756E7400 
 3065              	.LASF119:
 3066 0488 5F5F6C6F 		.ascii	"__lock\000"
 3066      636B00
 3067              	.LASF10:
 3068 048f 75696E74 		.ascii	"uint32_t\000"
 3068      33325F74 
 3068      00
 3069              	.LASF57:
 3070 0498 5F736565 		.ascii	"_seek\000"
 3070      6B00
 3071              	.LASF121:
 3072 049e 5F696D70 		.ascii	"_impure_ptr\000"
 3072      7572655F 
 3072      70747200 
 3073              	.LASF14:
 3074 04aa 5F66706F 		.ascii	"_fpos_t\000"
 3074      735F7400 
 3075              	.LASF68:
 3076 04b2 5F657272 		.ascii	"_errno\000"
 3076      6E6F00
 3077              	.LASF22:
 3078 04b9 63686172 		.ascii	"char\000"
 3078      00
 3079              	.LASF31:
 3080 04be 5F5F746D 		.ascii	"__tm_min\000"
 3080      5F6D696E 
 3080      00
 3081              	.LASF137:
 3082 04c7 4C454457 		.ascii	"LEDWrite\000"
 3082      72697465 
 3082      00
 3083              	.LASF95:
 3084 04d0 5F6D756C 		.ascii	"_mult\000"
 3084      7400
 3085              	.LASF24:
 3086 04d6 5F6E6578 		.ascii	"_next\000"
 3086      7400
 3087              	.LASF98:
 3088 04dc 5F737472 		.ascii	"_strtok_last\000"
 3088      746F6B5F 
 3088      6C617374 
 3088      00
 3089              	.LASF19:
 3090 04e9 5F5F7661 		.ascii	"__value\000"
 3090      6C756500 
 3091              	.LASF42:
 3092 04f1 5F666E74 		.ascii	"_fntypes\000"
 3092      79706573 
 3092      00
 3093              	.LASF96:
 3094 04fa 5F616464 		.ascii	"_add\000"
 3094      00
 3095              	.LASF23:
 3096 04ff 5F5F554C 		.ascii	"__ULong\000"
ARM GAS  C:\Users\Diogo\AppData\Local\Temp\ccnRS0Cj.s 			page 64


 3096      6F6E6700 
 3097              	.LASF109:
 3098 0507 5F676574 		.ascii	"_getdate_err\000"
 3098      64617465 
 3098      5F657272 
 3098      00
 3099              	.LASF125:
 3100 0514 54687265 		.ascii	"Thread2Stack\000"
 3100      61643253 
 3100      7461636B 
 3100      00
 3101              	.LASF122:
 3102 0521 5F676C6F 		.ascii	"_global_impure_ptr\000"
 3102      62616C5F 
 3102      696D7075 
 3102      72655F70 
 3102      747200
 3103              	.LASF97:
 3104 0534 5F756E75 		.ascii	"_unused_rand\000"
 3104      7365645F 
 3104      72616E64 
 3104      00
 3105              	.LASF145:
 3106 0541 443A5C55 		.ascii	"D:\\UTFPR\\SISTEMAS OPERACIONAIS\\SO-threads\000"
 3106      54465052 
 3106      5C534953 
 3106      54454D41 
 3106      53204F50 
 3107              	.LASF27:
 3108 056b 5F776473 		.ascii	"_wds\000"
 3108      00
 3109              	.LASF36:
 3110 0570 5F5F746D 		.ascii	"__tm_wday\000"
 3110      5F776461 
 3110      7900
 3111              	.LASF90:
 3112 057a 5F676C75 		.ascii	"_glue\000"
 3112      6500
 3113              	.LASF142:
 3114 0580 55415254 		.ascii	"UARTStdioConfig\000"
 3114      53746469 
 3114      6F436F6E 
 3114      66696700 
 3115              	.LASF133:
 3116 0590 70634669 		.ascii	"pcFilename\000"
 3116      6C656E61 
 3116      6D6500
 3117              	.LASF117:
 3118 059b 5F6E6D61 		.ascii	"_nmalloc\000"
 3118      6C6C6F63 
 3118      00
 3119              	.LASF107:
 3120 05a4 5F6C3634 		.ascii	"_l64a_buf\000"
 3120      615F6275 
 3120      6600
 3121              	.LASF128:
 3122 05ae 636F6E74 		.ascii	"cont\000"
ARM GAS  C:\Users\Diogo\AppData\Local\Temp\ccnRS0Cj.s 			page 65


 3122      00
 3123              	.LASF86:
 3124 05b3 5F736967 		.ascii	"_sig_func\000"
 3124      5F66756E 
 3124      6300
 3125              	.LASF131:
 3126 05bd 436F6E66 		.ascii	"ConfigureUART\000"
 3126      69677572 
 3126      65554152 
 3126      5400
 3127              	.LASF60:
 3128 05cb 5F6E6275 		.ascii	"_nbuf\000"
 3128      6600
 3129              	.LASF118:
 3130 05d1 5F756E75 		.ascii	"_unused\000"
 3130      73656400 
 3131              	.LASF38:
 3132 05d9 5F5F746D 		.ascii	"__tm_isdst\000"
 3132      5F697364 
 3132      737400
 3133              	.LASF100:
 3134 05e4 5F6C6F63 		.ascii	"_localtime_buf\000"
 3134      616C7469 
 3134      6D655F62 
 3134      756600
 3135              	.LASF58:
 3136 05f3 5F636C6F 		.ascii	"_close\000"
 3136      736500
 3137              	.LASF103:
 3138 05fa 5F723438 		.ascii	"_r48\000"
 3138      00
 3139              	.LASF105:
 3140 05ff 5F6D6274 		.ascii	"_mbtowc_state\000"
 3140      6F77635F 
 3140      73746174 
 3140      6500
 3141              	.LASF80:
 3142 060d 5F703573 		.ascii	"_p5s\000"
 3142      00
 3143              	.LASF129:
 3144 0612 6D61696E 		.ascii	"main\000"
 3144      00
 3145              	.LASF33:
 3146 0617 5F5F746D 		.ascii	"__tm_mday\000"
 3146      5F6D6461 
 3146      7900
 3147              		.ident	"GCC: (GNU Tools for Arm Embedded Processors 7-2018-q2-update) 7.3.1 20180622 (release) [AR
ARM GAS  C:\Users\Diogo\AppData\Local\Temp\ccnRS0Cj.s 			page 66


DEFINED SYMBOLS
                            *ABS*:00000000 hello.c
C:\Users\Diogo\AppData\Local\Temp\ccnRS0Cj.s:15     .text:00000000 $t
C:\Users\Diogo\AppData\Local\Temp\ccnRS0Cj.s:22     .text:00000000 __error__
C:\Users\Diogo\AppData\Local\Temp\ccnRS0Cj.s:48     .text:00000010 $d
C:\Users\Diogo\AppData\Local\Temp\ccnRS0Cj.s:52     .text:00000014 $t
C:\Users\Diogo\AppData\Local\Temp\ccnRS0Cj.s:59     .text:00000014 ConfigureUART
C:\Users\Diogo\AppData\Local\Temp\ccnRS0Cj.s:122    .text:00000064 $d
                            *COM*:00000004 g_ui32SysClock
C:\Users\Diogo\AppData\Local\Temp\ccnRS0Cj.s:129    .text:00000074 $t
C:\Users\Diogo\AppData\Local\Temp\ccnRS0Cj.s:136    .text:00000074 createThreadStack
C:\Users\Diogo\AppData\Local\Temp\ccnRS0Cj.s:163    .text:00000080 main
C:\Users\Diogo\AppData\Local\Temp\ccnRS0Cj.s:297    .text:00000140 $d
                            *COM*:00000100 Thread1Stack
                            *COM*:00000100 Thread2Stack
C:\Users\Diogo\AppData\Local\Temp\ccnRS0Cj.s:321    .rodata.str1.4:00000000 $d

UNDEFINED SYMBOLS
UARTprintf
UARTStdioConfig
malloc
PinoutSet
LEDWrite
SysCtlDelay
createThread
startSwitcher
BodyPing
BodyPong
