ARM GAS  C:\Users\Diogo\AppData\Local\Temp\ccRXdVYs.s 			page 1


   1              		.cpu cortex-m4
   2              		.eabi_attribute 20, 1
   3              		.eabi_attribute 21, 1
   4              		.eabi_attribute 23, 3
   5              		.eabi_attribute 24, 1
   6              		.eabi_attribute 25, 1
   7              		.eabi_attribute 26, 1
   8              		.eabi_attribute 30, 1
   9              		.eabi_attribute 34, 1
  10              		.eabi_attribute 18, 4
  11              		.file	"hello.c"
  12              		.text
  13              	.Ltext0:
  14              		.cfi_sections	.debug_frame
  15              		.align	1
  16              		.global	BodyPing
  17              		.syntax unified
  18              		.thumb
  19              		.thumb_func
  20              		.fpu softvfp
  21              		.type	BodyPing, %function
  22              	BodyPing:
  23              	.LFB3:
  24              		.file 1 "Threads/pingpong-tasks1.c"
   1:Threads/pingpong-tasks1.c **** // PingPongOS - PingPong Operating System
   2:Threads/pingpong-tasks1.c **** // Prof. Carlos A. Maziero, DINF UFPR
   3:Threads/pingpong-tasks1.c **** // Versão 1.1 -- Julho de 2016
   4:Threads/pingpong-tasks1.c **** 
   5:Threads/pingpong-tasks1.c **** // Teste da gestão básica de tarefas
   6:Threads/pingpong-tasks1.c **** 
   7:Threads/pingpong-tasks1.c **** #include <stdio.h>
   8:Threads/pingpong-tasks1.c **** #include <stdlib.h>
   9:Threads/pingpong-tasks1.c **** 
  10:Threads/pingpong-tasks1.c **** volatile int8_t pingpong = 0;
  11:Threads/pingpong-tasks1.c **** // corpo da thread Ping
  12:Threads/pingpong-tasks1.c **** void BodyPing(void)
  13:Threads/pingpong-tasks1.c **** {
  25              		.loc 1 13 0
  26              		.cfi_startproc
  27              		@ args = 0, pretend = 0, frame = 0
  28              		@ frame_needed = 0, uses_anonymous_args = 0
  29 0000 70B5     		push	{r4, r5, r6, lr}
  30              	.LCFI0:
  31              		.cfi_def_cfa_offset 16
  32              		.cfi_offset 4, -16
  33              		.cfi_offset 5, -12
  34              		.cfi_offset 6, -8
  35              		.cfi_offset 14, -4
  36              	.LVL0:
  14:Threads/pingpong-tasks1.c ****   uint32_t i = 0;
  15:Threads/pingpong-tasks1.c ****   while (1)
  16:Threads/pingpong-tasks1.c ****   {
  17:Threads/pingpong-tasks1.c ****     if (pingpong == 0){i++;}
  37              		.loc 1 17 0
  38 0002 094C     		ldr	r4, .L7
  18:Threads/pingpong-tasks1.c **** 
  19:Threads/pingpong-tasks1.c ****     if (i > (0xFFFFFF - 20))
ARM GAS  C:\Users\Diogo\AppData\Local\Temp\ccRXdVYs.s 			page 2


  39              		.loc 1 19 0
  40 0004 094D     		ldr	r5, .L7+4
  20:Threads/pingpong-tasks1.c ****     {
  21:Threads/pingpong-tasks1.c ****       UARTprintf("PING\n");
  41              		.loc 1 21 0
  42 0006 0A4E     		ldr	r6, .L7+8
  43 0008 0CE0     		b	.L4
  44              	.LVL1:
  45              	.L2:
  19:Threads/pingpong-tasks1.c ****     {
  46              		.loc 1 19 0
  47 000a AA42     		cmp	r2, r5
  48 000c 05D8     		bhi	.L6
  49              	.LVL2:
  50              	.L3:
  17:Threads/pingpong-tasks1.c **** 
  51              		.loc 1 17 0
  52 000e 2378     		ldrb	r3, [r4]	@ zero_extendqisi2
  53 0010 5BB2     		sxtb	r3, r3
  54 0012 002B     		cmp	r3, #0
  55 0014 F9D1     		bne	.L2
  17:Threads/pingpong-tasks1.c **** 
  56              		.loc 1 17 0 is_stmt 0 discriminator 1
  57 0016 0132     		adds	r2, r2, #1
  58              	.LVL3:
  59 0018 F7E7     		b	.L2
  60              	.L6:
  61              		.loc 1 21 0 is_stmt 1
  62 001a 3046     		mov	r0, r6
  63 001c FFF7FEFF 		bl	UARTprintf
  64              	.LVL4:
  22:Threads/pingpong-tasks1.c ****       i = 0;
  23:Threads/pingpong-tasks1.c ****       pingpong = 1;
  65              		.loc 1 23 0
  66 0020 0123     		movs	r3, #1
  67 0022 2370     		strb	r3, [r4]
  68              	.L4:
  13:Threads/pingpong-tasks1.c ****   uint32_t i = 0;
  69              		.loc 1 13 0
  70 0024 0022     		movs	r2, #0
  71 0026 F2E7     		b	.L3
  72              	.L8:
  73              		.align	2
  74              	.L7:
  75 0028 00000000 		.word	.LANCHOR0
  76 002c EBFFFF00 		.word	16777195
  77 0030 00000000 		.word	.LC0
  78              		.cfi_endproc
  79              	.LFE3:
  80              		.size	BodyPing, .-BodyPing
  81              		.align	1
  82              		.global	BodyPong
  83              		.syntax unified
  84              		.thumb
  85              		.thumb_func
  86              		.fpu softvfp
  87              		.type	BodyPong, %function
ARM GAS  C:\Users\Diogo\AppData\Local\Temp\ccRXdVYs.s 			page 3


  88              	BodyPong:
  89              	.LFB4:
  24:Threads/pingpong-tasks1.c ****     }
  25:Threads/pingpong-tasks1.c ****   }
  26:Threads/pingpong-tasks1.c **** }
  27:Threads/pingpong-tasks1.c **** 
  28:Threads/pingpong-tasks1.c **** // corpo da thread Pong
  29:Threads/pingpong-tasks1.c **** void BodyPong(void *arg)
  30:Threads/pingpong-tasks1.c **** {
  90              		.loc 1 30 0
  91              		.cfi_startproc
  92              		@ Volatile: function does not return.
  93              		@ args = 0, pretend = 0, frame = 0
  94              		@ frame_needed = 0, uses_anonymous_args = 0
  95              	.LVL5:
  96 0034 08B5     		push	{r3, lr}
  97              	.LCFI1:
  98              		.cfi_def_cfa_offset 8
  99              		.cfi_offset 3, -8
 100              		.cfi_offset 14, -4
  31:Threads/pingpong-tasks1.c ****   while (1)
  32:Threads/pingpong-tasks1.c ****   {
  33:Threads/pingpong-tasks1.c ****     if (pingpong == 1)
 101              		.loc 1 33 0
 102 0036 064C     		ldr	r4, .L13
  34:Threads/pingpong-tasks1.c ****     {
  35:Threads/pingpong-tasks1.c ****       pingpong = 0;
 103              		.loc 1 35 0
 104 0038 0026     		movs	r6, #0
  36:Threads/pingpong-tasks1.c ****       UARTprintf("PONG\n");
 105              		.loc 1 36 0
 106 003a 064D     		ldr	r5, .L13+4
 107              	.LVL6:
 108              	.L10:
  33:Threads/pingpong-tasks1.c ****     {
 109              		.loc 1 33 0
 110 003c 2378     		ldrb	r3, [r4]	@ zero_extendqisi2
 111 003e 5BB2     		sxtb	r3, r3
 112 0040 012B     		cmp	r3, #1
 113 0042 FBD1     		bne	.L10
  35:Threads/pingpong-tasks1.c ****       UARTprintf("PONG\n");
 114              		.loc 1 35 0
 115 0044 2670     		strb	r6, [r4]
 116              		.loc 1 36 0
 117 0046 2846     		mov	r0, r5
 118 0048 FFF7FEFF 		bl	UARTprintf
 119              	.LVL7:
 120 004c F6E7     		b	.L10
 121              	.L14:
 122 004e 00BF     		.align	2
 123              	.L13:
 124 0050 00000000 		.word	.LANCHOR0
 125 0054 08000000 		.word	.LC1
 126              		.cfi_endproc
 127              	.LFE4:
 128              		.size	BodyPong, .-BodyPong
 129              		.align	1
ARM GAS  C:\Users\Diogo\AppData\Local\Temp\ccRXdVYs.s 			page 4


 130              		.global	__error__
 131              		.syntax unified
 132              		.thumb
 133              		.thumb_func
 134              		.fpu softvfp
 135              		.type	__error__, %function
 136              	__error__:
 137              	.LFB5:
 138              		.file 2 "hello.c"
   1:hello.c       **** //*****************************************************************************
   2:hello.c       **** //
   3:hello.c       **** // hello.c - Simple hello world example.
   4:hello.c       **** //
   5:hello.c       **** // Copyright (c) 2013-2014 Texas Instruments Incorporated.  All rights reserved.
   6:hello.c       **** // Software License Agreement
   7:hello.c       **** //
   8:hello.c       **** // Texas Instruments (TI) is supplying this software for use solely and
   9:hello.c       **** // exclusively on TI's microcontroller products. The software is owned by
  10:hello.c       **** // TI and/or its suppliers, and is protected under applicable copyright
  11:hello.c       **** // laws. You may not combine this software with "viral" open-source
  12:hello.c       **** // software in order to form a larger program.
  13:hello.c       **** //
  14:hello.c       **** // THIS SOFTWARE IS PROVIDED "AS IS" AND WITH ALL FAULTS.
  15:hello.c       **** // NO WARRANTIES, WHETHER EXPRESS, IMPLIED OR STATUTORY, INCLUDING, BUT
  16:hello.c       **** // NOT LIMITED TO, IMPLIED WARRANTIES OF MERCHANTABILITY AND FITNESS FOR
  17:hello.c       **** // A PARTICULAR PURPOSE APPLY TO THIS SOFTWARE. TI SHALL NOT, UNDER ANY
  18:hello.c       **** // CIRCUMSTANCES, BE LIABLE FOR SPECIAL, INCIDENTAL, OR CONSEQUENTIAL
  19:hello.c       **** // DAMAGES, FOR ANY REASON WHATSOEVER.
  20:hello.c       **** //
  21:hello.c       **** // This is part of revision 2.1.0.12573 of the EK-TM4C1294XL Firmware Package.
  22:hello.c       **** //
  23:hello.c       **** //*****************************************************************************
  24:hello.c       **** 
  25:hello.c       **** #include <stdint.h>
  26:hello.c       **** #include <stdbool.h>
  27:hello.c       **** #include "hw_memmap.h"
  28:hello.c       **** #include "hw_types.h"
  29:hello.c       **** #include "driverlib/gpio.h"
  30:hello.c       **** #include "drivers/pinout.h"
  31:hello.c       **** #include "driverlib/pin_map.h"
  32:hello.c       **** #include "driverlib/rom.h"
  33:hello.c       **** #include "driverlib/rom_map.h"
  34:hello.c       **** #include "driverlib/sysctl.h"
  35:hello.c       **** #include "driverlib/uart.h"
  36:hello.c       **** #include "utils/uartstdio.h"
  37:hello.c       **** #include "Threads/thread.h"
  38:hello.c       **** #include "Threads/pingpong-tasks1.c"
  39:hello.c       **** #include "debug.h"
  40:hello.c       **** 
  41:hello.c       **** #include <stdlib.h>
  42:hello.c       **** 
  43:hello.c       **** int testafila(void);
  44:hello.c       **** #define STACK_SIZE 64
  45:hello.c       **** 
  46:hello.c       **** uint32_t * createThreadStack(void);
  47:hello.c       **** 
  48:hello.c       **** uint32_t Thread1Stack[STACK_SIZE];
ARM GAS  C:\Users\Diogo\AppData\Local\Temp\ccRXdVYs.s 			page 5


  49:hello.c       **** uint32_t Thread2Stack[STACK_SIZE];
  50:hello.c       **** //uint32_t Thread3Stack[STACK_SIZE];
  51:hello.c       **** 
  52:hello.c       **** 
  53:hello.c       **** 
  54:hello.c       **** //*****************************************************************************
  55:hello.c       **** //
  56:hello.c       **** //! \addtogroup example_list
  57:hello.c       **** //! <h1>Hello World (hello)</h1>
  58:hello.c       **** //!
  59:hello.c       **** //! A very simple ``hello world'' example.  It simply displays ``Hello World!''
  60:hello.c       **** //! on the UART and is a starting point for more complicated applications.
  61:hello.c       **** //!
  62:hello.c       **** //! Open a terminal with 115,200 8-N-1 to see the output for this demo.
  63:hello.c       **** //
  64:hello.c       **** //*****************************************************************************
  65:hello.c       **** 
  66:hello.c       **** //*****************************************************************************
  67:hello.c       **** //
  68:hello.c       **** // System clock rate in Hz.
  69:hello.c       **** //
  70:hello.c       **** //*****************************************************************************
  71:hello.c       **** uint32_t g_ui32SysClock;
  72:hello.c       **** 
  73:hello.c       **** //*****************************************************************************
  74:hello.c       **** //
  75:hello.c       **** // The error routine that is called if the driver library encounters an error.
  76:hello.c       **** //
  77:hello.c       **** //*****************************************************************************
  78:hello.c       **** #ifdef DEBUG
  79:hello.c       **** void
  80:hello.c       **** __error__(char *pcFilename, uint32_t ui32Line)
  81:hello.c       **** {
 139              		.loc 2 81 0
 140              		.cfi_startproc
 141              		@ args = 0, pretend = 0, frame = 0
 142              		@ frame_needed = 0, uses_anonymous_args = 0
 143              	.LVL8:
 144 0058 08B5     		push	{r3, lr}
 145              	.LCFI2:
 146              		.cfi_def_cfa_offset 8
 147              		.cfi_offset 3, -8
 148              		.cfi_offset 14, -4
  82:hello.c       **** 		 UARTprintf("%s %d\n" ,pcFilename, ui32Line);
 149              		.loc 2 82 0
 150 005a 0A46     		mov	r2, r1
 151 005c 0146     		mov	r1, r0
 152              	.LVL9:
 153 005e 0248     		ldr	r0, .L16
 154              	.LVL10:
 155 0060 FFF7FEFF 		bl	UARTprintf
 156              	.LVL11:
  83:hello.c       **** }
 157              		.loc 2 83 0
 158 0064 08BD     		pop	{r3, pc}
 159              	.L17:
 160 0066 00BF     		.align	2
ARM GAS  C:\Users\Diogo\AppData\Local\Temp\ccRXdVYs.s 			page 6


 161              	.L16:
 162 0068 10000000 		.word	.LC2
 163              		.cfi_endproc
 164              	.LFE5:
 165              		.size	__error__, .-__error__
 166              		.align	1
 167              		.global	ConfigureUART
 168              		.syntax unified
 169              		.thumb
 170              		.thumb_func
 171              		.fpu softvfp
 172              		.type	ConfigureUART, %function
 173              	ConfigureUART:
 174              	.LFB6:
  84:hello.c       **** #endif
  85:hello.c       **** 
  86:hello.c       **** //*****************************************************************************
  87:hello.c       **** //
  88:hello.c       **** // Configure the UART and its pins.  This must be called before UARTprintf().
  89:hello.c       **** //
  90:hello.c       **** //*****************************************************************************
  91:hello.c       **** void
  92:hello.c       **** ConfigureUART(void)
  93:hello.c       **** {
 175              		.loc 2 93 0
 176              		.cfi_startproc
 177              		@ args = 0, pretend = 0, frame = 0
 178              		@ frame_needed = 0, uses_anonymous_args = 0
 179 006c 10B5     		push	{r4, lr}
 180              	.LCFI3:
 181              		.cfi_def_cfa_offset 8
 182              		.cfi_offset 4, -8
 183              		.cfi_offset 14, -4
  94:hello.c       ****     //
  95:hello.c       ****     // Enable the GPIO Peripheral used by the UART.
  96:hello.c       ****     //
  97:hello.c       ****     ROM_SysCtlPeripheralEnable(SYSCTL_PERIPH_GPIOA);
 184              		.loc 2 97 0
 185 006e 134C     		ldr	r4, .L19
 186 0070 2368     		ldr	r3, [r4]
 187 0072 9B69     		ldr	r3, [r3, #24]
 188 0074 1248     		ldr	r0, .L19+4
 189 0076 9847     		blx	r3
 190              	.LVL12:
  98:hello.c       **** 
  99:hello.c       ****     //
 100:hello.c       ****     // Enable UART0
 101:hello.c       ****     //
 102:hello.c       ****     ROM_SysCtlPeripheralEnable(SYSCTL_PERIPH_UART0);
 191              		.loc 2 102 0
 192 0078 2368     		ldr	r3, [r4]
 193 007a 9B69     		ldr	r3, [r3, #24]
 194 007c 1148     		ldr	r0, .L19+8
 195 007e 9847     		blx	r3
 196              	.LVL13:
 103:hello.c       **** 
 104:hello.c       ****     //
ARM GAS  C:\Users\Diogo\AppData\Local\Temp\ccRXdVYs.s 			page 7


 105:hello.c       ****     // Configure GPIO Pins for UART mode.
 106:hello.c       ****     //
 107:hello.c       ****     ROM_GPIOPinConfigure(GPIO_PA0_U0RX);
 197              		.loc 2 107 0
 198 0080 243C     		subs	r4, r4, #36
 199 0082 2368     		ldr	r3, [r4]
 200 0084 9B6E     		ldr	r3, [r3, #104]
 201 0086 0120     		movs	r0, #1
 202 0088 9847     		blx	r3
 203              	.LVL14:
 108:hello.c       ****     ROM_GPIOPinConfigure(GPIO_PA1_U0TX);
 204              		.loc 2 108 0
 205 008a 2368     		ldr	r3, [r4]
 206 008c 9B6E     		ldr	r3, [r3, #104]
 207 008e 40F20140 		movw	r0, #1025
 208 0092 9847     		blx	r3
 209              	.LVL15:
 109:hello.c       ****     ROM_GPIOPinTypeUART(GPIO_PORTA_BASE, GPIO_PIN_0 | GPIO_PIN_1);
 210              		.loc 2 109 0
 211 0094 2368     		ldr	r3, [r4]
 212 0096 5B6D     		ldr	r3, [r3, #84]
 213 0098 0321     		movs	r1, #3
 214 009a 4FF04020 		mov	r0, #1073758208
 215 009e 9847     		blx	r3
 216              	.LVL16:
 110:hello.c       ****     ROM_GPIOPinTypeUART(GPIO_PORTA_BASE, GPIO_PIN_0 | GPIO_PIN_2);
 217              		.loc 2 110 0
 218 00a0 2368     		ldr	r3, [r4]
 219 00a2 5B6D     		ldr	r3, [r3, #84]
 220 00a4 0521     		movs	r1, #5
 221 00a6 4FF04020 		mov	r0, #1073758208
 222 00aa 9847     		blx	r3
 223              	.LVL17:
 111:hello.c       **** 
 112:hello.c       ****     //
 113:hello.c       ****     // Initialize the UART for console I/O.
 114:hello.c       ****     //
 115:hello.c       ****     UARTStdioConfig(0, 115200, g_ui32SysClock);
 224              		.loc 2 115 0
 225 00ac 064B     		ldr	r3, .L19+12
 226 00ae 1A68     		ldr	r2, [r3]
 227 00b0 4FF4E131 		mov	r1, #115200
 228 00b4 0020     		movs	r0, #0
 229 00b6 FFF7FEFF 		bl	UARTStdioConfig
 230              	.LVL18:
 116:hello.c       **** }
 231              		.loc 2 116 0
 232 00ba 10BD     		pop	{r4, pc}
 233              	.L20:
 234              		.align	2
 235              	.L19:
 236 00bc 44000001 		.word	16777284
 237 00c0 000800F0 		.word	-268433408
 238 00c4 001800F0 		.word	-268429312
 239 00c8 00000000 		.word	g_ui32SysClock
 240              		.cfi_endproc
 241              	.LFE6:
ARM GAS  C:\Users\Diogo\AppData\Local\Temp\ccRXdVYs.s 			page 8


 242              		.size	ConfigureUART, .-ConfigureUART
 243              		.align	1
 244              		.global	createThreadStack
 245              		.syntax unified
 246              		.thumb
 247              		.thumb_func
 248              		.fpu softvfp
 249              		.type	createThreadStack, %function
 250              	createThreadStack:
 251              	.LFB7:
 117:hello.c       **** 
 118:hello.c       **** /*
 119:hello.c       **** void Thread1(void)
 120:hello.c       **** {
 121:hello.c       ****     uint16_t counter;
 122:hello.c       ****     counter = 0;
 123:hello.c       ****     while(1)
 124:hello.c       ****     {
 125:hello.c       ****         if (counter%31 == 0)
 126:hello.c       ****         {
 127:hello.c       ****             UARTprintf("Thread 1 - Value: %i\n", counter);
 128:hello.c       ****         }
 129:hello.c       ****         counter++;
 130:hello.c       ****         if (counter>5000){counter =0;}
 131:hello.c       ****     }
 132:hello.c       **** }
 133:hello.c       **** void Thread2(void)
 134:hello.c       **** {
 135:hello.c       ****     uint16_t counter;
 136:hello.c       ****     counter = 0;
 137:hello.c       ****     while(1)
 138:hello.c       ****     {
 139:hello.c       ****         if (counter%57 == 0)
 140:hello.c       ****         {
 141:hello.c       ****             UARTprintf("Thread 2 - Value: %i\n", counter);
 142:hello.c       ****         }
 143:hello.c       ****         counter++;
 144:hello.c       ****         if (counter>5000){counter =0;}
 145:hello.c       ****     }
 146:hello.c       **** }
 147:hello.c       **** void Thread3(void)
 148:hello.c       **** {
 149:hello.c       ****     uint16_t counter;
 150:hello.c       ****     counter = 0;
 151:hello.c       ****     while(1)
 152:hello.c       ****     {
 153:hello.c       ****         if (counter%71 == 0)
 154:hello.c       ****         {
 155:hello.c       ****             UARTprintf("Thread 3 - Value: %i\n", counter);
 156:hello.c       ****         }
 157:hello.c       ****         counter++;
 158:hello.c       ****         if (counter>5000){counter =0;}
 159:hello.c       ****     }
 160:hello.c       **** }
 161:hello.c       **** */
 162:hello.c       **** uint32_t* createThreadStack(void)
 163:hello.c       **** {
ARM GAS  C:\Users\Diogo\AppData\Local\Temp\ccRXdVYs.s 			page 9


 252              		.loc 2 163 0
 253              		.cfi_startproc
 254              		@ args = 0, pretend = 0, frame = 0
 255              		@ frame_needed = 0, uses_anonymous_args = 0
 256 00cc 08B5     		push	{r3, lr}
 257              	.LCFI4:
 258              		.cfi_def_cfa_offset 8
 259              		.cfi_offset 3, -8
 260              		.cfi_offset 14, -4
 164:hello.c       **** 	uint32_t *aux;
 165:hello.c       **** 	aux = malloc(STACK_SIZE*sizeof(uint32_t));
 261              		.loc 2 165 0
 262 00ce 4FF48070 		mov	r0, #256
 263 00d2 FFF7FEFF 		bl	malloc
 264              	.LVL19:
 166:hello.c       **** 	return aux;
 167:hello.c       **** }
 265              		.loc 2 167 0
 266 00d6 08BD     		pop	{r3, pc}
 267              		.cfi_endproc
 268              	.LFE7:
 269              		.size	createThreadStack, .-createThreadStack
 270              		.align	1
 271              		.global	main
 272              		.syntax unified
 273              		.thumb
 274              		.thumb_func
 275              		.fpu softvfp
 276              		.type	main, %function
 277              	main:
 278              	.LFB8:
 168:hello.c       **** 
 169:hello.c       **** 
 170:hello.c       **** //*****************************************************************************
 171:hello.c       **** //
 172:hello.c       **** // Print "Hello World!" to the UART on the Intelligent UART Module.
 173:hello.c       **** //
 174:hello.c       **** //*****************************************************************************
 175:hello.c       **** int
 176:hello.c       **** main(void)
 177:hello.c       **** {
 279              		.loc 2 177 0
 280              		.cfi_startproc
 281              		@ args = 0, pretend = 0, frame = 0
 282              		@ frame_needed = 0, uses_anonymous_args = 0
 283 00d8 70B5     		push	{r4, r5, r6, lr}
 284              	.LCFI5:
 285              		.cfi_def_cfa_offset 16
 286              		.cfi_offset 4, -16
 287              		.cfi_offset 5, -12
 288              		.cfi_offset 6, -8
 289              		.cfi_offset 14, -4
 178:hello.c       ****     char teste[10];//
 179:hello.c       **** 		uint32_t cont;
 180:hello.c       ****     // Run from the PLL at 120 MHz.
 181:hello.c       ****     //
 182:hello.c       ****     g_ui32SysClock = MAP_SysCtlClockFreqSet((SYSCTL_XTAL_25MHZ |
ARM GAS  C:\Users\Diogo\AppData\Local\Temp\ccRXdVYs.s 			page 10


 290              		.loc 2 182 0
 291 00da 2F4B     		ldr	r3, .L23
 292 00dc 1B68     		ldr	r3, [r3]
 293 00de D3F8C030 		ldr	r3, [r3, #192]
 294 00e2 2E49     		ldr	r1, .L23+4
 295 00e4 2E48     		ldr	r0, .L23+8
 296 00e6 9847     		blx	r3
 297              	.LVL20:
 298 00e8 2E4C     		ldr	r4, .L23+12
 299 00ea 2060     		str	r0, [r4]
 183:hello.c       ****                 SYSCTL_OSC_MAIN | SYSCTL_USE_PLL |
 184:hello.c       ****                 SYSCTL_CFG_VCO_480), 120000000);
 185:hello.c       **** 
 186:hello.c       ****     //
 187:hello.c       ****     // Configure the device pins.
 188:hello.c       ****     //
 189:hello.c       ****     PinoutSet(false, false);
 300              		.loc 2 189 0
 301 00ec 0021     		movs	r1, #0
 302 00ee 0846     		mov	r0, r1
 303 00f0 FFF7FEFF 		bl	PinoutSet
 304              	.LVL21:
 190:hello.c       **** 
 191:hello.c       ****     //
 192:hello.c       ****     // Enable the GPIO pins for the LED D1 (PN1).
 193:hello.c       ****     //
 194:hello.c       ****     ROM_GPIOPinTypeGPIOOutput(GPIO_PORTN_BASE, GPIO_PIN_1);
 305              		.loc 2 194 0
 306 00f4 2C4D     		ldr	r5, .L23+16
 307 00f6 2D4E     		ldr	r6, .L23+20
 308 00f8 3368     		ldr	r3, [r6]
 309 00fa DB6B     		ldr	r3, [r3, #60]
 310 00fc 0221     		movs	r1, #2
 311 00fe 2846     		mov	r0, r5
 312 0100 9847     		blx	r3
 313              	.LVL22:
 195:hello.c       ****     ROM_GPIOPinTypeGPIOOutput(GPIO_PORTN_BASE, GPIO_PIN_2);
 314              		.loc 2 195 0
 315 0102 3368     		ldr	r3, [r6]
 316 0104 DB6B     		ldr	r3, [r3, #60]
 317 0106 0421     		movs	r1, #4
 318 0108 2846     		mov	r0, r5
 319 010a 9847     		blx	r3
 320              	.LVL23:
 196:hello.c       **** 
 197:hello.c       ****     //
 198:hello.c       ****     // Initialize the UART.
 199:hello.c       ****     //
 200:hello.c       ****     ConfigureUART();
 321              		.loc 2 200 0
 322 010c FFF7FEFF 		bl	ConfigureUART
 323              	.LVL24:
 201:hello.c       **** 
 202:hello.c       ****     //
 203:hello.c       ****     // Hello!
 204:hello.c       ****     //
 205:hello.c       **** 		    UARTprintf("\n\n\n\n\n\n\n\n\n\n\n");
ARM GAS  C:\Users\Diogo\AppData\Local\Temp\ccRXdVYs.s 			page 11


 324              		.loc 2 205 0
 325 0110 274D     		ldr	r5, .L23+24
 326 0112 2846     		mov	r0, r5
 327 0114 FFF7FEFF 		bl	UARTprintf
 328              	.LVL25:
 206:hello.c       **** 				    UARTprintf("\n\n\n\n\n\n\n\n\n\n\n");
 329              		.loc 2 206 0
 330 0118 2846     		mov	r0, r5
 331 011a FFF7FEFF 		bl	UARTprintf
 332              	.LVL26:
 207:hello.c       **** 						    UARTprintf("\n\n\n\n\n\n\n\n\n\n\n");
 333              		.loc 2 207 0
 334 011e 2846     		mov	r0, r5
 335 0120 FFF7FEFF 		bl	UARTprintf
 336              	.LVL27:
 208:hello.c       ****     UARTprintf("Hello, world  TIVA CCCC !\n");
 337              		.loc 2 208 0
 338 0124 2348     		ldr	r0, .L23+28
 339 0126 FFF7FEFF 		bl	UARTprintf
 340              	.LVL28:
 209:hello.c       ****     //UARTgets(char *pcBuf, uint32_t ui32Len)teste = getchar();//
 210:hello.c       ****    // UARTgets(teste,  cont);//teste = getchar();//
 211:hello.c       **** 
 212:hello.c       **** 		//ASSERT(teste[0] == '0');
 213:hello.c       **** 
 214:hello.c       **** 		//testafila();
 215:hello.c       **** // UARTprintf("%s %d\n" ,__FILE__, __LINE__);
 216:hello.c       **** 	 // We are finished.  Hang around flashing D1.
 217:hello.c       ****     //
 218:hello.c       **** 		//exit(0);
 219:hello.c       **** 		UARTprintf("Ligando o LED\n");
 341              		.loc 2 219 0
 342 012a 2348     		ldr	r0, .L23+32
 343 012c FFF7FEFF 		bl	UARTprintf
 344              	.LVL29:
 220:hello.c       **** 		//
 221:hello.c       **** 		// Turn on D1.
 222:hello.c       **** 		//
 223:hello.c       **** 		LEDWrite(CLP_D1, 1);
 345              		.loc 2 223 0
 346 0130 0121     		movs	r1, #1
 347 0132 0846     		mov	r0, r1
 348 0134 FFF7FEFF 		bl	LEDWrite
 349              	.LVL30:
 224:hello.c       **** 		LEDWrite(CLP_D2, 0);
 350              		.loc 2 224 0
 351 0138 0021     		movs	r1, #0
 352 013a 0220     		movs	r0, #2
 353 013c FFF7FEFF 		bl	LEDWrite
 354              	.LVL31:
 225:hello.c       **** 
 226:hello.c       **** 		//
 227:hello.c       **** 		// Delay for a bit.
 228:hello.c       **** 		//
 229:hello.c       **** 		SysCtlDelay(g_ui32SysClock / 10 / 3);
 355              		.loc 2 229 0
 356 0140 2068     		ldr	r0, [r4]
ARM GAS  C:\Users\Diogo\AppData\Local\Temp\ccRXdVYs.s 			page 12


 357 0142 1E4D     		ldr	r5, .L23+36
 358 0144 A5FB0030 		umull	r3, r0, r5, r0
 359 0148 0009     		lsrs	r0, r0, #4
 360 014a FFF7FEFF 		bl	SysCtlDelay
 361              	.LVL32:
 230:hello.c       **** 
 231:hello.c       **** 		//
 232:hello.c       **** 		UARTprintf("Desligando o LED\n");
 362              		.loc 2 232 0
 363 014e 1C48     		ldr	r0, .L23+40
 364 0150 FFF7FEFF 		bl	UARTprintf
 365              	.LVL33:
 233:hello.c       **** 		//
 234:hello.c       **** 		LEDWrite(CLP_D1, 0);
 366              		.loc 2 234 0
 367 0154 0021     		movs	r1, #0
 368 0156 0120     		movs	r0, #1
 369 0158 FFF7FEFF 		bl	LEDWrite
 370              	.LVL34:
 235:hello.c       **** 		LEDWrite(CLP_D2, 1);
 371              		.loc 2 235 0
 372 015c 0121     		movs	r1, #1
 373 015e 0220     		movs	r0, #2
 374 0160 FFF7FEFF 		bl	LEDWrite
 375              	.LVL35:
 236:hello.c       **** 		//
 237:hello.c       **** 		// Delay for a bit.
 238:hello.c       **** 		//
 239:hello.c       **** 		SysCtlDelay(g_ui32SysClock / 10 / 3);
 376              		.loc 2 239 0
 377 0164 2068     		ldr	r0, [r4]
 378 0166 A5FB0030 		umull	r3, r0, r5, r0
 379 016a 0009     		lsrs	r0, r0, #4
 380 016c FFF7FEFF 		bl	SysCtlDelay
 381              	.LVL36:
 240:hello.c       **** 		UARTprintf("Criando Tarefa 1\n");
 382              		.loc 2 240 0
 383 0170 1448     		ldr	r0, .L23+44
 384 0172 FFF7FEFF 		bl	UARTprintf
 385              	.LVL37:
 241:hello.c       ****         createThread(BodyPing,Thread1Stack,STACK_SIZE);
 386              		.loc 2 241 0
 387 0176 4022     		movs	r2, #64
 388 0178 1349     		ldr	r1, .L23+48
 389 017a 1448     		ldr	r0, .L23+52
 390 017c FFF7FEFF 		bl	createThread
 391              	.LVL38:
 242:hello.c       **** 		UARTprintf("Criando Tarefa 2\n");
 392              		.loc 2 242 0
 393 0180 1348     		ldr	r0, .L23+56
 394 0182 FFF7FEFF 		bl	UARTprintf
 395              	.LVL39:
 243:hello.c       ****         createThread(BodyPong,Thread2Stack,STACK_SIZE);
 396              		.loc 2 243 0
 397 0186 4022     		movs	r2, #64
 398 0188 1249     		ldr	r1, .L23+60
 399 018a 1348     		ldr	r0, .L23+64
ARM GAS  C:\Users\Diogo\AppData\Local\Temp\ccRXdVYs.s 			page 13


 400 018c FFF7FEFF 		bl	createThread
 401              	.LVL40:
 244:hello.c       ****         startSwitcher(); // start the thread switching (this does not return)
 402              		.loc 2 244 0
 403 0190 FFF7FEFF 		bl	startSwitcher
 404              	.LVL41:
 245:hello.c       **** }
 405              		.loc 2 245 0
 406 0194 0020     		movs	r0, #0
 407 0196 70BD     		pop	{r4, r5, r6, pc}
 408              	.L24:
 409              		.align	2
 410              	.L23:
 411 0198 44000001 		.word	16777284
 412 019c 000E2707 		.word	120000000
 413 01a0 800600F1 		.word	-251656576
 414 01a4 00000000 		.word	g_ui32SysClock
 415 01a8 00400640 		.word	1074151424
 416 01ac 20000001 		.word	16777248
 417 01b0 18000000 		.word	.LC3
 418 01b4 24000000 		.word	.LC4
 419 01b8 40000000 		.word	.LC5
 420 01bc 89888888 		.word	-2004318071
 421 01c0 50000000 		.word	.LC6
 422 01c4 64000000 		.word	.LC7
 423 01c8 00000000 		.word	Thread1Stack
 424 01cc 00000000 		.word	BodyPing
 425 01d0 78000000 		.word	.LC8
 426 01d4 00000000 		.word	Thread2Stack
 427 01d8 00000000 		.word	BodyPong
 428              		.cfi_endproc
 429              	.LFE8:
 430              		.size	main, .-main
 431              		.comm	g_ui32SysClock,4,4
 432              		.comm	Thread2Stack,256,4
 433              		.comm	Thread1Stack,256,4
 434              		.global	pingpong
 435              		.bss
 436              		.set	.LANCHOR0,. + 0
 437              		.type	pingpong, %object
 438              		.size	pingpong, 1
 439              	pingpong:
 440 0000 00       		.space	1
 441              		.section	.rodata.str1.4,"aMS",%progbits,1
 442              		.align	2
 443              	.LC0:
 444 0000 50494E47 		.ascii	"PING\012\000"
 444      0A00
 445 0006 0000     		.space	2
 446              	.LC1:
 447 0008 504F4E47 		.ascii	"PONG\012\000"
 447      0A00
 448 000e 0000     		.space	2
 449              	.LC2:
 450 0010 25732025 		.ascii	"%s %d\012\000"
 450      640A00
 451 0017 00       		.space	1
ARM GAS  C:\Users\Diogo\AppData\Local\Temp\ccRXdVYs.s 			page 14


 452              	.LC3:
 453 0018 0A0A0A0A 		.ascii	"\012\012\012\012\012\012\012\012\012\012\012\000"
 453      0A0A0A0A 
 453      0A0A0A00 
 454              	.LC4:
 455 0024 48656C6C 		.ascii	"Hello, world  TIVA CCCC !\012\000"
 455      6F2C2077 
 455      6F726C64 
 455      20205449 
 455      56412043 
 456 003f 00       		.space	1
 457              	.LC5:
 458 0040 4C696761 		.ascii	"Ligando o LED\012\000"
 458      6E646F20 
 458      6F204C45 
 458      440A00
 459 004f 00       		.space	1
 460              	.LC6:
 461 0050 4465736C 		.ascii	"Desligando o LED\012\000"
 461      6967616E 
 461      646F206F 
 461      204C4544 
 461      0A00
 462 0062 0000     		.space	2
 463              	.LC7:
 464 0064 43726961 		.ascii	"Criando Tarefa 1\012\000"
 464      6E646F20 
 464      54617265 
 464      66612031 
 464      0A00
 465 0076 0000     		.space	2
 466              	.LC8:
 467 0078 43726961 		.ascii	"Criando Tarefa 2\012\000"
 467      6E646F20 
 467      54617265 
 467      66612032 
 467      0A00
 468              		.text
 469              	.Letext0:
 470              		.file 3 "c:\\program files (x86)\\gnu tools arm embedded\\7 2018-q2-update\\arm-none-eabi\\include
 471              		.file 4 "c:\\program files (x86)\\gnu tools arm embedded\\7 2018-q2-update\\arm-none-eabi\\include
 472              		.file 5 "c:\\program files (x86)\\gnu tools arm embedded\\7 2018-q2-update\\arm-none-eabi\\include
 473              		.file 6 "c:\\program files (x86)\\gnu tools arm embedded\\7 2018-q2-update\\arm-none-eabi\\include
 474              		.file 7 "c:\\program files (x86)\\gnu tools arm embedded\\7 2018-q2-update\\lib\\gcc\\arm-none-eab
 475              		.file 8 "c:\\program files (x86)\\gnu tools arm embedded\\7 2018-q2-update\\arm-none-eabi\\include
 476              		.file 9 "c:\\program files (x86)\\gnu tools arm embedded\\7 2018-q2-update\\arm-none-eabi\\include
 477              		.file 10 "drivers/pinout.h"
 478              		.file 11 "./inc/utils/uartstdio.h"
 479              		.file 12 "./inc/driverlib/sysctl.h"
 480              		.file 13 "Threads/thread.h"
 481              		.section	.debug_info,"",%progbits
 482              	.Ldebug_info0:
 483 0000 4C0E0000 		.4byte	0xe4c
 484 0004 0200     		.2byte	0x2
 485 0006 00000000 		.4byte	.Ldebug_abbrev0
 486 000a 04       		.byte	0x4
 487 000b 01       		.uleb128 0x1
ARM GAS  C:\Users\Diogo\AppData\Local\Temp\ccRXdVYs.s 			page 15


 488 000c DE020000 		.4byte	.LASF148
 489 0010 0C       		.byte	0xc
 490 0011 0E020000 		.4byte	.LASF149
 491 0015 63050000 		.4byte	.LASF150
 492 0019 00000000 		.4byte	.Ltext0
 493 001d DC010000 		.4byte	.Letext0
 494 0021 00000000 		.4byte	.Ldebug_line0
 495 0025 02       		.uleb128 0x2
 496 0026 87000000 		.4byte	.LASF5
 497 002a 03       		.byte	0x3
 498 002b 29       		.byte	0x29
 499 002c 30000000 		.4byte	0x30
 500 0030 03       		.uleb128 0x3
 501 0031 01       		.byte	0x1
 502 0032 06       		.byte	0x6
 503 0033 D5000000 		.4byte	.LASF0
 504 0037 03       		.uleb128 0x3
 505 0038 01       		.byte	0x1
 506 0039 08       		.byte	0x8
 507 003a D9030000 		.4byte	.LASF1
 508 003e 03       		.uleb128 0x3
 509 003f 02       		.byte	0x2
 510 0040 05       		.byte	0x5
 511 0041 F5030000 		.4byte	.LASF2
 512 0045 03       		.uleb128 0x3
 513 0046 02       		.byte	0x2
 514 0047 07       		.byte	0x7
 515 0048 6D020000 		.4byte	.LASF3
 516 004c 03       		.uleb128 0x3
 517 004d 04       		.byte	0x4
 518 004e 05       		.byte	0x5
 519 004f 1A010000 		.4byte	.LASF4
 520 0053 02       		.uleb128 0x2
 521 0054 C5010000 		.4byte	.LASF6
 522 0058 03       		.byte	0x3
 523 0059 4F       		.byte	0x4f
 524 005a 5E000000 		.4byte	0x5e
 525 005e 03       		.uleb128 0x3
 526 005f 04       		.byte	0x4
 527 0060 07       		.byte	0x7
 528 0061 3F020000 		.4byte	.LASF7
 529 0065 03       		.uleb128 0x3
 530 0066 08       		.byte	0x8
 531 0067 05       		.byte	0x5
 532 0068 C7000000 		.4byte	.LASF8
 533 006c 03       		.uleb128 0x3
 534 006d 08       		.byte	0x8
 535 006e 07       		.byte	0x7
 536 006f 5C000000 		.4byte	.LASF9
 537 0073 04       		.uleb128 0x4
 538 0074 04       		.byte	0x4
 539 0075 05       		.byte	0x5
 540 0076 696E7400 		.ascii	"int\000"
 541 007a 03       		.uleb128 0x3
 542 007b 04       		.byte	0x4
 543 007c 07       		.byte	0x7
 544 007d 1B020000 		.4byte	.LASF10
ARM GAS  C:\Users\Diogo\AppData\Local\Temp\ccRXdVYs.s 			page 16


 545 0081 02       		.uleb128 0x2
 546 0082 22050000 		.4byte	.LASF11
 547 0086 04       		.byte	0x4
 548 0087 14       		.byte	0x14
 549 0088 25000000 		.4byte	0x25
 550 008c 05       		.uleb128 0x5
 551 008d 81000000 		.4byte	0x81
 552 0091 02       		.uleb128 0x2
 553 0092 AA040000 		.4byte	.LASF12
 554 0096 04       		.byte	0x4
 555 0097 30       		.byte	0x30
 556 0098 53000000 		.4byte	0x53
 557 009c 06       		.uleb128 0x6
 558 009d 04       		.byte	0x4
 559 009e 03       		.uleb128 0x3
 560 009f 08       		.byte	0x8
 561 00a0 04       		.byte	0x4
 562 00a1 78030000 		.4byte	.LASF13
 563 00a5 02       		.uleb128 0x2
 564 00a6 B0020000 		.4byte	.LASF14
 565 00aa 05       		.byte	0x5
 566 00ab 22       		.byte	0x22
 567 00ac B0000000 		.4byte	0xb0
 568 00b0 07       		.uleb128 0x7
 569 00b1 04       		.byte	0x4
 570 00b2 B6000000 		.4byte	0xb6
 571 00b6 08       		.uleb128 0x8
 572 00b7 A3040000 		.4byte	.LASF121
 573 00bb 01       		.byte	0x1
 574 00bc 02       		.uleb128 0x2
 575 00bd BA030000 		.4byte	.LASF15
 576 00c1 06       		.byte	0x6
 577 00c2 2C       		.byte	0x2c
 578 00c3 4C000000 		.4byte	0x4c
 579 00c7 02       		.uleb128 0x2
 580 00c8 C5040000 		.4byte	.LASF16
 581 00cc 06       		.byte	0x6
 582 00cd 72       		.byte	0x72
 583 00ce 4C000000 		.4byte	0x4c
 584 00d2 09       		.uleb128 0x9
 585 00d3 B8020000 		.4byte	.LASF17
 586 00d7 07       		.byte	0x7
 587 00d8 6501     		.2byte	0x165
 588 00da 7A000000 		.4byte	0x7a
 589 00de 0A       		.uleb128 0xa
 590 00df 04       		.byte	0x4
 591 00e0 06       		.byte	0x6
 592 00e1 A6       		.byte	0xa6
 593 00e2 FD000000 		.4byte	0xfd
 594 00e6 0B       		.uleb128 0xb
 595 00e7 AA020000 		.4byte	.LASF18
 596 00eb 06       		.byte	0x6
 597 00ec A8       		.byte	0xa8
 598 00ed D2000000 		.4byte	0xd2
 599 00f1 0B       		.uleb128 0xb
 600 00f2 28020000 		.4byte	.LASF19
 601 00f6 06       		.byte	0x6
ARM GAS  C:\Users\Diogo\AppData\Local\Temp\ccRXdVYs.s 			page 17


 602 00f7 A9       		.byte	0xa9
 603 00f8 FD000000 		.4byte	0xfd
 604 00fc 00       		.byte	0
 605 00fd 0C       		.uleb128 0xc
 606 00fe 37000000 		.4byte	0x37
 607 0102 0D010000 		.4byte	0x10d
 608 0106 0D       		.uleb128 0xd
 609 0107 7A000000 		.4byte	0x7a
 610 010b 03       		.byte	0x3
 611 010c 00       		.byte	0
 612 010d 0E       		.uleb128 0xe
 613 010e 08       		.byte	0x8
 614 010f 06       		.byte	0x6
 615 0110 A3       		.byte	0xa3
 616 0111 32010000 		.4byte	0x132
 617 0115 0F       		.uleb128 0xf
 618 0116 9B040000 		.4byte	.LASF20
 619 011a 06       		.byte	0x6
 620 011b A5       		.byte	0xa5
 621 011c 73000000 		.4byte	0x73
 622 0120 02       		.byte	0x2
 623 0121 23       		.byte	0x23
 624 0122 00       		.uleb128 0
 625 0123 0F       		.uleb128 0xf
 626 0124 04050000 		.4byte	.LASF21
 627 0128 06       		.byte	0x6
 628 0129 AA       		.byte	0xaa
 629 012a DE000000 		.4byte	0xde
 630 012e 02       		.byte	0x2
 631 012f 23       		.byte	0x23
 632 0130 04       		.uleb128 0x4
 633 0131 00       		.byte	0
 634 0132 02       		.uleb128 0x2
 635 0133 1D040000 		.4byte	.LASF22
 636 0137 06       		.byte	0x6
 637 0138 AB       		.byte	0xab
 638 0139 0D010000 		.4byte	0x10d
 639 013d 02       		.uleb128 0x2
 640 013e D6010000 		.4byte	.LASF23
 641 0142 06       		.byte	0x6
 642 0143 AF       		.byte	0xaf
 643 0144 A5000000 		.4byte	0xa5
 644 0148 02       		.uleb128 0x2
 645 0149 1A050000 		.4byte	.LASF24
 646 014d 08       		.byte	0x8
 647 014e 16       		.byte	0x16
 648 014f 5E000000 		.4byte	0x5e
 649 0153 10       		.uleb128 0x10
 650 0154 E7010000 		.4byte	.LASF29
 651 0158 18       		.byte	0x18
 652 0159 08       		.byte	0x8
 653 015a 2F       		.byte	0x2f
 654 015b B2010000 		.4byte	0x1b2
 655 015f 0F       		.uleb128 0xf
 656 0160 F1040000 		.4byte	.LASF25
 657 0164 08       		.byte	0x8
 658 0165 31       		.byte	0x31
ARM GAS  C:\Users\Diogo\AppData\Local\Temp\ccRXdVYs.s 			page 18


 659 0166 B2010000 		.4byte	0x1b2
 660 016a 02       		.byte	0x2
 661 016b 23       		.byte	0x23
 662 016c 00       		.uleb128 0
 663 016d 11       		.uleb128 0x11
 664 016e 5F6B00   		.ascii	"_k\000"
 665 0171 08       		.byte	0x8
 666 0172 32       		.byte	0x32
 667 0173 73000000 		.4byte	0x73
 668 0177 02       		.byte	0x2
 669 0178 23       		.byte	0x23
 670 0179 04       		.uleb128 0x4
 671 017a 0F       		.uleb128 0xf
 672 017b 86040000 		.4byte	.LASF26
 673 017f 08       		.byte	0x8
 674 0180 32       		.byte	0x32
 675 0181 73000000 		.4byte	0x73
 676 0185 02       		.byte	0x2
 677 0186 23       		.byte	0x23
 678 0187 08       		.uleb128 0x8
 679 0188 0F       		.uleb128 0xf
 680 0189 D0010000 		.4byte	.LASF27
 681 018d 08       		.byte	0x8
 682 018e 32       		.byte	0x32
 683 018f 73000000 		.4byte	0x73
 684 0193 02       		.byte	0x2
 685 0194 23       		.byte	0x23
 686 0195 0C       		.uleb128 0xc
 687 0196 0F       		.uleb128 0xf
 688 0197 8D050000 		.4byte	.LASF28
 689 019b 08       		.byte	0x8
 690 019c 32       		.byte	0x32
 691 019d 73000000 		.4byte	0x73
 692 01a1 02       		.byte	0x2
 693 01a2 23       		.byte	0x23
 694 01a3 10       		.uleb128 0x10
 695 01a4 11       		.uleb128 0x11
 696 01a5 5F7800   		.ascii	"_x\000"
 697 01a8 08       		.byte	0x8
 698 01a9 33       		.byte	0x33
 699 01aa B8010000 		.4byte	0x1b8
 700 01ae 02       		.byte	0x2
 701 01af 23       		.byte	0x23
 702 01b0 14       		.uleb128 0x14
 703 01b1 00       		.byte	0
 704 01b2 07       		.uleb128 0x7
 705 01b3 04       		.byte	0x4
 706 01b4 53010000 		.4byte	0x153
 707 01b8 0C       		.uleb128 0xc
 708 01b9 48010000 		.4byte	0x148
 709 01bd C8010000 		.4byte	0x1c8
 710 01c1 0D       		.uleb128 0xd
 711 01c2 7A000000 		.4byte	0x7a
 712 01c6 00       		.byte	0
 713 01c7 00       		.byte	0
 714 01c8 10       		.uleb128 0x10
 715 01c9 16020000 		.4byte	.LASF30
ARM GAS  C:\Users\Diogo\AppData\Local\Temp\ccRXdVYs.s 			page 19


 716 01cd 24       		.byte	0x24
 717 01ce 08       		.byte	0x8
 718 01cf 37       		.byte	0x37
 719 01d0 53020000 		.4byte	0x253
 720 01d4 0F       		.uleb128 0xf
 721 01d5 B2000000 		.4byte	.LASF31
 722 01d9 08       		.byte	0x8
 723 01da 39       		.byte	0x39
 724 01db 73000000 		.4byte	0x73
 725 01df 02       		.byte	0x2
 726 01e0 23       		.byte	0x23
 727 01e1 00       		.uleb128 0
 728 01e2 0F       		.uleb128 0xf
 729 01e3 D9040000 		.4byte	.LASF32
 730 01e7 08       		.byte	0x8
 731 01e8 3A       		.byte	0x3a
 732 01e9 73000000 		.4byte	0x73
 733 01ed 02       		.byte	0x2
 734 01ee 23       		.byte	0x23
 735 01ef 04       		.uleb128 0x4
 736 01f0 0F       		.uleb128 0xf
 737 01f1 ED000000 		.4byte	.LASF33
 738 01f5 08       		.byte	0x8
 739 01f6 3B       		.byte	0x3b
 740 01f7 73000000 		.4byte	0x73
 741 01fb 02       		.byte	0x2
 742 01fc 23       		.byte	0x23
 743 01fd 08       		.uleb128 0x8
 744 01fe 0F       		.uleb128 0xf
 745 01ff 42060000 		.4byte	.LASF34
 746 0203 08       		.byte	0x8
 747 0204 3C       		.byte	0x3c
 748 0205 73000000 		.4byte	0x73
 749 0209 02       		.byte	0x2
 750 020a 23       		.byte	0x23
 751 020b 0C       		.uleb128 0xc
 752 020c 0F       		.uleb128 0xf
 753 020d 8B030000 		.4byte	.LASF35
 754 0211 08       		.byte	0x8
 755 0212 3D       		.byte	0x3d
 756 0213 73000000 		.4byte	0x73
 757 0217 02       		.byte	0x2
 758 0218 23       		.byte	0x23
 759 0219 10       		.uleb128 0x10
 760 021a 0F       		.uleb128 0xf
 761 021b D4020000 		.4byte	.LASF36
 762 021f 08       		.byte	0x8
 763 0220 3E       		.byte	0x3e
 764 0221 73000000 		.4byte	0x73
 765 0225 02       		.byte	0x2
 766 0226 23       		.byte	0x23
 767 0227 14       		.uleb128 0x14
 768 0228 0F       		.uleb128 0xf
 769 0229 92050000 		.4byte	.LASF37
 770 022d 08       		.byte	0x8
 771 022e 3F       		.byte	0x3f
 772 022f 73000000 		.4byte	0x73
ARM GAS  C:\Users\Diogo\AppData\Local\Temp\ccRXdVYs.s 			page 20


 773 0233 02       		.byte	0x2
 774 0234 23       		.byte	0x23
 775 0235 18       		.uleb128 0x18
 776 0236 0F       		.uleb128 0xf
 777 0237 FF030000 		.4byte	.LASF38
 778 023b 08       		.byte	0x8
 779 023c 40       		.byte	0x40
 780 023d 73000000 		.4byte	0x73
 781 0241 02       		.byte	0x2
 782 0242 23       		.byte	0x23
 783 0243 1C       		.uleb128 0x1c
 784 0244 0F       		.uleb128 0xf
 785 0245 FB050000 		.4byte	.LASF39
 786 0249 08       		.byte	0x8
 787 024a 41       		.byte	0x41
 788 024b 73000000 		.4byte	0x73
 789 024f 02       		.byte	0x2
 790 0250 23       		.byte	0x23
 791 0251 20       		.uleb128 0x20
 792 0252 00       		.byte	0
 793 0253 12       		.uleb128 0x12
 794 0254 FC000000 		.4byte	.LASF40
 795 0258 0801     		.2byte	0x108
 796 025a 08       		.byte	0x8
 797 025b 4A       		.byte	0x4a
 798 025c 9C020000 		.4byte	0x29c
 799 0260 0F       		.uleb128 0xf
 800 0261 A4010000 		.4byte	.LASF41
 801 0265 08       		.byte	0x8
 802 0266 4B       		.byte	0x4b
 803 0267 9C020000 		.4byte	0x29c
 804 026b 02       		.byte	0x2
 805 026c 23       		.byte	0x23
 806 026d 00       		.uleb128 0
 807 026e 0F       		.uleb128 0xf
 808 026f 00000000 		.4byte	.LASF42
 809 0273 08       		.byte	0x8
 810 0274 4C       		.byte	0x4c
 811 0275 9C020000 		.4byte	0x29c
 812 0279 03       		.byte	0x3
 813 027a 23       		.byte	0x23
 814 027b 8001     		.uleb128 0x80
 815 027d 0F       		.uleb128 0xf
 816 027e 0C050000 		.4byte	.LASF43
 817 0282 08       		.byte	0x8
 818 0283 4E       		.byte	0x4e
 819 0284 48010000 		.4byte	0x148
 820 0288 03       		.byte	0x3
 821 0289 23       		.byte	0x23
 822 028a 8002     		.uleb128 0x100
 823 028c 0F       		.uleb128 0xf
 824 028d 3C010000 		.4byte	.LASF44
 825 0291 08       		.byte	0x8
 826 0292 51       		.byte	0x51
 827 0293 48010000 		.4byte	0x148
 828 0297 03       		.byte	0x3
 829 0298 23       		.byte	0x23
ARM GAS  C:\Users\Diogo\AppData\Local\Temp\ccRXdVYs.s 			page 21


 830 0299 8402     		.uleb128 0x104
 831 029b 00       		.byte	0
 832 029c 0C       		.uleb128 0xc
 833 029d 9C000000 		.4byte	0x9c
 834 02a1 AC020000 		.4byte	0x2ac
 835 02a5 0D       		.uleb128 0xd
 836 02a6 7A000000 		.4byte	0x7a
 837 02aa 1F       		.byte	0x1f
 838 02ab 00       		.byte	0
 839 02ac 12       		.uleb128 0x12
 840 02ad 9D030000 		.4byte	.LASF45
 841 02b1 9001     		.2byte	0x190
 842 02b3 08       		.byte	0x8
 843 02b4 5D       		.byte	0x5d
 844 02b5 F3020000 		.4byte	0x2f3
 845 02b9 0F       		.uleb128 0xf
 846 02ba F1040000 		.4byte	.LASF25
 847 02be 08       		.byte	0x8
 848 02bf 5E       		.byte	0x5e
 849 02c0 F3020000 		.4byte	0x2f3
 850 02c4 02       		.byte	0x2
 851 02c5 23       		.byte	0x23
 852 02c6 00       		.uleb128 0
 853 02c7 0F       		.uleb128 0xf
 854 02c8 56040000 		.4byte	.LASF46
 855 02cc 08       		.byte	0x8
 856 02cd 5F       		.byte	0x5f
 857 02ce 73000000 		.4byte	0x73
 858 02d2 02       		.byte	0x2
 859 02d3 23       		.byte	0x23
 860 02d4 04       		.uleb128 0x4
 861 02d5 0F       		.uleb128 0xf
 862 02d6 C0010000 		.4byte	.LASF47
 863 02da 08       		.byte	0x8
 864 02db 61       		.byte	0x61
 865 02dc F9020000 		.4byte	0x2f9
 866 02e0 02       		.byte	0x2
 867 02e1 23       		.byte	0x23
 868 02e2 08       		.uleb128 0x8
 869 02e3 0F       		.uleb128 0xf
 870 02e4 FC000000 		.4byte	.LASF40
 871 02e8 08       		.byte	0x8
 872 02e9 62       		.byte	0x62
 873 02ea 53020000 		.4byte	0x253
 874 02ee 03       		.byte	0x3
 875 02ef 23       		.byte	0x23
 876 02f0 8801     		.uleb128 0x88
 877 02f2 00       		.byte	0
 878 02f3 07       		.uleb128 0x7
 879 02f4 04       		.byte	0x4
 880 02f5 AC020000 		.4byte	0x2ac
 881 02f9 0C       		.uleb128 0xc
 882 02fa 09030000 		.4byte	0x309
 883 02fe 09030000 		.4byte	0x309
 884 0302 0D       		.uleb128 0xd
 885 0303 7A000000 		.4byte	0x7a
 886 0307 1F       		.byte	0x1f
ARM GAS  C:\Users\Diogo\AppData\Local\Temp\ccRXdVYs.s 			page 22


 887 0308 00       		.byte	0
 888 0309 07       		.uleb128 0x7
 889 030a 04       		.byte	0x4
 890 030b 0F030000 		.4byte	0x30f
 891 030f 13       		.uleb128 0x13
 892 0310 01       		.byte	0x1
 893 0311 10       		.uleb128 0x10
 894 0312 09040000 		.4byte	.LASF48
 895 0316 08       		.byte	0x8
 896 0317 08       		.byte	0x8
 897 0318 75       		.byte	0x75
 898 0319 3A030000 		.4byte	0x33a
 899 031d 0F       		.uleb128 0xf
 900 031e E7000000 		.4byte	.LASF49
 901 0322 08       		.byte	0x8
 902 0323 76       		.byte	0x76
 903 0324 3A030000 		.4byte	0x33a
 904 0328 02       		.byte	0x2
 905 0329 23       		.byte	0x23
 906 032a 00       		.uleb128 0
 907 032b 0F       		.uleb128 0xf
 908 032c 13000000 		.4byte	.LASF50
 909 0330 08       		.byte	0x8
 910 0331 77       		.byte	0x77
 911 0332 73000000 		.4byte	0x73
 912 0336 02       		.byte	0x2
 913 0337 23       		.byte	0x23
 914 0338 04       		.uleb128 0x4
 915 0339 00       		.byte	0
 916 033a 07       		.uleb128 0x7
 917 033b 04       		.byte	0x4
 918 033c 37000000 		.4byte	0x37
 919 0340 10       		.uleb128 0x10
 920 0341 28040000 		.4byte	.LASF51
 921 0345 68       		.byte	0x68
 922 0346 08       		.byte	0x8
 923 0347 B5       		.byte	0xb5
 924 0348 9A040000 		.4byte	0x49a
 925 034c 11       		.uleb128 0x11
 926 034d 5F7000   		.ascii	"_p\000"
 927 0350 08       		.byte	0x8
 928 0351 B6       		.byte	0xb6
 929 0352 3A030000 		.4byte	0x33a
 930 0356 02       		.byte	0x2
 931 0357 23       		.byte	0x23
 932 0358 00       		.uleb128 0
 933 0359 11       		.uleb128 0x11
 934 035a 5F7200   		.ascii	"_r\000"
 935 035d 08       		.byte	0x8
 936 035e B7       		.byte	0xb7
 937 035f 73000000 		.4byte	0x73
 938 0363 02       		.byte	0x2
 939 0364 23       		.byte	0x23
 940 0365 04       		.uleb128 0x4
 941 0366 11       		.uleb128 0x11
 942 0367 5F7700   		.ascii	"_w\000"
 943 036a 08       		.byte	0x8
ARM GAS  C:\Users\Diogo\AppData\Local\Temp\ccRXdVYs.s 			page 23


 944 036b B8       		.byte	0xb8
 945 036c 73000000 		.4byte	0x73
 946 0370 02       		.byte	0x2
 947 0371 23       		.byte	0x23
 948 0372 08       		.uleb128 0x8
 949 0373 0F       		.uleb128 0xf
 950 0374 35010000 		.4byte	.LASF52
 951 0378 08       		.byte	0x8
 952 0379 B9       		.byte	0xb9
 953 037a 3E000000 		.4byte	0x3e
 954 037e 02       		.byte	0x2
 955 037f 23       		.byte	0x23
 956 0380 0C       		.uleb128 0xc
 957 0381 0F       		.uleb128 0xf
 958 0382 51020000 		.4byte	.LASF53
 959 0386 08       		.byte	0x8
 960 0387 BA       		.byte	0xba
 961 0388 3E000000 		.4byte	0x3e
 962 038c 02       		.byte	0x2
 963 038d 23       		.byte	0x23
 964 038e 0E       		.uleb128 0xe
 965 038f 11       		.uleb128 0x11
 966 0390 5F626600 		.ascii	"_bf\000"
 967 0394 08       		.byte	0x8
 968 0395 BB       		.byte	0xbb
 969 0396 11030000 		.4byte	0x311
 970 039a 02       		.byte	0x2
 971 039b 23       		.byte	0x23
 972 039c 10       		.uleb128 0x10
 973 039d 0F       		.uleb128 0xf
 974 039e 73000000 		.4byte	.LASF54
 975 03a2 08       		.byte	0x8
 976 03a3 BC       		.byte	0xbc
 977 03a4 73000000 		.4byte	0x73
 978 03a8 02       		.byte	0x2
 979 03a9 23       		.byte	0x23
 980 03aa 18       		.uleb128 0x18
 981 03ab 0F       		.uleb128 0xf
 982 03ac 0A010000 		.4byte	.LASF55
 983 03b0 08       		.byte	0x8
 984 03b1 C3       		.byte	0xc3
 985 03b2 9C000000 		.4byte	0x9c
 986 03b6 02       		.byte	0x2
 987 03b7 23       		.byte	0x23
 988 03b8 1C       		.uleb128 0x1c
 989 03b9 0F       		.uleb128 0xf
 990 03ba FE010000 		.4byte	.LASF56
 991 03be 08       		.byte	0x8
 992 03bf C5       		.byte	0xc5
 993 03c0 34060000 		.4byte	0x634
 994 03c4 02       		.byte	0x2
 995 03c5 23       		.byte	0x23
 996 03c6 20       		.uleb128 0x20
 997 03c7 0F       		.uleb128 0xf
 998 03c8 CD020000 		.4byte	.LASF57
 999 03cc 08       		.byte	0x8
 1000 03cd C7       		.byte	0xc7
ARM GAS  C:\Users\Diogo\AppData\Local\Temp\ccRXdVYs.s 			page 24


 1001 03ce 5F060000 		.4byte	0x65f
 1002 03d2 02       		.byte	0x2
 1003 03d3 23       		.byte	0x23
 1004 03d4 24       		.uleb128 0x24
 1005 03d5 0F       		.uleb128 0xf
 1006 03d6 B3040000 		.4byte	.LASF58
 1007 03da 08       		.byte	0x8
 1008 03db CA       		.byte	0xca
 1009 03dc 84060000 		.4byte	0x684
 1010 03e0 02       		.byte	0x2
 1011 03e1 23       		.byte	0x23
 1012 03e2 28       		.uleb128 0x28
 1013 03e3 0F       		.uleb128 0xf
 1014 03e4 15060000 		.4byte	.LASF59
 1015 03e8 08       		.byte	0x8
 1016 03e9 CB       		.byte	0xcb
 1017 03ea 9F060000 		.4byte	0x69f
 1018 03ee 02       		.byte	0x2
 1019 03ef 23       		.byte	0x23
 1020 03f0 2C       		.uleb128 0x2c
 1021 03f1 11       		.uleb128 0x11
 1022 03f2 5F756200 		.ascii	"_ub\000"
 1023 03f6 08       		.byte	0x8
 1024 03f7 CE       		.byte	0xce
 1025 03f8 11030000 		.4byte	0x311
 1026 03fc 02       		.byte	0x2
 1027 03fd 23       		.byte	0x23
 1028 03fe 30       		.uleb128 0x30
 1029 03ff 11       		.uleb128 0x11
 1030 0400 5F757000 		.ascii	"_up\000"
 1031 0404 08       		.byte	0x8
 1032 0405 CF       		.byte	0xcf
 1033 0406 3A030000 		.4byte	0x33a
 1034 040a 02       		.byte	0x2
 1035 040b 23       		.byte	0x23
 1036 040c 38       		.uleb128 0x38
 1037 040d 11       		.uleb128 0x11
 1038 040e 5F757200 		.ascii	"_ur\000"
 1039 0412 08       		.byte	0x8
 1040 0413 D0       		.byte	0xd0
 1041 0414 73000000 		.4byte	0x73
 1042 0418 02       		.byte	0x2
 1043 0419 23       		.byte	0x23
 1044 041a 3C       		.uleb128 0x3c
 1045 041b 0F       		.uleb128 0xf
 1046 041c E1000000 		.4byte	.LASF60
 1047 0420 08       		.byte	0x8
 1048 0421 D3       		.byte	0xd3
 1049 0422 A5060000 		.4byte	0x6a5
 1050 0426 02       		.byte	0x2
 1051 0427 23       		.byte	0x23
 1052 0428 40       		.uleb128 0x40
 1053 0429 0F       		.uleb128 0xf
 1054 042a ED050000 		.4byte	.LASF61
 1055 042e 08       		.byte	0x8
 1056 042f D4       		.byte	0xd4
 1057 0430 B5060000 		.4byte	0x6b5
ARM GAS  C:\Users\Diogo\AppData\Local\Temp\ccRXdVYs.s 			page 25


 1058 0434 02       		.byte	0x2
 1059 0435 23       		.byte	0x23
 1060 0436 43       		.uleb128 0x43
 1061 0437 11       		.uleb128 0x11
 1062 0438 5F6C6200 		.ascii	"_lb\000"
 1063 043c 08       		.byte	0x8
 1064 043d D7       		.byte	0xd7
 1065 043e 11030000 		.4byte	0x311
 1066 0442 02       		.byte	0x2
 1067 0443 23       		.byte	0x23
 1068 0444 44       		.uleb128 0x44
 1069 0445 0F       		.uleb128 0xf
 1070 0446 5F010000 		.4byte	.LASF62
 1071 044a 08       		.byte	0x8
 1072 044b DA       		.byte	0xda
 1073 044c 73000000 		.4byte	0x73
 1074 0450 02       		.byte	0x2
 1075 0451 23       		.byte	0x23
 1076 0452 4C       		.uleb128 0x4c
 1077 0453 0F       		.uleb128 0xf
 1078 0454 70010000 		.4byte	.LASF63
 1079 0458 08       		.byte	0x8
 1080 0459 DB       		.byte	0xdb
 1081 045a BC000000 		.4byte	0xbc
 1082 045e 02       		.byte	0x2
 1083 045f 23       		.byte	0x23
 1084 0460 50       		.uleb128 0x50
 1085 0461 0F       		.uleb128 0xf
 1086 0462 36000000 		.4byte	.LASF64
 1087 0466 08       		.byte	0x8
 1088 0467 DE       		.byte	0xde
 1089 0468 B9040000 		.4byte	0x4b9
 1090 046c 02       		.byte	0x2
 1091 046d 23       		.byte	0x23
 1092 046e 54       		.uleb128 0x54
 1093 046f 0F       		.uleb128 0xf
 1094 0470 BF020000 		.4byte	.LASF65
 1095 0474 08       		.byte	0x8
 1096 0475 E2       		.byte	0xe2
 1097 0476 3D010000 		.4byte	0x13d
 1098 047a 02       		.byte	0x2
 1099 047b 23       		.byte	0x23
 1100 047c 58       		.uleb128 0x58
 1101 047d 0F       		.uleb128 0xf
 1102 047e 30040000 		.4byte	.LASF66
 1103 0482 08       		.byte	0x8
 1104 0483 E4       		.byte	0xe4
 1105 0484 32010000 		.4byte	0x132
 1106 0488 02       		.byte	0x2
 1107 0489 23       		.byte	0x23
 1108 048a 5C       		.uleb128 0x5c
 1109 048b 0F       		.uleb128 0xf
 1110 048c C5020000 		.4byte	.LASF67
 1111 0490 08       		.byte	0x8
 1112 0491 E5       		.byte	0xe5
 1113 0492 73000000 		.4byte	0x73
 1114 0496 02       		.byte	0x2
ARM GAS  C:\Users\Diogo\AppData\Local\Temp\ccRXdVYs.s 			page 26


 1115 0497 23       		.byte	0x23
 1116 0498 64       		.uleb128 0x64
 1117 0499 00       		.byte	0
 1118 049a 14       		.uleb128 0x14
 1119 049b 01       		.byte	0x1
 1120 049c 73000000 		.4byte	0x73
 1121 04a0 B9040000 		.4byte	0x4b9
 1122 04a4 15       		.uleb128 0x15
 1123 04a5 B9040000 		.4byte	0x4b9
 1124 04a9 15       		.uleb128 0x15
 1125 04aa 9C000000 		.4byte	0x9c
 1126 04ae 15       		.uleb128 0x15
 1127 04af 22060000 		.4byte	0x622
 1128 04b3 15       		.uleb128 0x15
 1129 04b4 73000000 		.4byte	0x73
 1130 04b8 00       		.byte	0
 1131 04b9 07       		.uleb128 0x7
 1132 04ba 04       		.byte	0x4
 1133 04bb C4040000 		.4byte	0x4c4
 1134 04bf 16       		.uleb128 0x16
 1135 04c0 B9040000 		.4byte	0x4b9
 1136 04c4 17       		.uleb128 0x17
 1137 04c5 8E040000 		.4byte	.LASF68
 1138 04c9 2804     		.2byte	0x428
 1139 04cb 08       		.byte	0x8
 1140 04cc 6002     		.2byte	0x260
 1141 04ce 22060000 		.4byte	0x622
 1142 04d2 18       		.uleb128 0x18
 1143 04d3 CD040000 		.4byte	.LASF69
 1144 04d7 08       		.byte	0x8
 1145 04d8 6202     		.2byte	0x262
 1146 04da 73000000 		.4byte	0x73
 1147 04de 02       		.byte	0x2
 1148 04df 23       		.byte	0x23
 1149 04e0 00       		.uleb128 0
 1150 04e1 18       		.uleb128 0x18
 1151 04e2 44010000 		.4byte	.LASF70
 1152 04e6 08       		.byte	0x8
 1153 04e7 6702     		.2byte	0x267
 1154 04e9 12070000 		.4byte	0x712
 1155 04ed 02       		.byte	0x2
 1156 04ee 23       		.byte	0x23
 1157 04ef 04       		.uleb128 0x4
 1158 04f0 18       		.uleb128 0x18
 1159 04f1 2F020000 		.4byte	.LASF71
 1160 04f5 08       		.byte	0x8
 1161 04f6 6702     		.2byte	0x267
 1162 04f8 12070000 		.4byte	0x712
 1163 04fc 02       		.byte	0x2
 1164 04fd 23       		.byte	0x23
 1165 04fe 08       		.uleb128 0x8
 1166 04ff 18       		.uleb128 0x18
 1167 0500 DF010000 		.4byte	.LASF72
 1168 0504 08       		.byte	0x8
 1169 0505 6702     		.2byte	0x267
 1170 0507 12070000 		.4byte	0x712
 1171 050b 02       		.byte	0x2
ARM GAS  C:\Users\Diogo\AppData\Local\Temp\ccRXdVYs.s 			page 27


 1172 050c 23       		.byte	0x23
 1173 050d 0C       		.uleb128 0xc
 1174 050e 18       		.uleb128 0x18
 1175 050f 51040000 		.4byte	.LASF73
 1176 0513 08       		.byte	0x8
 1177 0514 6902     		.2byte	0x269
 1178 0516 73000000 		.4byte	0x73
 1179 051a 02       		.byte	0x2
 1180 051b 23       		.byte	0x23
 1181 051c 10       		.uleb128 0x10
 1182 051d 18       		.uleb128 0x18
 1183 051e 21000000 		.4byte	.LASF74
 1184 0522 08       		.byte	0x8
 1185 0523 6A02     		.2byte	0x26a
 1186 0525 2D090000 		.4byte	0x92d
 1187 0529 02       		.byte	0x2
 1188 052a 23       		.byte	0x23
 1189 052b 14       		.uleb128 0x14
 1190 052c 18       		.uleb128 0x18
 1191 052d 6D040000 		.4byte	.LASF75
 1192 0531 08       		.byte	0x8
 1193 0532 6D02     		.2byte	0x26d
 1194 0534 73000000 		.4byte	0x73
 1195 0538 02       		.byte	0x2
 1196 0539 23       		.byte	0x23
 1197 053a 30       		.uleb128 0x30
 1198 053b 18       		.uleb128 0x18
 1199 053c 5B040000 		.4byte	.LASF76
 1200 0540 08       		.byte	0x8
 1201 0541 6E02     		.2byte	0x26e
 1202 0543 43090000 		.4byte	0x943
 1203 0547 02       		.byte	0x2
 1204 0548 23       		.byte	0x23
 1205 0549 34       		.uleb128 0x34
 1206 054a 18       		.uleb128 0x18
 1207 054b AF030000 		.4byte	.LASF77
 1208 054f 08       		.byte	0x8
 1209 0550 7002     		.2byte	0x270
 1210 0552 73000000 		.4byte	0x73
 1211 0556 02       		.byte	0x2
 1212 0557 23       		.byte	0x23
 1213 0558 38       		.uleb128 0x38
 1214 0559 18       		.uleb128 0x18
 1215 055a 63040000 		.4byte	.LASF78
 1216 055e 08       		.byte	0x8
 1217 055f 7202     		.2byte	0x272
 1218 0561 55090000 		.4byte	0x955
 1219 0565 02       		.byte	0x2
 1220 0566 23       		.byte	0x23
 1221 0567 3C       		.uleb128 0x3c
 1222 0568 18       		.uleb128 0x18
 1223 0569 A2020000 		.4byte	.LASF79
 1224 056d 08       		.byte	0x8
 1225 056e 7502     		.2byte	0x275
 1226 0570 B2010000 		.4byte	0x1b2
 1227 0574 02       		.byte	0x2
 1228 0575 23       		.byte	0x23
ARM GAS  C:\Users\Diogo\AppData\Local\Temp\ccRXdVYs.s 			page 28


 1229 0576 40       		.uleb128 0x40
 1230 0577 18       		.uleb128 0x18
 1231 0578 04020000 		.4byte	.LASF80
 1232 057c 08       		.byte	0x8
 1233 057d 7602     		.2byte	0x276
 1234 057f 73000000 		.4byte	0x73
 1235 0583 02       		.byte	0x2
 1236 0584 23       		.byte	0x23
 1237 0585 44       		.uleb128 0x44
 1238 0586 18       		.uleb128 0x18
 1239 0587 2F060000 		.4byte	.LASF81
 1240 058b 08       		.byte	0x8
 1241 058c 7702     		.2byte	0x277
 1242 058e B2010000 		.4byte	0x1b2
 1243 0592 02       		.byte	0x2
 1244 0593 23       		.byte	0x23
 1245 0594 48       		.uleb128 0x48
 1246 0595 18       		.uleb128 0x18
 1247 0596 C1030000 		.4byte	.LASF82
 1248 059a 08       		.byte	0x8
 1249 059b 7802     		.2byte	0x278
 1250 059d 5B090000 		.4byte	0x95b
 1251 05a1 02       		.byte	0x2
 1252 05a2 23       		.byte	0x23
 1253 05a3 4C       		.uleb128 0x4c
 1254 05a4 18       		.uleb128 0x18
 1255 05a5 37020000 		.4byte	.LASF83
 1256 05a9 08       		.byte	0x8
 1257 05aa 7B02     		.2byte	0x27b
 1258 05ac 73000000 		.4byte	0x73
 1259 05b0 02       		.byte	0x2
 1260 05b1 23       		.byte	0x23
 1261 05b2 50       		.uleb128 0x50
 1262 05b3 18       		.uleb128 0x18
 1263 05b4 68010000 		.4byte	.LASF84
 1264 05b8 08       		.byte	0x8
 1265 05b9 7C02     		.2byte	0x27c
 1266 05bb 22060000 		.4byte	0x622
 1267 05bf 02       		.byte	0x2
 1268 05c0 23       		.byte	0x23
 1269 05c1 54       		.uleb128 0x54
 1270 05c2 18       		.uleb128 0x18
 1271 05c3 E7030000 		.4byte	.LASF85
 1272 05c7 08       		.byte	0x8
 1273 05c8 9F02     		.2byte	0x29f
 1274 05ca 0B090000 		.4byte	0x90b
 1275 05ce 02       		.byte	0x2
 1276 05cf 23       		.byte	0x23
 1277 05d0 58       		.uleb128 0x58
 1278 05d1 18       		.uleb128 0x18
 1279 05d2 9D030000 		.4byte	.LASF45
 1280 05d6 08       		.byte	0x8
 1281 05d7 A302     		.2byte	0x2a3
 1282 05d9 F3020000 		.4byte	0x2f3
 1283 05dd 03       		.byte	0x3
 1284 05de 23       		.byte	0x23
 1285 05df C802     		.uleb128 0x148
ARM GAS  C:\Users\Diogo\AppData\Local\Temp\ccRXdVYs.s 			page 29


 1286 05e1 18       		.uleb128 0x18
 1287 05e2 80020000 		.4byte	.LASF86
 1288 05e6 08       		.byte	0x8
 1289 05e7 A402     		.2byte	0x2a4
 1290 05e9 AC020000 		.4byte	0x2ac
 1291 05ed 03       		.byte	0x3
 1292 05ee 23       		.byte	0x23
 1293 05ef CC02     		.uleb128 0x14c
 1294 05f1 18       		.uleb128 0x18
 1295 05f2 D5050000 		.4byte	.LASF87
 1296 05f6 08       		.byte	0x8
 1297 05f7 A802     		.2byte	0x2a8
 1298 05f9 6D090000 		.4byte	0x96d
 1299 05fd 03       		.byte	0x3
 1300 05fe 23       		.byte	0x23
 1301 05ff DC05     		.uleb128 0x2dc
 1302 0601 18       		.uleb128 0x18
 1303 0602 12010000 		.4byte	.LASF88
 1304 0606 08       		.byte	0x8
 1305 0607 AD02     		.2byte	0x2ad
 1306 0609 D1060000 		.4byte	0x6d1
 1307 060d 03       		.byte	0x3
 1308 060e 23       		.byte	0x23
 1309 060f E005     		.uleb128 0x2e0
 1310 0611 18       		.uleb128 0x18
 1311 0612 F7000000 		.4byte	.LASF89
 1312 0616 08       		.byte	0x8
 1313 0617 AF02     		.2byte	0x2af
 1314 0619 79090000 		.4byte	0x979
 1315 061d 03       		.byte	0x3
 1316 061e 23       		.byte	0x23
 1317 061f EC05     		.uleb128 0x2ec
 1318 0621 00       		.byte	0
 1319 0622 07       		.uleb128 0x7
 1320 0623 04       		.byte	0x4
 1321 0624 28060000 		.4byte	0x628
 1322 0628 03       		.uleb128 0x3
 1323 0629 01       		.byte	0x1
 1324 062a 08       		.byte	0x8
 1325 062b D4040000 		.4byte	.LASF90
 1326 062f 16       		.uleb128 0x16
 1327 0630 28060000 		.4byte	0x628
 1328 0634 07       		.uleb128 0x7
 1329 0635 04       		.byte	0x4
 1330 0636 9A040000 		.4byte	0x49a
 1331 063a 14       		.uleb128 0x14
 1332 063b 01       		.byte	0x1
 1333 063c 73000000 		.4byte	0x73
 1334 0640 59060000 		.4byte	0x659
 1335 0644 15       		.uleb128 0x15
 1336 0645 B9040000 		.4byte	0x4b9
 1337 0649 15       		.uleb128 0x15
 1338 064a 9C000000 		.4byte	0x9c
 1339 064e 15       		.uleb128 0x15
 1340 064f 59060000 		.4byte	0x659
 1341 0653 15       		.uleb128 0x15
 1342 0654 73000000 		.4byte	0x73
ARM GAS  C:\Users\Diogo\AppData\Local\Temp\ccRXdVYs.s 			page 30


 1343 0658 00       		.byte	0
 1344 0659 07       		.uleb128 0x7
 1345 065a 04       		.byte	0x4
 1346 065b 2F060000 		.4byte	0x62f
 1347 065f 07       		.uleb128 0x7
 1348 0660 04       		.byte	0x4
 1349 0661 3A060000 		.4byte	0x63a
 1350 0665 14       		.uleb128 0x14
 1351 0666 01       		.byte	0x1
 1352 0667 C7000000 		.4byte	0xc7
 1353 066b 84060000 		.4byte	0x684
 1354 066f 15       		.uleb128 0x15
 1355 0670 B9040000 		.4byte	0x4b9
 1356 0674 15       		.uleb128 0x15
 1357 0675 9C000000 		.4byte	0x9c
 1358 0679 15       		.uleb128 0x15
 1359 067a C7000000 		.4byte	0xc7
 1360 067e 15       		.uleb128 0x15
 1361 067f 73000000 		.4byte	0x73
 1362 0683 00       		.byte	0
 1363 0684 07       		.uleb128 0x7
 1364 0685 04       		.byte	0x4
 1365 0686 65060000 		.4byte	0x665
 1366 068a 14       		.uleb128 0x14
 1367 068b 01       		.byte	0x1
 1368 068c 73000000 		.4byte	0x73
 1369 0690 9F060000 		.4byte	0x69f
 1370 0694 15       		.uleb128 0x15
 1371 0695 B9040000 		.4byte	0x4b9
 1372 0699 15       		.uleb128 0x15
 1373 069a 9C000000 		.4byte	0x9c
 1374 069e 00       		.byte	0
 1375 069f 07       		.uleb128 0x7
 1376 06a0 04       		.byte	0x4
 1377 06a1 8A060000 		.4byte	0x68a
 1378 06a5 0C       		.uleb128 0xc
 1379 06a6 37000000 		.4byte	0x37
 1380 06aa B5060000 		.4byte	0x6b5
 1381 06ae 0D       		.uleb128 0xd
 1382 06af 7A000000 		.4byte	0x7a
 1383 06b3 02       		.byte	0x2
 1384 06b4 00       		.byte	0
 1385 06b5 0C       		.uleb128 0xc
 1386 06b6 37000000 		.4byte	0x37
 1387 06ba C5060000 		.4byte	0x6c5
 1388 06be 0D       		.uleb128 0xd
 1389 06bf 7A000000 		.4byte	0x7a
 1390 06c3 00       		.byte	0
 1391 06c4 00       		.byte	0
 1392 06c5 09       		.uleb128 0x9
 1393 06c6 16040000 		.4byte	.LASF91
 1394 06ca 08       		.byte	0x8
 1395 06cb 1F01     		.2byte	0x11f
 1396 06cd 40030000 		.4byte	0x340
 1397 06d1 19       		.uleb128 0x19
 1398 06d2 9C050000 		.4byte	.LASF92
 1399 06d6 0C       		.byte	0xc
ARM GAS  C:\Users\Diogo\AppData\Local\Temp\ccRXdVYs.s 			page 31


 1400 06d7 08       		.byte	0x8
 1401 06d8 2301     		.2byte	0x123
 1402 06da 0C070000 		.4byte	0x70c
 1403 06de 18       		.uleb128 0x18
 1404 06df F1040000 		.4byte	.LASF25
 1405 06e3 08       		.byte	0x8
 1406 06e4 2501     		.2byte	0x125
 1407 06e6 0C070000 		.4byte	0x70c
 1408 06ea 02       		.byte	0x2
 1409 06eb 23       		.byte	0x23
 1410 06ec 00       		.uleb128 0
 1411 06ed 18       		.uleb128 0x18
 1412 06ee 66020000 		.4byte	.LASF93
 1413 06f2 08       		.byte	0x8
 1414 06f3 2601     		.2byte	0x126
 1415 06f5 73000000 		.4byte	0x73
 1416 06f9 02       		.byte	0x2
 1417 06fa 23       		.byte	0x23
 1418 06fb 04       		.uleb128 0x4
 1419 06fc 18       		.uleb128 0x18
 1420 06fd 10040000 		.4byte	.LASF94
 1421 0701 08       		.byte	0x8
 1422 0702 2701     		.2byte	0x127
 1423 0704 12070000 		.4byte	0x712
 1424 0708 02       		.byte	0x2
 1425 0709 23       		.byte	0x23
 1426 070a 08       		.uleb128 0x8
 1427 070b 00       		.byte	0
 1428 070c 07       		.uleb128 0x7
 1429 070d 04       		.byte	0x4
 1430 070e D1060000 		.4byte	0x6d1
 1431 0712 07       		.uleb128 0x7
 1432 0713 04       		.byte	0x4
 1433 0714 C5060000 		.4byte	0x6c5
 1434 0718 19       		.uleb128 0x19
 1435 0719 19000000 		.4byte	.LASF95
 1436 071d 0E       		.byte	0xe
 1437 071e 08       		.byte	0x8
 1438 071f 3F01     		.2byte	0x13f
 1439 0721 53070000 		.4byte	0x753
 1440 0725 18       		.uleb128 0x18
 1441 0726 95040000 		.4byte	.LASF96
 1442 072a 08       		.byte	0x8
 1443 072b 4001     		.2byte	0x140
 1444 072d 53070000 		.4byte	0x753
 1445 0731 02       		.byte	0x2
 1446 0732 23       		.byte	0x23
 1447 0733 00       		.uleb128 0
 1448 0734 18       		.uleb128 0x18
 1449 0735 EB040000 		.4byte	.LASF97
 1450 0739 08       		.byte	0x8
 1451 073a 4101     		.2byte	0x141
 1452 073c 53070000 		.4byte	0x753
 1453 0740 02       		.byte	0x2
 1454 0741 23       		.byte	0x23
 1455 0742 06       		.uleb128 0x6
 1456 0743 18       		.uleb128 0x18
ARM GAS  C:\Users\Diogo\AppData\Local\Temp\ccRXdVYs.s 			page 32


 1457 0744 15050000 		.4byte	.LASF98
 1458 0748 08       		.byte	0x8
 1459 0749 4201     		.2byte	0x142
 1460 074b 45000000 		.4byte	0x45
 1461 074f 02       		.byte	0x2
 1462 0750 23       		.byte	0x23
 1463 0751 0C       		.uleb128 0xc
 1464 0752 00       		.byte	0
 1465 0753 0C       		.uleb128 0xc
 1466 0754 45000000 		.4byte	0x45
 1467 0758 63070000 		.4byte	0x763
 1468 075c 0D       		.uleb128 0xd
 1469 075d 7A000000 		.4byte	0x7a
 1470 0761 02       		.byte	0x2
 1471 0762 00       		.byte	0
 1472 0763 1A       		.uleb128 0x1a
 1473 0764 D0       		.byte	0xd0
 1474 0765 08       		.byte	0x8
 1475 0766 8002     		.2byte	0x280
 1476 0768 93080000 		.4byte	0x893
 1477 076c 18       		.uleb128 0x18
 1478 076d 56050000 		.4byte	.LASF99
 1479 0771 08       		.byte	0x8
 1480 0772 8202     		.2byte	0x282
 1481 0774 7A000000 		.4byte	0x7a
 1482 0778 02       		.byte	0x2
 1483 0779 23       		.byte	0x23
 1484 077a 00       		.uleb128 0
 1485 077b 18       		.uleb128 0x18
 1486 077c F7040000 		.4byte	.LASF100
 1487 0780 08       		.byte	0x8
 1488 0781 8302     		.2byte	0x283
 1489 0783 22060000 		.4byte	0x622
 1490 0787 02       		.byte	0x2
 1491 0788 23       		.byte	0x23
 1492 0789 04       		.uleb128 0x4
 1493 078a 18       		.uleb128 0x18
 1494 078b 95020000 		.4byte	.LASF101
 1495 078f 08       		.byte	0x8
 1496 0790 8402     		.2byte	0x284
 1497 0792 93080000 		.4byte	0x893
 1498 0796 02       		.byte	0x2
 1499 0797 23       		.byte	0x23
 1500 0798 08       		.uleb128 0x8
 1501 0799 18       		.uleb128 0x18
 1502 079a 06060000 		.4byte	.LASF102
 1503 079e 08       		.byte	0x8
 1504 079f 8502     		.2byte	0x285
 1505 07a1 C8010000 		.4byte	0x1c8
 1506 07a5 02       		.byte	0x2
 1507 07a6 23       		.byte	0x23
 1508 07a7 24       		.uleb128 0x24
 1509 07a8 18       		.uleb128 0x18
 1510 07a9 EF010000 		.4byte	.LASF103
 1511 07ad 08       		.byte	0x8
 1512 07ae 8602     		.2byte	0x286
 1513 07b0 73000000 		.4byte	0x73
ARM GAS  C:\Users\Diogo\AppData\Local\Temp\ccRXdVYs.s 			page 33


 1514 07b4 02       		.byte	0x2
 1515 07b5 23       		.byte	0x23
 1516 07b6 48       		.uleb128 0x48
 1517 07b7 18       		.uleb128 0x18
 1518 07b8 39040000 		.4byte	.LASF104
 1519 07bc 08       		.byte	0x8
 1520 07bd 8702     		.2byte	0x287
 1521 07bf 6C000000 		.4byte	0x6c
 1522 07c3 02       		.byte	0x2
 1523 07c4 23       		.byte	0x23
 1524 07c5 50       		.uleb128 0x50
 1525 07c6 18       		.uleb128 0x18
 1526 07c7 1C060000 		.4byte	.LASF105
 1527 07cb 08       		.byte	0x8
 1528 07cc 8802     		.2byte	0x288
 1529 07ce 18070000 		.4byte	0x718
 1530 07d2 02       		.byte	0x2
 1531 07d3 23       		.byte	0x23
 1532 07d4 58       		.uleb128 0x58
 1533 07d5 18       		.uleb128 0x18
 1534 07d6 44040000 		.4byte	.LASF106
 1535 07da 08       		.byte	0x8
 1536 07db 8902     		.2byte	0x289
 1537 07dd 32010000 		.4byte	0x132
 1538 07e1 02       		.byte	0x2
 1539 07e2 23       		.byte	0x23
 1540 07e3 68       		.uleb128 0x68
 1541 07e4 18       		.uleb128 0x18
 1542 07e5 21060000 		.4byte	.LASF107
 1543 07e9 08       		.byte	0x8
 1544 07ea 8A02     		.2byte	0x28a
 1545 07ec 32010000 		.4byte	0x132
 1546 07f0 02       		.byte	0x2
 1547 07f1 23       		.byte	0x23
 1548 07f2 70       		.uleb128 0x70
 1549 07f3 18       		.uleb128 0x18
 1550 07f4 CB030000 		.4byte	.LASF108
 1551 07f8 08       		.byte	0x8
 1552 07f9 8B02     		.2byte	0x28b
 1553 07fb 32010000 		.4byte	0x132
 1554 07ff 02       		.byte	0x2
 1555 0800 23       		.byte	0x23
 1556 0801 78       		.uleb128 0x78
 1557 0802 18       		.uleb128 0x18
 1558 0803 C6050000 		.4byte	.LASF109
 1559 0807 08       		.byte	0x8
 1560 0808 8C02     		.2byte	0x28c
 1561 080a A3080000 		.4byte	0x8a3
 1562 080e 03       		.byte	0x3
 1563 080f 23       		.byte	0x23
 1564 0810 8001     		.uleb128 0x80
 1565 0812 18       		.uleb128 0x18
 1566 0813 89020000 		.4byte	.LASF110
 1567 0817 08       		.byte	0x8
 1568 0818 8D02     		.2byte	0x28d
 1569 081a B3080000 		.4byte	0x8b3
 1570 081e 03       		.byte	0x3
ARM GAS  C:\Users\Diogo\AppData\Local\Temp\ccRXdVYs.s 			page 34


 1571 081f 23       		.byte	0x23
 1572 0820 8801     		.uleb128 0x88
 1573 0822 18       		.uleb128 0x18
 1574 0823 29050000 		.4byte	.LASF111
 1575 0827 08       		.byte	0x8
 1576 0828 8E02     		.2byte	0x28e
 1577 082a 73000000 		.4byte	0x73
 1578 082e 03       		.byte	0x3
 1579 082f 23       		.byte	0x23
 1580 0830 A001     		.uleb128 0xa0
 1581 0832 18       		.uleb128 0x18
 1582 0833 89010000 		.4byte	.LASF112
 1583 0837 08       		.byte	0x8
 1584 0838 8F02     		.2byte	0x28f
 1585 083a 32010000 		.4byte	0x132
 1586 083e 03       		.byte	0x3
 1587 083f 23       		.byte	0x23
 1588 0840 A401     		.uleb128 0xa4
 1589 0842 18       		.uleb128 0x18
 1590 0843 90000000 		.4byte	.LASF113
 1591 0847 08       		.byte	0x8
 1592 0848 9002     		.2byte	0x290
 1593 084a 32010000 		.4byte	0x132
 1594 084e 03       		.byte	0x3
 1595 084f 23       		.byte	0x23
 1596 0850 AC01     		.uleb128 0xac
 1597 0852 18       		.uleb128 0x18
 1598 0853 78010000 		.4byte	.LASF114
 1599 0857 08       		.byte	0x8
 1600 0858 9102     		.2byte	0x291
 1601 085a 32010000 		.4byte	0x132
 1602 085e 03       		.byte	0x3
 1603 085f 23       		.byte	0x23
 1604 0860 B401     		.uleb128 0xb4
 1605 0862 18       		.uleb128 0x18
 1606 0863 3C000000 		.4byte	.LASF115
 1607 0867 08       		.byte	0x8
 1608 0868 9202     		.2byte	0x292
 1609 086a 32010000 		.4byte	0x132
 1610 086e 03       		.byte	0x3
 1611 086f 23       		.byte	0x23
 1612 0870 BC01     		.uleb128 0xbc
 1613 0872 18       		.uleb128 0x18
 1614 0873 4B000000 		.4byte	.LASF116
 1615 0877 08       		.byte	0x8
 1616 0878 9302     		.2byte	0x293
 1617 087a 32010000 		.4byte	0x132
 1618 087e 03       		.byte	0x3
 1619 087f 23       		.byte	0x23
 1620 0880 C401     		.uleb128 0xc4
 1621 0882 18       		.uleb128 0x18
 1622 0883 EC030000 		.4byte	.LASF117
 1623 0887 08       		.byte	0x8
 1624 0888 9402     		.2byte	0x294
 1625 088a 73000000 		.4byte	0x73
 1626 088e 03       		.byte	0x3
 1627 088f 23       		.byte	0x23
ARM GAS  C:\Users\Diogo\AppData\Local\Temp\ccRXdVYs.s 			page 35


 1628 0890 CC01     		.uleb128 0xcc
 1629 0892 00       		.byte	0
 1630 0893 0C       		.uleb128 0xc
 1631 0894 28060000 		.4byte	0x628
 1632 0898 A3080000 		.4byte	0x8a3
 1633 089c 0D       		.uleb128 0xd
 1634 089d 7A000000 		.4byte	0x7a
 1635 08a1 19       		.byte	0x19
 1636 08a2 00       		.byte	0
 1637 08a3 0C       		.uleb128 0xc
 1638 08a4 28060000 		.4byte	0x628
 1639 08a8 B3080000 		.4byte	0x8b3
 1640 08ac 0D       		.uleb128 0xd
 1641 08ad 7A000000 		.4byte	0x7a
 1642 08b1 07       		.byte	0x7
 1643 08b2 00       		.byte	0
 1644 08b3 0C       		.uleb128 0xc
 1645 08b4 28060000 		.4byte	0x628
 1646 08b8 C3080000 		.4byte	0x8c3
 1647 08bc 0D       		.uleb128 0xd
 1648 08bd 7A000000 		.4byte	0x7a
 1649 08c1 17       		.byte	0x17
 1650 08c2 00       		.byte	0
 1651 08c3 1A       		.uleb128 0x1a
 1652 08c4 F0       		.byte	0xf0
 1653 08c5 08       		.byte	0x8
 1654 08c6 9902     		.2byte	0x299
 1655 08c8 EB080000 		.4byte	0x8eb
 1656 08cc 18       		.uleb128 0x18
 1657 08cd 84030000 		.4byte	.LASF118
 1658 08d1 08       		.byte	0x8
 1659 08d2 9C02     		.2byte	0x29c
 1660 08d4 EB080000 		.4byte	0x8eb
 1661 08d8 02       		.byte	0x2
 1662 08d9 23       		.byte	0x23
 1663 08da 00       		.uleb128 0
 1664 08db 18       		.uleb128 0x18
 1665 08dc BD050000 		.4byte	.LASF119
 1666 08e0 08       		.byte	0x8
 1667 08e1 9D02     		.2byte	0x29d
 1668 08e3 FB080000 		.4byte	0x8fb
 1669 08e7 02       		.byte	0x2
 1670 08e8 23       		.byte	0x23
 1671 08e9 78       		.uleb128 0x78
 1672 08ea 00       		.byte	0
 1673 08eb 0C       		.uleb128 0xc
 1674 08ec 3A030000 		.4byte	0x33a
 1675 08f0 FB080000 		.4byte	0x8fb
 1676 08f4 0D       		.uleb128 0xd
 1677 08f5 7A000000 		.4byte	0x7a
 1678 08f9 1D       		.byte	0x1d
 1679 08fa 00       		.byte	0
 1680 08fb 0C       		.uleb128 0xc
 1681 08fc 7A000000 		.4byte	0x7a
 1682 0900 0B090000 		.4byte	0x90b
 1683 0904 0D       		.uleb128 0xd
 1684 0905 7A000000 		.4byte	0x7a
ARM GAS  C:\Users\Diogo\AppData\Local\Temp\ccRXdVYs.s 			page 36


 1685 0909 1D       		.byte	0x1d
 1686 090a 00       		.byte	0
 1687 090b 1B       		.uleb128 0x1b
 1688 090c F0       		.byte	0xf0
 1689 090d 08       		.byte	0x8
 1690 090e 7E02     		.2byte	0x27e
 1691 0910 2D090000 		.4byte	0x92d
 1692 0914 1C       		.uleb128 0x1c
 1693 0915 8E040000 		.4byte	.LASF68
 1694 0919 08       		.byte	0x8
 1695 091a 9502     		.2byte	0x295
 1696 091c 63070000 		.4byte	0x763
 1697 0920 1C       		.uleb128 0x1c
 1698 0921 F3050000 		.4byte	.LASF120
 1699 0925 08       		.byte	0x8
 1700 0926 9E02     		.2byte	0x29e
 1701 0928 C3080000 		.4byte	0x8c3
 1702 092c 00       		.byte	0
 1703 092d 0C       		.uleb128 0xc
 1704 092e 28060000 		.4byte	0x628
 1705 0932 3D090000 		.4byte	0x93d
 1706 0936 0D       		.uleb128 0xd
 1707 0937 7A000000 		.4byte	0x7a
 1708 093b 18       		.byte	0x18
 1709 093c 00       		.byte	0
 1710 093d 08       		.uleb128 0x8
 1711 093e 7C000000 		.4byte	.LASF122
 1712 0942 01       		.byte	0x1
 1713 0943 07       		.uleb128 0x7
 1714 0944 04       		.byte	0x4
 1715 0945 3D090000 		.4byte	0x93d
 1716 0949 1D       		.uleb128 0x1d
 1717 094a 01       		.byte	0x1
 1718 094b 55090000 		.4byte	0x955
 1719 094f 15       		.uleb128 0x15
 1720 0950 B9040000 		.4byte	0x4b9
 1721 0954 00       		.byte	0
 1722 0955 07       		.uleb128 0x7
 1723 0956 04       		.byte	0x4
 1724 0957 49090000 		.4byte	0x949
 1725 095b 07       		.uleb128 0x7
 1726 095c 04       		.byte	0x4
 1727 095d B2010000 		.4byte	0x1b2
 1728 0961 1D       		.uleb128 0x1d
 1729 0962 01       		.byte	0x1
 1730 0963 6D090000 		.4byte	0x96d
 1731 0967 15       		.uleb128 0x15
 1732 0968 73000000 		.4byte	0x73
 1733 096c 00       		.byte	0
 1734 096d 07       		.uleb128 0x7
 1735 096e 04       		.byte	0x4
 1736 096f 73090000 		.4byte	0x973
 1737 0973 07       		.uleb128 0x7
 1738 0974 04       		.byte	0x4
 1739 0975 61090000 		.4byte	0x961
 1740 0979 0C       		.uleb128 0xc
 1741 097a C5060000 		.4byte	0x6c5
ARM GAS  C:\Users\Diogo\AppData\Local\Temp\ccRXdVYs.s 			page 37


 1742 097e 89090000 		.4byte	0x989
 1743 0982 0D       		.uleb128 0xd
 1744 0983 7A000000 		.4byte	0x7a
 1745 0987 02       		.byte	0x2
 1746 0988 00       		.byte	0
 1747 0989 1E       		.uleb128 0x1e
 1748 098a B9040000 		.4byte	.LASF123
 1749 098e 08       		.byte	0x8
 1750 098f 2E03     		.2byte	0x32e
 1751 0991 B9040000 		.4byte	0x4b9
 1752 0995 01       		.byte	0x1
 1753 0996 01       		.byte	0x1
 1754 0997 1E       		.uleb128 0x1e
 1755 0998 43050000 		.4byte	.LASF124
 1756 099c 08       		.byte	0x8
 1757 099d 2F03     		.2byte	0x32f
 1758 099f BF040000 		.4byte	0x4bf
 1759 09a3 01       		.byte	0x1
 1760 09a4 01       		.byte	0x1
 1761 09a5 1F       		.uleb128 0x1f
 1762 09a6 A5030000 		.4byte	.LASF125
 1763 09aa 09       		.byte	0x9
 1764 09ab 63       		.byte	0x63
 1765 09ac 22060000 		.4byte	0x622
 1766 09b0 01       		.byte	0x1
 1767 09b1 01       		.byte	0x1
 1768 09b2 20       		.uleb128 0x20
 1769 09b3 39060000 		.4byte	.LASF126
 1770 09b7 01       		.byte	0x1
 1771 09b8 0A       		.byte	0xa
 1772 09b9 8C000000 		.4byte	0x8c
 1773 09bd 01       		.byte	0x1
 1774 09be 05       		.byte	0x5
 1775 09bf 03       		.byte	0x3
 1776 09c0 00000000 		.4byte	pingpong
 1777 09c4 0C       		.uleb128 0xc
 1778 09c5 91000000 		.4byte	0x91
 1779 09c9 D4090000 		.4byte	0x9d4
 1780 09cd 0D       		.uleb128 0xd
 1781 09ce 7A000000 		.4byte	0x7a
 1782 09d2 3F       		.byte	0x3f
 1783 09d3 00       		.byte	0
 1784 09d4 20       		.uleb128 0x20
 1785 09d5 6B030000 		.4byte	.LASF127
 1786 09d9 02       		.byte	0x2
 1787 09da 30       		.byte	0x30
 1788 09db C4090000 		.4byte	0x9c4
 1789 09df 01       		.byte	0x1
 1790 09e0 05       		.byte	0x5
 1791 09e1 03       		.byte	0x3
 1792 09e2 00000000 		.4byte	Thread1Stack
 1793 09e6 20       		.uleb128 0x20
 1794 09e7 36050000 		.4byte	.LASF128
 1795 09eb 02       		.byte	0x2
 1796 09ec 31       		.byte	0x31
 1797 09ed C4090000 		.4byte	0x9c4
 1798 09f1 01       		.byte	0x1
ARM GAS  C:\Users\Diogo\AppData\Local\Temp\ccRXdVYs.s 			page 38


 1799 09f2 05       		.byte	0x5
 1800 09f3 03       		.byte	0x3
 1801 09f4 00000000 		.4byte	Thread2Stack
 1802 09f8 20       		.uleb128 0x20
 1803 09f9 57020000 		.4byte	.LASF129
 1804 09fd 02       		.byte	0x2
 1805 09fe 47       		.byte	0x47
 1806 09ff 91000000 		.4byte	0x91
 1807 0a03 01       		.byte	0x1
 1808 0a04 05       		.byte	0x5
 1809 0a05 03       		.byte	0x3
 1810 0a06 00000000 		.4byte	g_ui32SysClock
 1811 0a0a 21       		.uleb128 0x21
 1812 0a0b 01       		.byte	0x1
 1813 0a0c 34060000 		.4byte	.LASF132
 1814 0a10 02       		.byte	0x2
 1815 0a11 B0       		.byte	0xb0
 1816 0a12 01       		.byte	0x1
 1817 0a13 73000000 		.4byte	0x73
 1818 0a17 D8000000 		.4byte	.LFB8
 1819 0a1b DC010000 		.4byte	.LFE8
 1820 0a1f 00000000 		.4byte	.LLST9
 1821 0a23 01       		.byte	0x1
 1822 0a24 1D0C0000 		.4byte	0xc1d
 1823 0a28 22       		.uleb128 0x22
 1824 0a29 59010000 		.4byte	.LASF130
 1825 0a2d 02       		.byte	0x2
 1826 0a2e B2       		.byte	0xb2
 1827 0a2f 1D0C0000 		.4byte	0xc1d
 1828 0a33 22       		.uleb128 0x22
 1829 0a34 D0050000 		.4byte	.LASF131
 1830 0a38 02       		.byte	0x2
 1831 0a39 B3       		.byte	0xb3
 1832 0a3a 91000000 		.4byte	0x91
 1833 0a3e 23       		.uleb128 0x23
 1834 0a3f E8000000 		.4byte	.LVL20
 1835 0a43 5B0A0000 		.4byte	0xa5b
 1836 0a47 24       		.uleb128 0x24
 1837 0a48 01       		.byte	0x1
 1838 0a49 50       		.byte	0x50
 1839 0a4a 06       		.byte	0x6
 1840 0a4b 11       		.byte	0x11
 1841 0a4c 808D8088 		.sleb128 -251656576
 1841      7F
 1842 0a51 24       		.uleb128 0x24
 1843 0a52 01       		.byte	0x1
 1844 0a53 51       		.byte	0x51
 1845 0a54 05       		.byte	0x5
 1846 0a55 0C       		.byte	0xc
 1847 0a56 000E2707 		.4byte	0x7270e00
 1848 0a5a 00       		.byte	0
 1849 0a5b 25       		.uleb128 0x25
 1850 0a5c F4000000 		.4byte	.LVL21
 1851 0a60 E60D0000 		.4byte	0xde6
 1852 0a64 730A0000 		.4byte	0xa73
 1853 0a68 24       		.uleb128 0x24
 1854 0a69 01       		.byte	0x1
ARM GAS  C:\Users\Diogo\AppData\Local\Temp\ccRXdVYs.s 			page 39


 1855 0a6a 50       		.byte	0x50
 1856 0a6b 01       		.byte	0x1
 1857 0a6c 30       		.byte	0x30
 1858 0a6d 24       		.uleb128 0x24
 1859 0a6e 01       		.byte	0x1
 1860 0a6f 51       		.byte	0x51
 1861 0a70 01       		.byte	0x1
 1862 0a71 30       		.byte	0x30
 1863 0a72 00       		.byte	0
 1864 0a73 23       		.uleb128 0x23
 1865 0a74 02010000 		.4byte	.LVL22
 1866 0a78 880A0000 		.4byte	0xa88
 1867 0a7c 24       		.uleb128 0x24
 1868 0a7d 01       		.byte	0x1
 1869 0a7e 50       		.byte	0x50
 1870 0a7f 02       		.byte	0x2
 1871 0a80 75       		.byte	0x75
 1872 0a81 00       		.sleb128 0
 1873 0a82 24       		.uleb128 0x24
 1874 0a83 01       		.byte	0x1
 1875 0a84 51       		.byte	0x51
 1876 0a85 01       		.byte	0x1
 1877 0a86 32       		.byte	0x32
 1878 0a87 00       		.byte	0
 1879 0a88 23       		.uleb128 0x23
 1880 0a89 0C010000 		.4byte	.LVL23
 1881 0a8d 9D0A0000 		.4byte	0xa9d
 1882 0a91 24       		.uleb128 0x24
 1883 0a92 01       		.byte	0x1
 1884 0a93 50       		.byte	0x50
 1885 0a94 02       		.byte	0x2
 1886 0a95 75       		.byte	0x75
 1887 0a96 00       		.sleb128 0
 1888 0a97 24       		.uleb128 0x24
 1889 0a98 01       		.byte	0x1
 1890 0a99 51       		.byte	0x51
 1891 0a9a 01       		.byte	0x1
 1892 0a9b 34       		.byte	0x34
 1893 0a9c 00       		.byte	0
 1894 0a9d 26       		.uleb128 0x26
 1895 0a9e 10010000 		.4byte	.LVL24
 1896 0aa2 700C0000 		.4byte	0xc70
 1897 0aa6 25       		.uleb128 0x25
 1898 0aa7 18010000 		.4byte	.LVL25
 1899 0aab F30D0000 		.4byte	0xdf3
 1900 0aaf BA0A0000 		.4byte	0xaba
 1901 0ab3 24       		.uleb128 0x24
 1902 0ab4 01       		.byte	0x1
 1903 0ab5 50       		.byte	0x50
 1904 0ab6 02       		.byte	0x2
 1905 0ab7 75       		.byte	0x75
 1906 0ab8 00       		.sleb128 0
 1907 0ab9 00       		.byte	0
 1908 0aba 25       		.uleb128 0x25
 1909 0abb 1E010000 		.4byte	.LVL26
 1910 0abf F30D0000 		.4byte	0xdf3
 1911 0ac3 CE0A0000 		.4byte	0xace
ARM GAS  C:\Users\Diogo\AppData\Local\Temp\ccRXdVYs.s 			page 40


 1912 0ac7 24       		.uleb128 0x24
 1913 0ac8 01       		.byte	0x1
 1914 0ac9 50       		.byte	0x50
 1915 0aca 02       		.byte	0x2
 1916 0acb 75       		.byte	0x75
 1917 0acc 00       		.sleb128 0
 1918 0acd 00       		.byte	0
 1919 0ace 25       		.uleb128 0x25
 1920 0acf 24010000 		.4byte	.LVL27
 1921 0ad3 F30D0000 		.4byte	0xdf3
 1922 0ad7 E20A0000 		.4byte	0xae2
 1923 0adb 24       		.uleb128 0x24
 1924 0adc 01       		.byte	0x1
 1925 0add 50       		.byte	0x50
 1926 0ade 02       		.byte	0x2
 1927 0adf 75       		.byte	0x75
 1928 0ae0 00       		.sleb128 0
 1929 0ae1 00       		.byte	0
 1930 0ae2 25       		.uleb128 0x25
 1931 0ae3 2A010000 		.4byte	.LVL28
 1932 0ae7 F30D0000 		.4byte	0xdf3
 1933 0aeb F90A0000 		.4byte	0xaf9
 1934 0aef 24       		.uleb128 0x24
 1935 0af0 01       		.byte	0x1
 1936 0af1 50       		.byte	0x50
 1937 0af2 05       		.byte	0x5
 1938 0af3 03       		.byte	0x3
 1939 0af4 24000000 		.4byte	.LC4
 1940 0af8 00       		.byte	0
 1941 0af9 25       		.uleb128 0x25
 1942 0afa 30010000 		.4byte	.LVL29
 1943 0afe F30D0000 		.4byte	0xdf3
 1944 0b02 100B0000 		.4byte	0xb10
 1945 0b06 24       		.uleb128 0x24
 1946 0b07 01       		.byte	0x1
 1947 0b08 50       		.byte	0x50
 1948 0b09 05       		.byte	0x5
 1949 0b0a 03       		.byte	0x3
 1950 0b0b 40000000 		.4byte	.LC5
 1951 0b0f 00       		.byte	0
 1952 0b10 25       		.uleb128 0x25
 1953 0b11 38010000 		.4byte	.LVL30
 1954 0b15 000E0000 		.4byte	0xe00
 1955 0b19 280B0000 		.4byte	0xb28
 1956 0b1d 24       		.uleb128 0x24
 1957 0b1e 01       		.byte	0x1
 1958 0b1f 50       		.byte	0x50
 1959 0b20 01       		.byte	0x1
 1960 0b21 31       		.byte	0x31
 1961 0b22 24       		.uleb128 0x24
 1962 0b23 01       		.byte	0x1
 1963 0b24 51       		.byte	0x51
 1964 0b25 01       		.byte	0x1
 1965 0b26 31       		.byte	0x31
 1966 0b27 00       		.byte	0
 1967 0b28 25       		.uleb128 0x25
 1968 0b29 40010000 		.4byte	.LVL31
ARM GAS  C:\Users\Diogo\AppData\Local\Temp\ccRXdVYs.s 			page 41


 1969 0b2d 000E0000 		.4byte	0xe00
 1970 0b31 400B0000 		.4byte	0xb40
 1971 0b35 24       		.uleb128 0x24
 1972 0b36 01       		.byte	0x1
 1973 0b37 50       		.byte	0x50
 1974 0b38 01       		.byte	0x1
 1975 0b39 32       		.byte	0x32
 1976 0b3a 24       		.uleb128 0x24
 1977 0b3b 01       		.byte	0x1
 1978 0b3c 51       		.byte	0x51
 1979 0b3d 01       		.byte	0x1
 1980 0b3e 30       		.byte	0x30
 1981 0b3f 00       		.byte	0
 1982 0b40 26       		.uleb128 0x26
 1983 0b41 4E010000 		.4byte	.LVL32
 1984 0b45 0D0E0000 		.4byte	0xe0d
 1985 0b49 25       		.uleb128 0x25
 1986 0b4a 54010000 		.4byte	.LVL33
 1987 0b4e F30D0000 		.4byte	0xdf3
 1988 0b52 600B0000 		.4byte	0xb60
 1989 0b56 24       		.uleb128 0x24
 1990 0b57 01       		.byte	0x1
 1991 0b58 50       		.byte	0x50
 1992 0b59 05       		.byte	0x5
 1993 0b5a 03       		.byte	0x3
 1994 0b5b 50000000 		.4byte	.LC6
 1995 0b5f 00       		.byte	0
 1996 0b60 25       		.uleb128 0x25
 1997 0b61 5C010000 		.4byte	.LVL34
 1998 0b65 000E0000 		.4byte	0xe00
 1999 0b69 780B0000 		.4byte	0xb78
 2000 0b6d 24       		.uleb128 0x24
 2001 0b6e 01       		.byte	0x1
 2002 0b6f 50       		.byte	0x50
 2003 0b70 01       		.byte	0x1
 2004 0b71 31       		.byte	0x31
 2005 0b72 24       		.uleb128 0x24
 2006 0b73 01       		.byte	0x1
 2007 0b74 51       		.byte	0x51
 2008 0b75 01       		.byte	0x1
 2009 0b76 30       		.byte	0x30
 2010 0b77 00       		.byte	0
 2011 0b78 25       		.uleb128 0x25
 2012 0b79 64010000 		.4byte	.LVL35
 2013 0b7d 000E0000 		.4byte	0xe00
 2014 0b81 900B0000 		.4byte	0xb90
 2015 0b85 24       		.uleb128 0x24
 2016 0b86 01       		.byte	0x1
 2017 0b87 50       		.byte	0x50
 2018 0b88 01       		.byte	0x1
 2019 0b89 32       		.byte	0x32
 2020 0b8a 24       		.uleb128 0x24
 2021 0b8b 01       		.byte	0x1
 2022 0b8c 51       		.byte	0x51
 2023 0b8d 01       		.byte	0x1
 2024 0b8e 31       		.byte	0x31
 2025 0b8f 00       		.byte	0
ARM GAS  C:\Users\Diogo\AppData\Local\Temp\ccRXdVYs.s 			page 42


 2026 0b90 26       		.uleb128 0x26
 2027 0b91 70010000 		.4byte	.LVL36
 2028 0b95 0D0E0000 		.4byte	0xe0d
 2029 0b99 25       		.uleb128 0x25
 2030 0b9a 76010000 		.4byte	.LVL37
 2031 0b9e F30D0000 		.4byte	0xdf3
 2032 0ba2 B00B0000 		.4byte	0xbb0
 2033 0ba6 24       		.uleb128 0x24
 2034 0ba7 01       		.byte	0x1
 2035 0ba8 50       		.byte	0x50
 2036 0ba9 05       		.byte	0x5
 2037 0baa 03       		.byte	0x3
 2038 0bab 64000000 		.4byte	.LC7
 2039 0baf 00       		.byte	0
 2040 0bb0 25       		.uleb128 0x25
 2041 0bb1 80010000 		.4byte	.LVL38
 2042 0bb5 1B0E0000 		.4byte	0xe1b
 2043 0bb9 D60B0000 		.4byte	0xbd6
 2044 0bbd 24       		.uleb128 0x24
 2045 0bbe 01       		.byte	0x1
 2046 0bbf 50       		.byte	0x50
 2047 0bc0 05       		.byte	0x5
 2048 0bc1 03       		.byte	0x3
 2049 0bc2 00000000 		.4byte	BodyPing
 2050 0bc6 24       		.uleb128 0x24
 2051 0bc7 01       		.byte	0x1
 2052 0bc8 51       		.byte	0x51
 2053 0bc9 05       		.byte	0x5
 2054 0bca 03       		.byte	0x3
 2055 0bcb 00000000 		.4byte	Thread1Stack
 2056 0bcf 24       		.uleb128 0x24
 2057 0bd0 01       		.byte	0x1
 2058 0bd1 52       		.byte	0x52
 2059 0bd2 02       		.byte	0x2
 2060 0bd3 08       		.byte	0x8
 2061 0bd4 40       		.byte	0x40
 2062 0bd5 00       		.byte	0
 2063 0bd6 25       		.uleb128 0x25
 2064 0bd7 86010000 		.4byte	.LVL39
 2065 0bdb F30D0000 		.4byte	0xdf3
 2066 0bdf ED0B0000 		.4byte	0xbed
 2067 0be3 24       		.uleb128 0x24
 2068 0be4 01       		.byte	0x1
 2069 0be5 50       		.byte	0x50
 2070 0be6 05       		.byte	0x5
 2071 0be7 03       		.byte	0x3
 2072 0be8 78000000 		.4byte	.LC8
 2073 0bec 00       		.byte	0
 2074 0bed 25       		.uleb128 0x25
 2075 0bee 90010000 		.4byte	.LVL40
 2076 0bf2 1B0E0000 		.4byte	0xe1b
 2077 0bf6 130C0000 		.4byte	0xc13
 2078 0bfa 24       		.uleb128 0x24
 2079 0bfb 01       		.byte	0x1
 2080 0bfc 50       		.byte	0x50
 2081 0bfd 05       		.byte	0x5
 2082 0bfe 03       		.byte	0x3
ARM GAS  C:\Users\Diogo\AppData\Local\Temp\ccRXdVYs.s 			page 43


 2083 0bff 00000000 		.4byte	BodyPong
 2084 0c03 24       		.uleb128 0x24
 2085 0c04 01       		.byte	0x1
 2086 0c05 51       		.byte	0x51
 2087 0c06 05       		.byte	0x5
 2088 0c07 03       		.byte	0x3
 2089 0c08 00000000 		.4byte	Thread2Stack
 2090 0c0c 24       		.uleb128 0x24
 2091 0c0d 01       		.byte	0x1
 2092 0c0e 52       		.byte	0x52
 2093 0c0f 02       		.byte	0x2
 2094 0c10 08       		.byte	0x8
 2095 0c11 40       		.byte	0x40
 2096 0c12 00       		.byte	0
 2097 0c13 26       		.uleb128 0x26
 2098 0c14 94010000 		.4byte	.LVL41
 2099 0c18 280E0000 		.4byte	0xe28
 2100 0c1c 00       		.byte	0
 2101 0c1d 0C       		.uleb128 0xc
 2102 0c1e 28060000 		.4byte	0x628
 2103 0c22 2D0C0000 		.4byte	0xc2d
 2104 0c26 0D       		.uleb128 0xd
 2105 0c27 7A000000 		.4byte	0x7a
 2106 0c2b 09       		.byte	0x9
 2107 0c2c 00       		.byte	0
 2108 0c2d 21       		.uleb128 0x21
 2109 0c2e 01       		.byte	0x1
 2110 0c2f 23010000 		.4byte	.LASF133
 2111 0c33 02       		.byte	0x2
 2112 0c34 A2       		.byte	0xa2
 2113 0c35 01       		.byte	0x1
 2114 0c36 6A0C0000 		.4byte	0xc6a
 2115 0c3a CC000000 		.4byte	.LFB7
 2116 0c3e D8000000 		.4byte	.LFE7
 2117 0c42 20000000 		.4byte	.LLST8
 2118 0c46 01       		.byte	0x1
 2119 0c47 6A0C0000 		.4byte	0xc6a
 2120 0c4b 27       		.uleb128 0x27
 2121 0c4c 61757800 		.ascii	"aux\000"
 2122 0c50 02       		.byte	0x2
 2123 0c51 A4       		.byte	0xa4
 2124 0c52 6A0C0000 		.4byte	0xc6a
 2125 0c56 01       		.byte	0x1
 2126 0c57 50       		.byte	0x50
 2127 0c58 28       		.uleb128 0x28
 2128 0c59 D6000000 		.4byte	.LVL19
 2129 0c5d 350E0000 		.4byte	0xe35
 2130 0c61 24       		.uleb128 0x24
 2131 0c62 01       		.byte	0x1
 2132 0c63 50       		.byte	0x50
 2133 0c64 03       		.byte	0x3
 2134 0c65 0A       		.byte	0xa
 2135 0c66 0001     		.2byte	0x100
 2136 0c68 00       		.byte	0
 2137 0c69 00       		.byte	0
 2138 0c6a 07       		.uleb128 0x7
 2139 0c6b 04       		.byte	0x4
ARM GAS  C:\Users\Diogo\AppData\Local\Temp\ccRXdVYs.s 			page 44


 2140 0c6c 91000000 		.4byte	0x91
 2141 0c70 29       		.uleb128 0x29
 2142 0c71 01       		.byte	0x1
 2143 0c72 DF050000 		.4byte	.LASF134
 2144 0c76 02       		.byte	0x2
 2145 0c77 5C       		.byte	0x5c
 2146 0c78 01       		.byte	0x1
 2147 0c79 6C000000 		.4byte	.LFB6
 2148 0c7d CC000000 		.4byte	.LFE6
 2149 0c81 40000000 		.4byte	.LLST7
 2150 0c85 01       		.byte	0x1
 2151 0c86 1A0D0000 		.4byte	0xd1a
 2152 0c8a 23       		.uleb128 0x23
 2153 0c8b 78000000 		.4byte	.LVL12
 2154 0c8f 9E0C0000 		.4byte	0xc9e
 2155 0c93 24       		.uleb128 0x24
 2156 0c94 01       		.byte	0x1
 2157 0c95 50       		.byte	0x50
 2158 0c96 06       		.byte	0x6
 2159 0c97 11       		.byte	0x11
 2160 0c98 80908080 		.sleb128 -268433408
 2160      7F
 2161 0c9d 00       		.byte	0
 2162 0c9e 23       		.uleb128 0x23
 2163 0c9f 80000000 		.4byte	.LVL13
 2164 0ca3 B20C0000 		.4byte	0xcb2
 2165 0ca7 24       		.uleb128 0x24
 2166 0ca8 01       		.byte	0x1
 2167 0ca9 50       		.byte	0x50
 2168 0caa 06       		.byte	0x6
 2169 0cab 11       		.byte	0x11
 2170 0cac 80B08080 		.sleb128 -268429312
 2170      7F
 2171 0cb1 00       		.byte	0
 2172 0cb2 23       		.uleb128 0x23
 2173 0cb3 8A000000 		.4byte	.LVL14
 2174 0cb7 C10C0000 		.4byte	0xcc1
 2175 0cbb 24       		.uleb128 0x24
 2176 0cbc 01       		.byte	0x1
 2177 0cbd 50       		.byte	0x50
 2178 0cbe 01       		.byte	0x1
 2179 0cbf 31       		.byte	0x31
 2180 0cc0 00       		.byte	0
 2181 0cc1 23       		.uleb128 0x23
 2182 0cc2 94000000 		.4byte	.LVL15
 2183 0cc6 D20C0000 		.4byte	0xcd2
 2184 0cca 24       		.uleb128 0x24
 2185 0ccb 01       		.byte	0x1
 2186 0ccc 50       		.byte	0x50
 2187 0ccd 03       		.byte	0x3
 2188 0cce 0A       		.byte	0xa
 2189 0ccf 0104     		.2byte	0x401
 2190 0cd1 00       		.byte	0
 2191 0cd2 23       		.uleb128 0x23
 2192 0cd3 A0000000 		.4byte	.LVL16
 2193 0cd7 EA0C0000 		.4byte	0xcea
 2194 0cdb 24       		.uleb128 0x24
ARM GAS  C:\Users\Diogo\AppData\Local\Temp\ccRXdVYs.s 			page 45


 2195 0cdc 01       		.byte	0x1
 2196 0cdd 50       		.byte	0x50
 2197 0cde 05       		.byte	0x5
 2198 0cdf 0C       		.byte	0xc
 2199 0ce0 00400040 		.4byte	0x40004000
 2200 0ce4 24       		.uleb128 0x24
 2201 0ce5 01       		.byte	0x1
 2202 0ce6 51       		.byte	0x51
 2203 0ce7 01       		.byte	0x1
 2204 0ce8 33       		.byte	0x33
 2205 0ce9 00       		.byte	0
 2206 0cea 23       		.uleb128 0x23
 2207 0ceb AC000000 		.4byte	.LVL17
 2208 0cef 020D0000 		.4byte	0xd02
 2209 0cf3 24       		.uleb128 0x24
 2210 0cf4 01       		.byte	0x1
 2211 0cf5 50       		.byte	0x50
 2212 0cf6 05       		.byte	0x5
 2213 0cf7 0C       		.byte	0xc
 2214 0cf8 00400040 		.4byte	0x40004000
 2215 0cfc 24       		.uleb128 0x24
 2216 0cfd 01       		.byte	0x1
 2217 0cfe 51       		.byte	0x51
 2218 0cff 01       		.byte	0x1
 2219 0d00 35       		.byte	0x35
 2220 0d01 00       		.byte	0
 2221 0d02 28       		.uleb128 0x28
 2222 0d03 BA000000 		.4byte	.LVL18
 2223 0d07 420E0000 		.4byte	0xe42
 2224 0d0b 24       		.uleb128 0x24
 2225 0d0c 01       		.byte	0x1
 2226 0d0d 50       		.byte	0x50
 2227 0d0e 01       		.byte	0x1
 2228 0d0f 30       		.byte	0x30
 2229 0d10 24       		.uleb128 0x24
 2230 0d11 01       		.byte	0x1
 2231 0d12 51       		.byte	0x51
 2232 0d13 04       		.byte	0x4
 2233 0d14 08       		.byte	0x8
 2234 0d15 E1       		.byte	0xe1
 2235 0d16 39       		.byte	0x39
 2236 0d17 24       		.byte	0x24
 2237 0d18 00       		.byte	0
 2238 0d19 00       		.byte	0
 2239 0d1a 29       		.uleb128 0x29
 2240 0d1b 01       		.byte	0x1
 2241 0d1c 2C000000 		.4byte	.LASF135
 2242 0d20 02       		.byte	0x2
 2243 0d21 50       		.byte	0x50
 2244 0d22 01       		.byte	0x1
 2245 0d23 58000000 		.4byte	.LFB5
 2246 0d27 6C000000 		.4byte	.LFE5
 2247 0d2b 60000000 		.4byte	.LLST4
 2248 0d2f 01       		.byte	0x1
 2249 0d30 740D0000 		.4byte	0xd74
 2250 0d34 2A       		.uleb128 0x2a
 2251 0d35 B2050000 		.4byte	.LASF136
ARM GAS  C:\Users\Diogo\AppData\Local\Temp\ccRXdVYs.s 			page 46


 2252 0d39 02       		.byte	0x2
 2253 0d3a 50       		.byte	0x50
 2254 0d3b 22060000 		.4byte	0x622
 2255 0d3f 80000000 		.4byte	.LLST5
 2256 0d43 2A       		.uleb128 0x2a
 2257 0d44 94030000 		.4byte	.LASF137
 2258 0d48 02       		.byte	0x2
 2259 0d49 50       		.byte	0x50
 2260 0d4a 91000000 		.4byte	0x91
 2261 0d4e AC000000 		.4byte	.LLST6
 2262 0d52 28       		.uleb128 0x28
 2263 0d53 64000000 		.4byte	.LVL11
 2264 0d57 F30D0000 		.4byte	0xdf3
 2265 0d5b 24       		.uleb128 0x24
 2266 0d5c 01       		.byte	0x1
 2267 0d5d 50       		.byte	0x50
 2268 0d5e 05       		.byte	0x5
 2269 0d5f 03       		.byte	0x3
 2270 0d60 10000000 		.4byte	.LC2
 2271 0d64 24       		.uleb128 0x24
 2272 0d65 01       		.byte	0x1
 2273 0d66 51       		.byte	0x51
 2274 0d67 03       		.byte	0x3
 2275 0d68 F3       		.byte	0xf3
 2276 0d69 01       		.uleb128 0x1
 2277 0d6a 50       		.byte	0x50
 2278 0d6b 24       		.uleb128 0x24
 2279 0d6c 01       		.byte	0x1
 2280 0d6d 52       		.byte	0x52
 2281 0d6e 03       		.byte	0x3
 2282 0d6f F3       		.byte	0xf3
 2283 0d70 01       		.uleb128 0x1
 2284 0d71 51       		.byte	0x51
 2285 0d72 00       		.byte	0
 2286 0d73 00       		.byte	0
 2287 0d74 29       		.uleb128 0x29
 2288 0d75 01       		.byte	0x1
 2289 0d76 9F000000 		.4byte	.LASF138
 2290 0d7a 01       		.byte	0x1
 2291 0d7b 1D       		.byte	0x1d
 2292 0d7c 01       		.byte	0x1
 2293 0d7d 34000000 		.4byte	.LFB4
 2294 0d81 58000000 		.4byte	.LFE4
 2295 0d85 D8000000 		.4byte	.LLST2
 2296 0d89 01       		.byte	0x1
 2297 0d8a AE0D0000 		.4byte	0xdae
 2298 0d8e 2B       		.uleb128 0x2b
 2299 0d8f 61726700 		.ascii	"arg\000"
 2300 0d93 01       		.byte	0x1
 2301 0d94 1D       		.byte	0x1d
 2302 0d95 9C000000 		.4byte	0x9c
 2303 0d99 F8000000 		.4byte	.LLST3
 2304 0d9d 28       		.uleb128 0x28
 2305 0d9e 4C000000 		.4byte	.LVL7
 2306 0da2 F30D0000 		.4byte	0xdf3
 2307 0da6 24       		.uleb128 0x24
 2308 0da7 01       		.byte	0x1
ARM GAS  C:\Users\Diogo\AppData\Local\Temp\ccRXdVYs.s 			page 47


 2309 0da8 50       		.byte	0x50
 2310 0da9 02       		.byte	0x2
 2311 0daa 75       		.byte	0x75
 2312 0dab 00       		.sleb128 0
 2313 0dac 00       		.byte	0
 2314 0dad 00       		.byte	0
 2315 0dae 29       		.uleb128 0x29
 2316 0daf 01       		.byte	0x1
 2317 0db0 B7010000 		.4byte	.LASF139
 2318 0db4 01       		.byte	0x1
 2319 0db5 0C       		.byte	0xc
 2320 0db6 01       		.byte	0x1
 2321 0db7 00000000 		.4byte	.LFB3
 2322 0dbb 34000000 		.4byte	.LFE3
 2323 0dbf 19010000 		.4byte	.LLST0
 2324 0dc3 01       		.byte	0x1
 2325 0dc4 E60D0000 		.4byte	0xde6
 2326 0dc8 2C       		.uleb128 0x2c
 2327 0dc9 6900     		.ascii	"i\000"
 2328 0dcb 01       		.byte	0x1
 2329 0dcc 0E       		.byte	0xe
 2330 0dcd 91000000 		.4byte	0x91
 2331 0dd1 39010000 		.4byte	.LLST1
 2332 0dd5 28       		.uleb128 0x28
 2333 0dd6 20000000 		.4byte	.LVL4
 2334 0dda F30D0000 		.4byte	0xdf3
 2335 0dde 24       		.uleb128 0x24
 2336 0ddf 01       		.byte	0x1
 2337 0de0 50       		.byte	0x50
 2338 0de1 02       		.byte	0x2
 2339 0de2 76       		.byte	0x76
 2340 0de3 00       		.sleb128 0
 2341 0de4 00       		.byte	0
 2342 0de5 00       		.byte	0
 2343 0de6 2D       		.uleb128 0x2d
 2344 0de7 01       		.byte	0x1
 2345 0de8 01       		.byte	0x1
 2346 0de9 A8000000 		.4byte	.LASF140
 2347 0ded A8000000 		.4byte	.LASF140
 2348 0df1 0A       		.byte	0xa
 2349 0df2 43       		.byte	0x43
 2350 0df3 2D       		.uleb128 0x2d
 2351 0df4 01       		.byte	0x1
 2352 0df5 01       		.byte	0x1
 2353 0df6 AC010000 		.4byte	.LASF141
 2354 0dfa AC010000 		.4byte	.LASF141
 2355 0dfe 0B       		.byte	0xb
 2356 0dff 41       		.byte	0x41
 2357 0e00 2D       		.uleb128 0x2d
 2358 0e01 01       		.byte	0x1
 2359 0e02 01       		.byte	0x1
 2360 0e03 E2040000 		.4byte	.LASF142
 2361 0e07 E2040000 		.4byte	.LASF142
 2362 0e0b 0A       		.byte	0xa
 2363 0e0c 44       		.byte	0x44
 2364 0e0d 2E       		.uleb128 0x2e
 2365 0e0e 01       		.byte	0x1
ARM GAS  C:\Users\Diogo\AppData\Local\Temp\ccRXdVYs.s 			page 48


 2366 0e0f 01       		.byte	0x1
 2367 0e10 BB000000 		.4byte	.LASF143
 2368 0e14 BB000000 		.4byte	.LASF143
 2369 0e18 0C       		.byte	0xc
 2370 0e19 6802     		.2byte	0x268
 2371 0e1b 2D       		.uleb128 0x2d
 2372 0e1c 01       		.byte	0x1
 2373 0e1d 01       		.byte	0x1
 2374 0e1e 97010000 		.4byte	.LASF144
 2375 0e22 97010000 		.4byte	.LASF144
 2376 0e26 0D       		.byte	0xd
 2377 0e27 02       		.byte	0x2
 2378 0e28 2D       		.uleb128 0x2d
 2379 0e29 01       		.byte	0x1
 2380 0e2a 01       		.byte	0x1
 2381 0e2b 4B010000 		.4byte	.LASF145
 2382 0e2f 4B010000 		.4byte	.LASF145
 2383 0e33 0D       		.byte	0xd
 2384 0e34 03       		.byte	0x3
 2385 0e35 2D       		.uleb128 0x2d
 2386 0e36 01       		.byte	0x1
 2387 0e37 01       		.byte	0x1
 2388 0e38 0C000000 		.4byte	.LASF146
 2389 0e3c 0C000000 		.4byte	.LASF146
 2390 0e40 09       		.byte	0x9
 2391 0e41 68       		.byte	0x68
 2392 0e42 2D       		.uleb128 0x2d
 2393 0e43 01       		.byte	0x1
 2394 0e44 01       		.byte	0x1
 2395 0e45 A2050000 		.4byte	.LASF147
 2396 0e49 A2050000 		.4byte	.LASF147
 2397 0e4d 0B       		.byte	0xb
 2398 0e4e 3D       		.byte	0x3d
 2399 0e4f 00       		.byte	0
 2400              		.section	.debug_abbrev,"",%progbits
 2401              	.Ldebug_abbrev0:
 2402 0000 01       		.uleb128 0x1
 2403 0001 11       		.uleb128 0x11
 2404 0002 01       		.byte	0x1
 2405 0003 25       		.uleb128 0x25
 2406 0004 0E       		.uleb128 0xe
 2407 0005 13       		.uleb128 0x13
 2408 0006 0B       		.uleb128 0xb
 2409 0007 03       		.uleb128 0x3
 2410 0008 0E       		.uleb128 0xe
 2411 0009 1B       		.uleb128 0x1b
 2412 000a 0E       		.uleb128 0xe
 2413 000b 11       		.uleb128 0x11
 2414 000c 01       		.uleb128 0x1
 2415 000d 12       		.uleb128 0x12
 2416 000e 01       		.uleb128 0x1
 2417 000f 10       		.uleb128 0x10
 2418 0010 06       		.uleb128 0x6
 2419 0011 00       		.byte	0
 2420 0012 00       		.byte	0
 2421 0013 02       		.uleb128 0x2
 2422 0014 16       		.uleb128 0x16
ARM GAS  C:\Users\Diogo\AppData\Local\Temp\ccRXdVYs.s 			page 49


 2423 0015 00       		.byte	0
 2424 0016 03       		.uleb128 0x3
 2425 0017 0E       		.uleb128 0xe
 2426 0018 3A       		.uleb128 0x3a
 2427 0019 0B       		.uleb128 0xb
 2428 001a 3B       		.uleb128 0x3b
 2429 001b 0B       		.uleb128 0xb
 2430 001c 49       		.uleb128 0x49
 2431 001d 13       		.uleb128 0x13
 2432 001e 00       		.byte	0
 2433 001f 00       		.byte	0
 2434 0020 03       		.uleb128 0x3
 2435 0021 24       		.uleb128 0x24
 2436 0022 00       		.byte	0
 2437 0023 0B       		.uleb128 0xb
 2438 0024 0B       		.uleb128 0xb
 2439 0025 3E       		.uleb128 0x3e
 2440 0026 0B       		.uleb128 0xb
 2441 0027 03       		.uleb128 0x3
 2442 0028 0E       		.uleb128 0xe
 2443 0029 00       		.byte	0
 2444 002a 00       		.byte	0
 2445 002b 04       		.uleb128 0x4
 2446 002c 24       		.uleb128 0x24
 2447 002d 00       		.byte	0
 2448 002e 0B       		.uleb128 0xb
 2449 002f 0B       		.uleb128 0xb
 2450 0030 3E       		.uleb128 0x3e
 2451 0031 0B       		.uleb128 0xb
 2452 0032 03       		.uleb128 0x3
 2453 0033 08       		.uleb128 0x8
 2454 0034 00       		.byte	0
 2455 0035 00       		.byte	0
 2456 0036 05       		.uleb128 0x5
 2457 0037 35       		.uleb128 0x35
 2458 0038 00       		.byte	0
 2459 0039 49       		.uleb128 0x49
 2460 003a 13       		.uleb128 0x13
 2461 003b 00       		.byte	0
 2462 003c 00       		.byte	0
 2463 003d 06       		.uleb128 0x6
 2464 003e 0F       		.uleb128 0xf
 2465 003f 00       		.byte	0
 2466 0040 0B       		.uleb128 0xb
 2467 0041 0B       		.uleb128 0xb
 2468 0042 00       		.byte	0
 2469 0043 00       		.byte	0
 2470 0044 07       		.uleb128 0x7
 2471 0045 0F       		.uleb128 0xf
 2472 0046 00       		.byte	0
 2473 0047 0B       		.uleb128 0xb
 2474 0048 0B       		.uleb128 0xb
 2475 0049 49       		.uleb128 0x49
 2476 004a 13       		.uleb128 0x13
 2477 004b 00       		.byte	0
 2478 004c 00       		.byte	0
 2479 004d 08       		.uleb128 0x8
ARM GAS  C:\Users\Diogo\AppData\Local\Temp\ccRXdVYs.s 			page 50


 2480 004e 13       		.uleb128 0x13
 2481 004f 00       		.byte	0
 2482 0050 03       		.uleb128 0x3
 2483 0051 0E       		.uleb128 0xe
 2484 0052 3C       		.uleb128 0x3c
 2485 0053 0C       		.uleb128 0xc
 2486 0054 00       		.byte	0
 2487 0055 00       		.byte	0
 2488 0056 09       		.uleb128 0x9
 2489 0057 16       		.uleb128 0x16
 2490 0058 00       		.byte	0
 2491 0059 03       		.uleb128 0x3
 2492 005a 0E       		.uleb128 0xe
 2493 005b 3A       		.uleb128 0x3a
 2494 005c 0B       		.uleb128 0xb
 2495 005d 3B       		.uleb128 0x3b
 2496 005e 05       		.uleb128 0x5
 2497 005f 49       		.uleb128 0x49
 2498 0060 13       		.uleb128 0x13
 2499 0061 00       		.byte	0
 2500 0062 00       		.byte	0
 2501 0063 0A       		.uleb128 0xa
 2502 0064 17       		.uleb128 0x17
 2503 0065 01       		.byte	0x1
 2504 0066 0B       		.uleb128 0xb
 2505 0067 0B       		.uleb128 0xb
 2506 0068 3A       		.uleb128 0x3a
 2507 0069 0B       		.uleb128 0xb
 2508 006a 3B       		.uleb128 0x3b
 2509 006b 0B       		.uleb128 0xb
 2510 006c 01       		.uleb128 0x1
 2511 006d 13       		.uleb128 0x13
 2512 006e 00       		.byte	0
 2513 006f 00       		.byte	0
 2514 0070 0B       		.uleb128 0xb
 2515 0071 0D       		.uleb128 0xd
 2516 0072 00       		.byte	0
 2517 0073 03       		.uleb128 0x3
 2518 0074 0E       		.uleb128 0xe
 2519 0075 3A       		.uleb128 0x3a
 2520 0076 0B       		.uleb128 0xb
 2521 0077 3B       		.uleb128 0x3b
 2522 0078 0B       		.uleb128 0xb
 2523 0079 49       		.uleb128 0x49
 2524 007a 13       		.uleb128 0x13
 2525 007b 00       		.byte	0
 2526 007c 00       		.byte	0
 2527 007d 0C       		.uleb128 0xc
 2528 007e 01       		.uleb128 0x1
 2529 007f 01       		.byte	0x1
 2530 0080 49       		.uleb128 0x49
 2531 0081 13       		.uleb128 0x13
 2532 0082 01       		.uleb128 0x1
 2533 0083 13       		.uleb128 0x13
 2534 0084 00       		.byte	0
 2535 0085 00       		.byte	0
 2536 0086 0D       		.uleb128 0xd
ARM GAS  C:\Users\Diogo\AppData\Local\Temp\ccRXdVYs.s 			page 51


 2537 0087 21       		.uleb128 0x21
 2538 0088 00       		.byte	0
 2539 0089 49       		.uleb128 0x49
 2540 008a 13       		.uleb128 0x13
 2541 008b 2F       		.uleb128 0x2f
 2542 008c 0B       		.uleb128 0xb
 2543 008d 00       		.byte	0
 2544 008e 00       		.byte	0
 2545 008f 0E       		.uleb128 0xe
 2546 0090 13       		.uleb128 0x13
 2547 0091 01       		.byte	0x1
 2548 0092 0B       		.uleb128 0xb
 2549 0093 0B       		.uleb128 0xb
 2550 0094 3A       		.uleb128 0x3a
 2551 0095 0B       		.uleb128 0xb
 2552 0096 3B       		.uleb128 0x3b
 2553 0097 0B       		.uleb128 0xb
 2554 0098 01       		.uleb128 0x1
 2555 0099 13       		.uleb128 0x13
 2556 009a 00       		.byte	0
 2557 009b 00       		.byte	0
 2558 009c 0F       		.uleb128 0xf
 2559 009d 0D       		.uleb128 0xd
 2560 009e 00       		.byte	0
 2561 009f 03       		.uleb128 0x3
 2562 00a0 0E       		.uleb128 0xe
 2563 00a1 3A       		.uleb128 0x3a
 2564 00a2 0B       		.uleb128 0xb
 2565 00a3 3B       		.uleb128 0x3b
 2566 00a4 0B       		.uleb128 0xb
 2567 00a5 49       		.uleb128 0x49
 2568 00a6 13       		.uleb128 0x13
 2569 00a7 38       		.uleb128 0x38
 2570 00a8 0A       		.uleb128 0xa
 2571 00a9 00       		.byte	0
 2572 00aa 00       		.byte	0
 2573 00ab 10       		.uleb128 0x10
 2574 00ac 13       		.uleb128 0x13
 2575 00ad 01       		.byte	0x1
 2576 00ae 03       		.uleb128 0x3
 2577 00af 0E       		.uleb128 0xe
 2578 00b0 0B       		.uleb128 0xb
 2579 00b1 0B       		.uleb128 0xb
 2580 00b2 3A       		.uleb128 0x3a
 2581 00b3 0B       		.uleb128 0xb
 2582 00b4 3B       		.uleb128 0x3b
 2583 00b5 0B       		.uleb128 0xb
 2584 00b6 01       		.uleb128 0x1
 2585 00b7 13       		.uleb128 0x13
 2586 00b8 00       		.byte	0
 2587 00b9 00       		.byte	0
 2588 00ba 11       		.uleb128 0x11
 2589 00bb 0D       		.uleb128 0xd
 2590 00bc 00       		.byte	0
 2591 00bd 03       		.uleb128 0x3
 2592 00be 08       		.uleb128 0x8
 2593 00bf 3A       		.uleb128 0x3a
ARM GAS  C:\Users\Diogo\AppData\Local\Temp\ccRXdVYs.s 			page 52


 2594 00c0 0B       		.uleb128 0xb
 2595 00c1 3B       		.uleb128 0x3b
 2596 00c2 0B       		.uleb128 0xb
 2597 00c3 49       		.uleb128 0x49
 2598 00c4 13       		.uleb128 0x13
 2599 00c5 38       		.uleb128 0x38
 2600 00c6 0A       		.uleb128 0xa
 2601 00c7 00       		.byte	0
 2602 00c8 00       		.byte	0
 2603 00c9 12       		.uleb128 0x12
 2604 00ca 13       		.uleb128 0x13
 2605 00cb 01       		.byte	0x1
 2606 00cc 03       		.uleb128 0x3
 2607 00cd 0E       		.uleb128 0xe
 2608 00ce 0B       		.uleb128 0xb
 2609 00cf 05       		.uleb128 0x5
 2610 00d0 3A       		.uleb128 0x3a
 2611 00d1 0B       		.uleb128 0xb
 2612 00d2 3B       		.uleb128 0x3b
 2613 00d3 0B       		.uleb128 0xb
 2614 00d4 01       		.uleb128 0x1
 2615 00d5 13       		.uleb128 0x13
 2616 00d6 00       		.byte	0
 2617 00d7 00       		.byte	0
 2618 00d8 13       		.uleb128 0x13
 2619 00d9 15       		.uleb128 0x15
 2620 00da 00       		.byte	0
 2621 00db 27       		.uleb128 0x27
 2622 00dc 0C       		.uleb128 0xc
 2623 00dd 00       		.byte	0
 2624 00de 00       		.byte	0
 2625 00df 14       		.uleb128 0x14
 2626 00e0 15       		.uleb128 0x15
 2627 00e1 01       		.byte	0x1
 2628 00e2 27       		.uleb128 0x27
 2629 00e3 0C       		.uleb128 0xc
 2630 00e4 49       		.uleb128 0x49
 2631 00e5 13       		.uleb128 0x13
 2632 00e6 01       		.uleb128 0x1
 2633 00e7 13       		.uleb128 0x13
 2634 00e8 00       		.byte	0
 2635 00e9 00       		.byte	0
 2636 00ea 15       		.uleb128 0x15
 2637 00eb 05       		.uleb128 0x5
 2638 00ec 00       		.byte	0
 2639 00ed 49       		.uleb128 0x49
 2640 00ee 13       		.uleb128 0x13
 2641 00ef 00       		.byte	0
 2642 00f0 00       		.byte	0
 2643 00f1 16       		.uleb128 0x16
 2644 00f2 26       		.uleb128 0x26
 2645 00f3 00       		.byte	0
 2646 00f4 49       		.uleb128 0x49
 2647 00f5 13       		.uleb128 0x13
 2648 00f6 00       		.byte	0
 2649 00f7 00       		.byte	0
 2650 00f8 17       		.uleb128 0x17
ARM GAS  C:\Users\Diogo\AppData\Local\Temp\ccRXdVYs.s 			page 53


 2651 00f9 13       		.uleb128 0x13
 2652 00fa 01       		.byte	0x1
 2653 00fb 03       		.uleb128 0x3
 2654 00fc 0E       		.uleb128 0xe
 2655 00fd 0B       		.uleb128 0xb
 2656 00fe 05       		.uleb128 0x5
 2657 00ff 3A       		.uleb128 0x3a
 2658 0100 0B       		.uleb128 0xb
 2659 0101 3B       		.uleb128 0x3b
 2660 0102 05       		.uleb128 0x5
 2661 0103 01       		.uleb128 0x1
 2662 0104 13       		.uleb128 0x13
 2663 0105 00       		.byte	0
 2664 0106 00       		.byte	0
 2665 0107 18       		.uleb128 0x18
 2666 0108 0D       		.uleb128 0xd
 2667 0109 00       		.byte	0
 2668 010a 03       		.uleb128 0x3
 2669 010b 0E       		.uleb128 0xe
 2670 010c 3A       		.uleb128 0x3a
 2671 010d 0B       		.uleb128 0xb
 2672 010e 3B       		.uleb128 0x3b
 2673 010f 05       		.uleb128 0x5
 2674 0110 49       		.uleb128 0x49
 2675 0111 13       		.uleb128 0x13
 2676 0112 38       		.uleb128 0x38
 2677 0113 0A       		.uleb128 0xa
 2678 0114 00       		.byte	0
 2679 0115 00       		.byte	0
 2680 0116 19       		.uleb128 0x19
 2681 0117 13       		.uleb128 0x13
 2682 0118 01       		.byte	0x1
 2683 0119 03       		.uleb128 0x3
 2684 011a 0E       		.uleb128 0xe
 2685 011b 0B       		.uleb128 0xb
 2686 011c 0B       		.uleb128 0xb
 2687 011d 3A       		.uleb128 0x3a
 2688 011e 0B       		.uleb128 0xb
 2689 011f 3B       		.uleb128 0x3b
 2690 0120 05       		.uleb128 0x5
 2691 0121 01       		.uleb128 0x1
 2692 0122 13       		.uleb128 0x13
 2693 0123 00       		.byte	0
 2694 0124 00       		.byte	0
 2695 0125 1A       		.uleb128 0x1a
 2696 0126 13       		.uleb128 0x13
 2697 0127 01       		.byte	0x1
 2698 0128 0B       		.uleb128 0xb
 2699 0129 0B       		.uleb128 0xb
 2700 012a 3A       		.uleb128 0x3a
 2701 012b 0B       		.uleb128 0xb
 2702 012c 3B       		.uleb128 0x3b
 2703 012d 05       		.uleb128 0x5
 2704 012e 01       		.uleb128 0x1
 2705 012f 13       		.uleb128 0x13
 2706 0130 00       		.byte	0
 2707 0131 00       		.byte	0
ARM GAS  C:\Users\Diogo\AppData\Local\Temp\ccRXdVYs.s 			page 54


 2708 0132 1B       		.uleb128 0x1b
 2709 0133 17       		.uleb128 0x17
 2710 0134 01       		.byte	0x1
 2711 0135 0B       		.uleb128 0xb
 2712 0136 0B       		.uleb128 0xb
 2713 0137 3A       		.uleb128 0x3a
 2714 0138 0B       		.uleb128 0xb
 2715 0139 3B       		.uleb128 0x3b
 2716 013a 05       		.uleb128 0x5
 2717 013b 01       		.uleb128 0x1
 2718 013c 13       		.uleb128 0x13
 2719 013d 00       		.byte	0
 2720 013e 00       		.byte	0
 2721 013f 1C       		.uleb128 0x1c
 2722 0140 0D       		.uleb128 0xd
 2723 0141 00       		.byte	0
 2724 0142 03       		.uleb128 0x3
 2725 0143 0E       		.uleb128 0xe
 2726 0144 3A       		.uleb128 0x3a
 2727 0145 0B       		.uleb128 0xb
 2728 0146 3B       		.uleb128 0x3b
 2729 0147 05       		.uleb128 0x5
 2730 0148 49       		.uleb128 0x49
 2731 0149 13       		.uleb128 0x13
 2732 014a 00       		.byte	0
 2733 014b 00       		.byte	0
 2734 014c 1D       		.uleb128 0x1d
 2735 014d 15       		.uleb128 0x15
 2736 014e 01       		.byte	0x1
 2737 014f 27       		.uleb128 0x27
 2738 0150 0C       		.uleb128 0xc
 2739 0151 01       		.uleb128 0x1
 2740 0152 13       		.uleb128 0x13
 2741 0153 00       		.byte	0
 2742 0154 00       		.byte	0
 2743 0155 1E       		.uleb128 0x1e
 2744 0156 34       		.uleb128 0x34
 2745 0157 00       		.byte	0
 2746 0158 03       		.uleb128 0x3
 2747 0159 0E       		.uleb128 0xe
 2748 015a 3A       		.uleb128 0x3a
 2749 015b 0B       		.uleb128 0xb
 2750 015c 3B       		.uleb128 0x3b
 2751 015d 05       		.uleb128 0x5
 2752 015e 49       		.uleb128 0x49
 2753 015f 13       		.uleb128 0x13
 2754 0160 3F       		.uleb128 0x3f
 2755 0161 0C       		.uleb128 0xc
 2756 0162 3C       		.uleb128 0x3c
 2757 0163 0C       		.uleb128 0xc
 2758 0164 00       		.byte	0
 2759 0165 00       		.byte	0
 2760 0166 1F       		.uleb128 0x1f
 2761 0167 34       		.uleb128 0x34
 2762 0168 00       		.byte	0
 2763 0169 03       		.uleb128 0x3
 2764 016a 0E       		.uleb128 0xe
ARM GAS  C:\Users\Diogo\AppData\Local\Temp\ccRXdVYs.s 			page 55


 2765 016b 3A       		.uleb128 0x3a
 2766 016c 0B       		.uleb128 0xb
 2767 016d 3B       		.uleb128 0x3b
 2768 016e 0B       		.uleb128 0xb
 2769 016f 49       		.uleb128 0x49
 2770 0170 13       		.uleb128 0x13
 2771 0171 3F       		.uleb128 0x3f
 2772 0172 0C       		.uleb128 0xc
 2773 0173 3C       		.uleb128 0x3c
 2774 0174 0C       		.uleb128 0xc
 2775 0175 00       		.byte	0
 2776 0176 00       		.byte	0
 2777 0177 20       		.uleb128 0x20
 2778 0178 34       		.uleb128 0x34
 2779 0179 00       		.byte	0
 2780 017a 03       		.uleb128 0x3
 2781 017b 0E       		.uleb128 0xe
 2782 017c 3A       		.uleb128 0x3a
 2783 017d 0B       		.uleb128 0xb
 2784 017e 3B       		.uleb128 0x3b
 2785 017f 0B       		.uleb128 0xb
 2786 0180 49       		.uleb128 0x49
 2787 0181 13       		.uleb128 0x13
 2788 0182 3F       		.uleb128 0x3f
 2789 0183 0C       		.uleb128 0xc
 2790 0184 02       		.uleb128 0x2
 2791 0185 0A       		.uleb128 0xa
 2792 0186 00       		.byte	0
 2793 0187 00       		.byte	0
 2794 0188 21       		.uleb128 0x21
 2795 0189 2E       		.uleb128 0x2e
 2796 018a 01       		.byte	0x1
 2797 018b 3F       		.uleb128 0x3f
 2798 018c 0C       		.uleb128 0xc
 2799 018d 03       		.uleb128 0x3
 2800 018e 0E       		.uleb128 0xe
 2801 018f 3A       		.uleb128 0x3a
 2802 0190 0B       		.uleb128 0xb
 2803 0191 3B       		.uleb128 0x3b
 2804 0192 0B       		.uleb128 0xb
 2805 0193 27       		.uleb128 0x27
 2806 0194 0C       		.uleb128 0xc
 2807 0195 49       		.uleb128 0x49
 2808 0196 13       		.uleb128 0x13
 2809 0197 11       		.uleb128 0x11
 2810 0198 01       		.uleb128 0x1
 2811 0199 12       		.uleb128 0x12
 2812 019a 01       		.uleb128 0x1
 2813 019b 40       		.uleb128 0x40
 2814 019c 06       		.uleb128 0x6
 2815 019d 9742     		.uleb128 0x2117
 2816 019f 0C       		.uleb128 0xc
 2817 01a0 01       		.uleb128 0x1
 2818 01a1 13       		.uleb128 0x13
 2819 01a2 00       		.byte	0
 2820 01a3 00       		.byte	0
 2821 01a4 22       		.uleb128 0x22
ARM GAS  C:\Users\Diogo\AppData\Local\Temp\ccRXdVYs.s 			page 56


 2822 01a5 34       		.uleb128 0x34
 2823 01a6 00       		.byte	0
 2824 01a7 03       		.uleb128 0x3
 2825 01a8 0E       		.uleb128 0xe
 2826 01a9 3A       		.uleb128 0x3a
 2827 01aa 0B       		.uleb128 0xb
 2828 01ab 3B       		.uleb128 0x3b
 2829 01ac 0B       		.uleb128 0xb
 2830 01ad 49       		.uleb128 0x49
 2831 01ae 13       		.uleb128 0x13
 2832 01af 00       		.byte	0
 2833 01b0 00       		.byte	0
 2834 01b1 23       		.uleb128 0x23
 2835 01b2 898201   		.uleb128 0x4109
 2836 01b5 01       		.byte	0x1
 2837 01b6 11       		.uleb128 0x11
 2838 01b7 01       		.uleb128 0x1
 2839 01b8 01       		.uleb128 0x1
 2840 01b9 13       		.uleb128 0x13
 2841 01ba 00       		.byte	0
 2842 01bb 00       		.byte	0
 2843 01bc 24       		.uleb128 0x24
 2844 01bd 8A8201   		.uleb128 0x410a
 2845 01c0 00       		.byte	0
 2846 01c1 02       		.uleb128 0x2
 2847 01c2 0A       		.uleb128 0xa
 2848 01c3 9142     		.uleb128 0x2111
 2849 01c5 0A       		.uleb128 0xa
 2850 01c6 00       		.byte	0
 2851 01c7 00       		.byte	0
 2852 01c8 25       		.uleb128 0x25
 2853 01c9 898201   		.uleb128 0x4109
 2854 01cc 01       		.byte	0x1
 2855 01cd 11       		.uleb128 0x11
 2856 01ce 01       		.uleb128 0x1
 2857 01cf 31       		.uleb128 0x31
 2858 01d0 13       		.uleb128 0x13
 2859 01d1 01       		.uleb128 0x1
 2860 01d2 13       		.uleb128 0x13
 2861 01d3 00       		.byte	0
 2862 01d4 00       		.byte	0
 2863 01d5 26       		.uleb128 0x26
 2864 01d6 898201   		.uleb128 0x4109
 2865 01d9 00       		.byte	0
 2866 01da 11       		.uleb128 0x11
 2867 01db 01       		.uleb128 0x1
 2868 01dc 31       		.uleb128 0x31
 2869 01dd 13       		.uleb128 0x13
 2870 01de 00       		.byte	0
 2871 01df 00       		.byte	0
 2872 01e0 27       		.uleb128 0x27
 2873 01e1 34       		.uleb128 0x34
 2874 01e2 00       		.byte	0
 2875 01e3 03       		.uleb128 0x3
 2876 01e4 08       		.uleb128 0x8
 2877 01e5 3A       		.uleb128 0x3a
 2878 01e6 0B       		.uleb128 0xb
ARM GAS  C:\Users\Diogo\AppData\Local\Temp\ccRXdVYs.s 			page 57


 2879 01e7 3B       		.uleb128 0x3b
 2880 01e8 0B       		.uleb128 0xb
 2881 01e9 49       		.uleb128 0x49
 2882 01ea 13       		.uleb128 0x13
 2883 01eb 02       		.uleb128 0x2
 2884 01ec 0A       		.uleb128 0xa
 2885 01ed 00       		.byte	0
 2886 01ee 00       		.byte	0
 2887 01ef 28       		.uleb128 0x28
 2888 01f0 898201   		.uleb128 0x4109
 2889 01f3 01       		.byte	0x1
 2890 01f4 11       		.uleb128 0x11
 2891 01f5 01       		.uleb128 0x1
 2892 01f6 31       		.uleb128 0x31
 2893 01f7 13       		.uleb128 0x13
 2894 01f8 00       		.byte	0
 2895 01f9 00       		.byte	0
 2896 01fa 29       		.uleb128 0x29
 2897 01fb 2E       		.uleb128 0x2e
 2898 01fc 01       		.byte	0x1
 2899 01fd 3F       		.uleb128 0x3f
 2900 01fe 0C       		.uleb128 0xc
 2901 01ff 03       		.uleb128 0x3
 2902 0200 0E       		.uleb128 0xe
 2903 0201 3A       		.uleb128 0x3a
 2904 0202 0B       		.uleb128 0xb
 2905 0203 3B       		.uleb128 0x3b
 2906 0204 0B       		.uleb128 0xb
 2907 0205 27       		.uleb128 0x27
 2908 0206 0C       		.uleb128 0xc
 2909 0207 11       		.uleb128 0x11
 2910 0208 01       		.uleb128 0x1
 2911 0209 12       		.uleb128 0x12
 2912 020a 01       		.uleb128 0x1
 2913 020b 40       		.uleb128 0x40
 2914 020c 06       		.uleb128 0x6
 2915 020d 9742     		.uleb128 0x2117
 2916 020f 0C       		.uleb128 0xc
 2917 0210 01       		.uleb128 0x1
 2918 0211 13       		.uleb128 0x13
 2919 0212 00       		.byte	0
 2920 0213 00       		.byte	0
 2921 0214 2A       		.uleb128 0x2a
 2922 0215 05       		.uleb128 0x5
 2923 0216 00       		.byte	0
 2924 0217 03       		.uleb128 0x3
 2925 0218 0E       		.uleb128 0xe
 2926 0219 3A       		.uleb128 0x3a
 2927 021a 0B       		.uleb128 0xb
 2928 021b 3B       		.uleb128 0x3b
 2929 021c 0B       		.uleb128 0xb
 2930 021d 49       		.uleb128 0x49
 2931 021e 13       		.uleb128 0x13
 2932 021f 02       		.uleb128 0x2
 2933 0220 06       		.uleb128 0x6
 2934 0221 00       		.byte	0
 2935 0222 00       		.byte	0
ARM GAS  C:\Users\Diogo\AppData\Local\Temp\ccRXdVYs.s 			page 58


 2936 0223 2B       		.uleb128 0x2b
 2937 0224 05       		.uleb128 0x5
 2938 0225 00       		.byte	0
 2939 0226 03       		.uleb128 0x3
 2940 0227 08       		.uleb128 0x8
 2941 0228 3A       		.uleb128 0x3a
 2942 0229 0B       		.uleb128 0xb
 2943 022a 3B       		.uleb128 0x3b
 2944 022b 0B       		.uleb128 0xb
 2945 022c 49       		.uleb128 0x49
 2946 022d 13       		.uleb128 0x13
 2947 022e 02       		.uleb128 0x2
 2948 022f 06       		.uleb128 0x6
 2949 0230 00       		.byte	0
 2950 0231 00       		.byte	0
 2951 0232 2C       		.uleb128 0x2c
 2952 0233 34       		.uleb128 0x34
 2953 0234 00       		.byte	0
 2954 0235 03       		.uleb128 0x3
 2955 0236 08       		.uleb128 0x8
 2956 0237 3A       		.uleb128 0x3a
 2957 0238 0B       		.uleb128 0xb
 2958 0239 3B       		.uleb128 0x3b
 2959 023a 0B       		.uleb128 0xb
 2960 023b 49       		.uleb128 0x49
 2961 023c 13       		.uleb128 0x13
 2962 023d 02       		.uleb128 0x2
 2963 023e 06       		.uleb128 0x6
 2964 023f 00       		.byte	0
 2965 0240 00       		.byte	0
 2966 0241 2D       		.uleb128 0x2d
 2967 0242 2E       		.uleb128 0x2e
 2968 0243 00       		.byte	0
 2969 0244 3F       		.uleb128 0x3f
 2970 0245 0C       		.uleb128 0xc
 2971 0246 3C       		.uleb128 0x3c
 2972 0247 0C       		.uleb128 0xc
 2973 0248 8740     		.uleb128 0x2007
 2974 024a 0E       		.uleb128 0xe
 2975 024b 03       		.uleb128 0x3
 2976 024c 0E       		.uleb128 0xe
 2977 024d 3A       		.uleb128 0x3a
 2978 024e 0B       		.uleb128 0xb
 2979 024f 3B       		.uleb128 0x3b
 2980 0250 0B       		.uleb128 0xb
 2981 0251 00       		.byte	0
 2982 0252 00       		.byte	0
 2983 0253 2E       		.uleb128 0x2e
 2984 0254 2E       		.uleb128 0x2e
 2985 0255 00       		.byte	0
 2986 0256 3F       		.uleb128 0x3f
 2987 0257 0C       		.uleb128 0xc
 2988 0258 3C       		.uleb128 0x3c
 2989 0259 0C       		.uleb128 0xc
 2990 025a 8740     		.uleb128 0x2007
 2991 025c 0E       		.uleb128 0xe
 2992 025d 03       		.uleb128 0x3
ARM GAS  C:\Users\Diogo\AppData\Local\Temp\ccRXdVYs.s 			page 59


 2993 025e 0E       		.uleb128 0xe
 2994 025f 3A       		.uleb128 0x3a
 2995 0260 0B       		.uleb128 0xb
 2996 0261 3B       		.uleb128 0x3b
 2997 0262 05       		.uleb128 0x5
 2998 0263 00       		.byte	0
 2999 0264 00       		.byte	0
 3000 0265 00       		.byte	0
 3001              		.section	.debug_loc,"",%progbits
 3002              	.Ldebug_loc0:
 3003              	.LLST9:
 3004 0000 D8000000 		.4byte	.LFB8-.Ltext0
 3005 0004 DA000000 		.4byte	.LCFI5-.Ltext0
 3006 0008 0200     		.2byte	0x2
 3007 000a 7D       		.byte	0x7d
 3008 000b 00       		.sleb128 0
 3009 000c DA000000 		.4byte	.LCFI5-.Ltext0
 3010 0010 DC010000 		.4byte	.LFE8-.Ltext0
 3011 0014 0200     		.2byte	0x2
 3012 0016 7D       		.byte	0x7d
 3013 0017 10       		.sleb128 16
 3014 0018 00000000 		.4byte	0
 3015 001c 00000000 		.4byte	0
 3016              	.LLST8:
 3017 0020 CC000000 		.4byte	.LFB7-.Ltext0
 3018 0024 CE000000 		.4byte	.LCFI4-.Ltext0
 3019 0028 0200     		.2byte	0x2
 3020 002a 7D       		.byte	0x7d
 3021 002b 00       		.sleb128 0
 3022 002c CE000000 		.4byte	.LCFI4-.Ltext0
 3023 0030 D8000000 		.4byte	.LFE7-.Ltext0
 3024 0034 0200     		.2byte	0x2
 3025 0036 7D       		.byte	0x7d
 3026 0037 08       		.sleb128 8
 3027 0038 00000000 		.4byte	0
 3028 003c 00000000 		.4byte	0
 3029              	.LLST7:
 3030 0040 6C000000 		.4byte	.LFB6-.Ltext0
 3031 0044 6E000000 		.4byte	.LCFI3-.Ltext0
 3032 0048 0200     		.2byte	0x2
 3033 004a 7D       		.byte	0x7d
 3034 004b 00       		.sleb128 0
 3035 004c 6E000000 		.4byte	.LCFI3-.Ltext0
 3036 0050 CC000000 		.4byte	.LFE6-.Ltext0
 3037 0054 0200     		.2byte	0x2
 3038 0056 7D       		.byte	0x7d
 3039 0057 08       		.sleb128 8
 3040 0058 00000000 		.4byte	0
 3041 005c 00000000 		.4byte	0
 3042              	.LLST4:
 3043 0060 58000000 		.4byte	.LFB5-.Ltext0
 3044 0064 5A000000 		.4byte	.LCFI2-.Ltext0
 3045 0068 0200     		.2byte	0x2
 3046 006a 7D       		.byte	0x7d
 3047 006b 00       		.sleb128 0
 3048 006c 5A000000 		.4byte	.LCFI2-.Ltext0
 3049 0070 6C000000 		.4byte	.LFE5-.Ltext0
ARM GAS  C:\Users\Diogo\AppData\Local\Temp\ccRXdVYs.s 			page 60


 3050 0074 0200     		.2byte	0x2
 3051 0076 7D       		.byte	0x7d
 3052 0077 08       		.sleb128 8
 3053 0078 00000000 		.4byte	0
 3054 007c 00000000 		.4byte	0
 3055              	.LLST5:
 3056 0080 58000000 		.4byte	.LVL8-.Ltext0
 3057 0084 60000000 		.4byte	.LVL10-.Ltext0
 3058 0088 0100     		.2byte	0x1
 3059 008a 50       		.byte	0x50
 3060 008b 60000000 		.4byte	.LVL10-.Ltext0
 3061 008f 63000000 		.4byte	.LVL11-1-.Ltext0
 3062 0093 0100     		.2byte	0x1
 3063 0095 51       		.byte	0x51
 3064 0096 63000000 		.4byte	.LVL11-1-.Ltext0
 3065 009a 6C000000 		.4byte	.LFE5-.Ltext0
 3066 009e 0400     		.2byte	0x4
 3067 00a0 F3       		.byte	0xf3
 3068 00a1 01       		.uleb128 0x1
 3069 00a2 50       		.byte	0x50
 3070 00a3 9F       		.byte	0x9f
 3071 00a4 00000000 		.4byte	0
 3072 00a8 00000000 		.4byte	0
 3073              	.LLST6:
 3074 00ac 58000000 		.4byte	.LVL8-.Ltext0
 3075 00b0 5E000000 		.4byte	.LVL9-.Ltext0
 3076 00b4 0100     		.2byte	0x1
 3077 00b6 51       		.byte	0x51
 3078 00b7 5E000000 		.4byte	.LVL9-.Ltext0
 3079 00bb 63000000 		.4byte	.LVL11-1-.Ltext0
 3080 00bf 0100     		.2byte	0x1
 3081 00c1 52       		.byte	0x52
 3082 00c2 63000000 		.4byte	.LVL11-1-.Ltext0
 3083 00c6 6C000000 		.4byte	.LFE5-.Ltext0
 3084 00ca 0400     		.2byte	0x4
 3085 00cc F3       		.byte	0xf3
 3086 00cd 01       		.uleb128 0x1
 3087 00ce 51       		.byte	0x51
 3088 00cf 9F       		.byte	0x9f
 3089 00d0 00000000 		.4byte	0
 3090 00d4 00000000 		.4byte	0
 3091              	.LLST2:
 3092 00d8 34000000 		.4byte	.LFB4-.Ltext0
 3093 00dc 36000000 		.4byte	.LCFI1-.Ltext0
 3094 00e0 0200     		.2byte	0x2
 3095 00e2 7D       		.byte	0x7d
 3096 00e3 00       		.sleb128 0
 3097 00e4 36000000 		.4byte	.LCFI1-.Ltext0
 3098 00e8 58000000 		.4byte	.LFE4-.Ltext0
 3099 00ec 0200     		.2byte	0x2
 3100 00ee 7D       		.byte	0x7d
 3101 00ef 08       		.sleb128 8
 3102 00f0 00000000 		.4byte	0
 3103 00f4 00000000 		.4byte	0
 3104              	.LLST3:
 3105 00f8 34000000 		.4byte	.LVL5-.Ltext0
 3106 00fc 3C000000 		.4byte	.LVL6-.Ltext0
ARM GAS  C:\Users\Diogo\AppData\Local\Temp\ccRXdVYs.s 			page 61


 3107 0100 0100     		.2byte	0x1
 3108 0102 50       		.byte	0x50
 3109 0103 3C000000 		.4byte	.LVL6-.Ltext0
 3110 0107 58000000 		.4byte	.LFE4-.Ltext0
 3111 010b 0400     		.2byte	0x4
 3112 010d F3       		.byte	0xf3
 3113 010e 01       		.uleb128 0x1
 3114 010f 50       		.byte	0x50
 3115 0110 9F       		.byte	0x9f
 3116 0111 00000000 		.4byte	0
 3117 0115 00000000 		.4byte	0
 3118              	.LLST0:
 3119 0119 00000000 		.4byte	.LFB3-.Ltext0
 3120 011d 02000000 		.4byte	.LCFI0-.Ltext0
 3121 0121 0200     		.2byte	0x2
 3122 0123 7D       		.byte	0x7d
 3123 0124 00       		.sleb128 0
 3124 0125 02000000 		.4byte	.LCFI0-.Ltext0
 3125 0129 34000000 		.4byte	.LFE3-.Ltext0
 3126 012d 0200     		.2byte	0x2
 3127 012f 7D       		.byte	0x7d
 3128 0130 10       		.sleb128 16
 3129 0131 00000000 		.4byte	0
 3130 0135 00000000 		.4byte	0
 3131              	.LLST1:
 3132 0139 02000000 		.4byte	.LVL0-.Ltext0
 3133 013d 0A000000 		.4byte	.LVL1-.Ltext0
 3134 0141 0200     		.2byte	0x2
 3135 0143 30       		.byte	0x30
 3136 0144 9F       		.byte	0x9f
 3137 0145 0A000000 		.4byte	.LVL1-.Ltext0
 3138 0149 1F000000 		.4byte	.LVL4-1-.Ltext0
 3139 014d 0100     		.2byte	0x1
 3140 014f 52       		.byte	0x52
 3141 0150 20000000 		.4byte	.LVL4-.Ltext0
 3142 0154 34000000 		.4byte	.LFE3-.Ltext0
 3143 0158 0200     		.2byte	0x2
 3144 015a 30       		.byte	0x30
 3145 015b 9F       		.byte	0x9f
 3146 015c 00000000 		.4byte	0
 3147 0160 00000000 		.4byte	0
 3148              		.section	.debug_aranges,"",%progbits
 3149 0000 1C000000 		.4byte	0x1c
 3150 0004 0200     		.2byte	0x2
 3151 0006 00000000 		.4byte	.Ldebug_info0
 3152 000a 04       		.byte	0x4
 3153 000b 00       		.byte	0
 3154 000c 0000     		.2byte	0
 3155 000e 0000     		.2byte	0
 3156 0010 00000000 		.4byte	.Ltext0
 3157 0014 DC010000 		.4byte	.Letext0-.Ltext0
 3158 0018 00000000 		.4byte	0
 3159 001c 00000000 		.4byte	0
 3160              		.section	.debug_line,"",%progbits
 3161              	.Ldebug_line0:
 3162 0000 BC020000 		.section	.debug_str,"MS",%progbits,1
 3162      02005A02 
ARM GAS  C:\Users\Diogo\AppData\Local\Temp\ccRXdVYs.s 			page 62


 3162      00000201 
 3162      FB0E0D00 
 3162      01010101 
 3163              	.LASF42:
 3164 0000 5F64736F 		.ascii	"_dso_handle\000"
 3164      5F68616E 
 3164      646C6500 
 3165              	.LASF146:
 3166 000c 6D616C6C 		.ascii	"malloc\000"
 3166      6F6300
 3167              	.LASF50:
 3168 0013 5F73697A 		.ascii	"_size\000"
 3168      6500
 3169              	.LASF95:
 3170 0019 5F72616E 		.ascii	"_rand48\000"
 3170      64343800 
 3171              	.LASF74:
 3172 0021 5F656D65 		.ascii	"_emergency\000"
 3172      7267656E 
 3172      637900
 3173              	.LASF135:
 3174 002c 5F5F6572 		.ascii	"__error__\000"
 3174      726F725F 
 3174      5F00
 3175              	.LASF64:
 3176 0036 5F646174 		.ascii	"_data\000"
 3176      6100
 3177              	.LASF115:
 3178 003c 5F776372 		.ascii	"_wcrtomb_state\000"
 3178      746F6D62 
 3178      5F737461 
 3178      746500
 3179              	.LASF116:
 3180 004b 5F776373 		.ascii	"_wcsrtombs_state\000"
 3180      72746F6D 
 3180      62735F73 
 3180      74617465 
 3180      00
 3181              	.LASF9:
 3182 005c 6C6F6E67 		.ascii	"long long unsigned int\000"
 3182      206C6F6E 
 3182      6720756E 
 3182      7369676E 
 3182      65642069 
 3183              	.LASF54:
 3184 0073 5F6C6266 		.ascii	"_lbfsize\000"
 3184      73697A65 
 3184      00
 3185              	.LASF122:
 3186 007c 5F5F6C6F 		.ascii	"__locale_t\000"
 3186      63616C65 
 3186      5F7400
 3187              	.LASF5:
 3188 0087 5F5F696E 		.ascii	"__int8_t\000"
 3188      74385F74 
 3188      00
 3189              	.LASF113:
ARM GAS  C:\Users\Diogo\AppData\Local\Temp\ccRXdVYs.s 			page 63


 3190 0090 5F6D6272 		.ascii	"_mbrtowc_state\000"
 3190      746F7763 
 3190      5F737461 
 3190      746500
 3191              	.LASF138:
 3192 009f 426F6479 		.ascii	"BodyPong\000"
 3192      506F6E67 
 3192      00
 3193              	.LASF140:
 3194 00a8 50696E6F 		.ascii	"PinoutSet\000"
 3194      75745365 
 3194      7400
 3195              	.LASF31:
 3196 00b2 5F5F746D 		.ascii	"__tm_sec\000"
 3196      5F736563 
 3196      00
 3197              	.LASF143:
 3198 00bb 53797343 		.ascii	"SysCtlDelay\000"
 3198      746C4465 
 3198      6C617900 
 3199              	.LASF8:
 3200 00c7 6C6F6E67 		.ascii	"long long int\000"
 3200      206C6F6E 
 3200      6720696E 
 3200      7400
 3201              	.LASF0:
 3202 00d5 7369676E 		.ascii	"signed char\000"
 3202      65642063 
 3202      68617200 
 3203              	.LASF60:
 3204 00e1 5F756275 		.ascii	"_ubuf\000"
 3204      6600
 3205              	.LASF49:
 3206 00e7 5F626173 		.ascii	"_base\000"
 3206      6500
 3207              	.LASF33:
 3208 00ed 5F5F746D 		.ascii	"__tm_hour\000"
 3208      5F686F75 
 3208      7200
 3209              	.LASF89:
 3210 00f7 5F5F7366 		.ascii	"__sf\000"
 3210      00
 3211              	.LASF40:
 3212 00fc 5F6F6E5F 		.ascii	"_on_exit_args\000"
 3212      65786974 
 3212      5F617267 
 3212      7300
 3213              	.LASF55:
 3214 010a 5F636F6F 		.ascii	"_cookie\000"
 3214      6B696500 
 3215              	.LASF88:
 3216 0112 5F5F7367 		.ascii	"__sglue\000"
 3216      6C756500 
 3217              	.LASF4:
 3218 011a 6C6F6E67 		.ascii	"long int\000"
 3218      20696E74 
 3218      00
ARM GAS  C:\Users\Diogo\AppData\Local\Temp\ccRXdVYs.s 			page 64


 3219              	.LASF133:
 3220 0123 63726561 		.ascii	"createThreadStack\000"
 3220      74655468 
 3220      72656164 
 3220      53746163 
 3220      6B00
 3221              	.LASF52:
 3222 0135 5F666C61 		.ascii	"_flags\000"
 3222      677300
 3223              	.LASF44:
 3224 013c 5F69735F 		.ascii	"_is_cxa\000"
 3224      63786100 
 3225              	.LASF70:
 3226 0144 5F737464 		.ascii	"_stdin\000"
 3226      696E00
 3227              	.LASF145:
 3228 014b 73746172 		.ascii	"startSwitcher\000"
 3228      74537769 
 3228      74636865 
 3228      7200
 3229              	.LASF130:
 3230 0159 74657374 		.ascii	"teste\000"
 3230      6500
 3231              	.LASF62:
 3232 015f 5F626C6B 		.ascii	"_blksize\000"
 3232      73697A65 
 3232      00
 3233              	.LASF84:
 3234 0168 5F637674 		.ascii	"_cvtbuf\000"
 3234      62756600 
 3235              	.LASF63:
 3236 0170 5F6F6666 		.ascii	"_offset\000"
 3236      73657400 
 3237              	.LASF114:
 3238 0178 5F6D6273 		.ascii	"_mbsrtowcs_state\000"
 3238      72746F77 
 3238      63735F73 
 3238      74617465 
 3238      00
 3239              	.LASF112:
 3240 0189 5F6D6272 		.ascii	"_mbrlen_state\000"
 3240      6C656E5F 
 3240      73746174 
 3240      6500
 3241              	.LASF144:
 3242 0197 63726561 		.ascii	"createThread\000"
 3242      74655468 
 3242      72656164 
 3242      00
 3243              	.LASF41:
 3244 01a4 5F666E61 		.ascii	"_fnargs\000"
 3244      72677300 
 3245              	.LASF141:
 3246 01ac 55415254 		.ascii	"UARTprintf\000"
 3246      7072696E 
 3246      746600
 3247              	.LASF139:
ARM GAS  C:\Users\Diogo\AppData\Local\Temp\ccRXdVYs.s 			page 65


 3248 01b7 426F6479 		.ascii	"BodyPing\000"
 3248      50696E67 
 3248      00
 3249              	.LASF47:
 3250 01c0 5F666E73 		.ascii	"_fns\000"
 3250      00
 3251              	.LASF6:
 3252 01c5 5F5F7569 		.ascii	"__uint32_t\000"
 3252      6E743332 
 3252      5F7400
 3253              	.LASF27:
 3254 01d0 5F736967 		.ascii	"_sign\000"
 3254      6E00
 3255              	.LASF23:
 3256 01d6 5F666C6F 		.ascii	"_flock_t\000"
 3256      636B5F74 
 3256      00
 3257              	.LASF72:
 3258 01df 5F737464 		.ascii	"_stderr\000"
 3258      65727200 
 3259              	.LASF29:
 3260 01e7 5F426967 		.ascii	"_Bigint\000"
 3260      696E7400 
 3261              	.LASF103:
 3262 01ef 5F67616D 		.ascii	"_gamma_signgam\000"
 3262      6D615F73 
 3262      69676E67 
 3262      616D00
 3263              	.LASF56:
 3264 01fe 5F726561 		.ascii	"_read\000"
 3264      6400
 3265              	.LASF80:
 3266 0204 5F726573 		.ascii	"_result_k\000"
 3266      756C745F 
 3266      6B00
 3267              	.LASF149:
 3268 020e 68656C6C 		.ascii	"hello.c\000"
 3268      6F2E6300 
 3269              	.LASF30:
 3270 0216 5F5F746D 		.ascii	"__tm\000"
 3270      00
 3271              	.LASF10:
 3272 021b 756E7369 		.ascii	"unsigned int\000"
 3272      676E6564 
 3272      20696E74 
 3272      00
 3273              	.LASF19:
 3274 0228 5F5F7763 		.ascii	"__wchb\000"
 3274      686200
 3275              	.LASF71:
 3276 022f 5F737464 		.ascii	"_stdout\000"
 3276      6F757400 
 3277              	.LASF83:
 3278 0237 5F637674 		.ascii	"_cvtlen\000"
 3278      6C656E00 
 3279              	.LASF7:
 3280 023f 6C6F6E67 		.ascii	"long unsigned int\000"
ARM GAS  C:\Users\Diogo\AppData\Local\Temp\ccRXdVYs.s 			page 66


 3280      20756E73 
 3280      69676E65 
 3280      6420696E 
 3280      7400
 3281              	.LASF53:
 3282 0251 5F66696C 		.ascii	"_file\000"
 3282      6500
 3283              	.LASF129:
 3284 0257 675F7569 		.ascii	"g_ui32SysClock\000"
 3284      33325379 
 3284      73436C6F 
 3284      636B00
 3285              	.LASF93:
 3286 0266 5F6E696F 		.ascii	"_niobs\000"
 3286      627300
 3287              	.LASF3:
 3288 026d 73686F72 		.ascii	"short unsigned int\000"
 3288      7420756E 
 3288      7369676E 
 3288      65642069 
 3288      6E7400
 3289              	.LASF86:
 3290 0280 5F617465 		.ascii	"_atexit0\000"
 3290      78697430 
 3290      00
 3291              	.LASF110:
 3292 0289 5F736967 		.ascii	"_signal_buf\000"
 3292      6E616C5F 
 3292      62756600 
 3293              	.LASF101:
 3294 0295 5F617363 		.ascii	"_asctime_buf\000"
 3294      74696D65 
 3294      5F627566 
 3294      00
 3295              	.LASF79:
 3296 02a2 5F726573 		.ascii	"_result\000"
 3296      756C7400 
 3297              	.LASF18:
 3298 02aa 5F5F7763 		.ascii	"__wch\000"
 3298      6800
 3299              	.LASF14:
 3300 02b0 5F4C4F43 		.ascii	"_LOCK_T\000"
 3300      4B5F5400 
 3301              	.LASF17:
 3302 02b8 77696E74 		.ascii	"wint_t\000"
 3302      5F7400
 3303              	.LASF65:
 3304 02bf 5F6C6F63 		.ascii	"_lock\000"
 3304      6B00
 3305              	.LASF67:
 3306 02c5 5F666C61 		.ascii	"_flags2\000"
 3306      67733200 
 3307              	.LASF57:
 3308 02cd 5F777269 		.ascii	"_write\000"
 3308      746500
 3309              	.LASF36:
 3310 02d4 5F5F746D 		.ascii	"__tm_year\000"
ARM GAS  C:\Users\Diogo\AppData\Local\Temp\ccRXdVYs.s 			page 67


 3310      5F796561 
 3310      7200
 3311              	.LASF148:
 3312 02de 474E5520 		.ascii	"GNU C11 7.3.1 20180622 (release) [ARM/embedded-7-br"
 3312      43313120 
 3312      372E332E 
 3312      31203230 
 3312      31383036 
 3313 0311 616E6368 		.ascii	"anch revision 261907] -mcpu=cortex-m4 -mthumb -mapc"
 3313      20726576 
 3313      6973696F 
 3313      6E203236 
 3313      31393037 
 3314 0344 732D6672 		.ascii	"s-frame -mthumb-interwork -gdwarf-2 -O\000"
 3314      616D6520 
 3314      2D6D7468 
 3314      756D622D 
 3314      696E7465 
 3315              	.LASF127:
 3316 036b 54687265 		.ascii	"Thread1Stack\000"
 3316      61643153 
 3316      7461636B 
 3316      00
 3317              	.LASF13:
 3318 0378 6C6F6E67 		.ascii	"long double\000"
 3318      20646F75 
 3318      626C6500 
 3319              	.LASF118:
 3320 0384 5F6E6578 		.ascii	"_nextf\000"
 3320      746600
 3321              	.LASF35:
 3322 038b 5F5F746D 		.ascii	"__tm_mon\000"
 3322      5F6D6F6E 
 3322      00
 3323              	.LASF137:
 3324 0394 75693332 		.ascii	"ui32Line\000"
 3324      4C696E65 
 3324      00
 3325              	.LASF45:
 3326 039d 5F617465 		.ascii	"_atexit\000"
 3326      78697400 
 3327              	.LASF125:
 3328 03a5 7375626F 		.ascii	"suboptarg\000"
 3328      70746172 
 3328      6700
 3329              	.LASF77:
 3330 03af 5F5F7364 		.ascii	"__sdidinit\000"
 3330      6964696E 
 3330      697400
 3331              	.LASF15:
 3332 03ba 5F6F6666 		.ascii	"_off_t\000"
 3332      5F7400
 3333              	.LASF82:
 3334 03c1 5F667265 		.ascii	"_freelist\000"
 3334      656C6973 
 3334      7400
 3335              	.LASF108:
ARM GAS  C:\Users\Diogo\AppData\Local\Temp\ccRXdVYs.s 			page 68


 3336 03cb 5F776374 		.ascii	"_wctomb_state\000"
 3336      6F6D625F 
 3336      73746174 
 3336      6500
 3337              	.LASF1:
 3338 03d9 756E7369 		.ascii	"unsigned char\000"
 3338      676E6564 
 3338      20636861 
 3338      7200
 3339              	.LASF85:
 3340 03e7 5F6E6577 		.ascii	"_new\000"
 3340      00
 3341              	.LASF117:
 3342 03ec 5F685F65 		.ascii	"_h_errno\000"
 3342      72726E6F 
 3342      00
 3343              	.LASF2:
 3344 03f5 73686F72 		.ascii	"short int\000"
 3344      7420696E 
 3344      7400
 3345              	.LASF38:
 3346 03ff 5F5F746D 		.ascii	"__tm_yday\000"
 3346      5F796461 
 3346      7900
 3347              	.LASF48:
 3348 0409 5F5F7362 		.ascii	"__sbuf\000"
 3348      756600
 3349              	.LASF94:
 3350 0410 5F696F62 		.ascii	"_iobs\000"
 3350      7300
 3351              	.LASF91:
 3352 0416 5F5F4649 		.ascii	"__FILE\000"
 3352      4C4500
 3353              	.LASF22:
 3354 041d 5F6D6273 		.ascii	"_mbstate_t\000"
 3354      74617465 
 3354      5F7400
 3355              	.LASF51:
 3356 0428 5F5F7346 		.ascii	"__sFILE\000"
 3356      494C4500 
 3357              	.LASF66:
 3358 0430 5F6D6273 		.ascii	"_mbstate\000"
 3358      74617465 
 3358      00
 3359              	.LASF104:
 3360 0439 5F72616E 		.ascii	"_rand_next\000"
 3360      645F6E65 
 3360      787400
 3361              	.LASF106:
 3362 0444 5F6D626C 		.ascii	"_mblen_state\000"
 3362      656E5F73 
 3362      74617465 
 3362      00
 3363              	.LASF73:
 3364 0451 5F696E63 		.ascii	"_inc\000"
 3364      00
 3365              	.LASF46:
ARM GAS  C:\Users\Diogo\AppData\Local\Temp\ccRXdVYs.s 			page 69


 3366 0456 5F696E64 		.ascii	"_ind\000"
 3366      00
 3367              	.LASF76:
 3368 045b 5F6C6F63 		.ascii	"_locale\000"
 3368      616C6500 
 3369              	.LASF78:
 3370 0463 5F5F636C 		.ascii	"__cleanup\000"
 3370      65616E75 
 3370      7000
 3371              	.LASF75:
 3372 046d 5F756E73 		.ascii	"_unspecified_locale_info\000"
 3372      70656369 
 3372      66696564 
 3372      5F6C6F63 
 3372      616C655F 
 3373              	.LASF26:
 3374 0486 5F6D6178 		.ascii	"_maxwds\000"
 3374      77647300 
 3375              	.LASF68:
 3376 048e 5F726565 		.ascii	"_reent\000"
 3376      6E7400
 3377              	.LASF96:
 3378 0495 5F736565 		.ascii	"_seed\000"
 3378      6400
 3379              	.LASF20:
 3380 049b 5F5F636F 		.ascii	"__count\000"
 3380      756E7400 
 3381              	.LASF121:
 3382 04a3 5F5F6C6F 		.ascii	"__lock\000"
 3382      636B00
 3383              	.LASF12:
 3384 04aa 75696E74 		.ascii	"uint32_t\000"
 3384      33325F74 
 3384      00
 3385              	.LASF58:
 3386 04b3 5F736565 		.ascii	"_seek\000"
 3386      6B00
 3387              	.LASF123:
 3388 04b9 5F696D70 		.ascii	"_impure_ptr\000"
 3388      7572655F 
 3388      70747200 
 3389              	.LASF16:
 3390 04c5 5F66706F 		.ascii	"_fpos_t\000"
 3390      735F7400 
 3391              	.LASF69:
 3392 04cd 5F657272 		.ascii	"_errno\000"
 3392      6E6F00
 3393              	.LASF90:
 3394 04d4 63686172 		.ascii	"char\000"
 3394      00
 3395              	.LASF32:
 3396 04d9 5F5F746D 		.ascii	"__tm_min\000"
 3396      5F6D696E 
 3396      00
 3397              	.LASF142:
 3398 04e2 4C454457 		.ascii	"LEDWrite\000"
 3398      72697465 
ARM GAS  C:\Users\Diogo\AppData\Local\Temp\ccRXdVYs.s 			page 70


 3398      00
 3399              	.LASF97:
 3400 04eb 5F6D756C 		.ascii	"_mult\000"
 3400      7400
 3401              	.LASF25:
 3402 04f1 5F6E6578 		.ascii	"_next\000"
 3402      7400
 3403              	.LASF100:
 3404 04f7 5F737472 		.ascii	"_strtok_last\000"
 3404      746F6B5F 
 3404      6C617374 
 3404      00
 3405              	.LASF21:
 3406 0504 5F5F7661 		.ascii	"__value\000"
 3406      6C756500 
 3407              	.LASF43:
 3408 050c 5F666E74 		.ascii	"_fntypes\000"
 3408      79706573 
 3408      00
 3409              	.LASF98:
 3410 0515 5F616464 		.ascii	"_add\000"
 3410      00
 3411              	.LASF24:
 3412 051a 5F5F554C 		.ascii	"__ULong\000"
 3412      6F6E6700 
 3413              	.LASF11:
 3414 0522 696E7438 		.ascii	"int8_t\000"
 3414      5F7400
 3415              	.LASF111:
 3416 0529 5F676574 		.ascii	"_getdate_err\000"
 3416      64617465 
 3416      5F657272 
 3416      00
 3417              	.LASF128:
 3418 0536 54687265 		.ascii	"Thread2Stack\000"
 3418      61643253 
 3418      7461636B 
 3418      00
 3419              	.LASF124:
 3420 0543 5F676C6F 		.ascii	"_global_impure_ptr\000"
 3420      62616C5F 
 3420      696D7075 
 3420      72655F70 
 3420      747200
 3421              	.LASF99:
 3422 0556 5F756E75 		.ascii	"_unused_rand\000"
 3422      7365645F 
 3422      72616E64 
 3422      00
 3423              	.LASF150:
 3424 0563 443A5C55 		.ascii	"D:\\UTFPR\\SISTEMAS OPERACIONAIS\\SO-threads\000"
 3424      54465052 
 3424      5C534953 
 3424      54454D41 
 3424      53204F50 
 3425              	.LASF28:
 3426 058d 5F776473 		.ascii	"_wds\000"
ARM GAS  C:\Users\Diogo\AppData\Local\Temp\ccRXdVYs.s 			page 71


 3426      00
 3427              	.LASF37:
 3428 0592 5F5F746D 		.ascii	"__tm_wday\000"
 3428      5F776461 
 3428      7900
 3429              	.LASF92:
 3430 059c 5F676C75 		.ascii	"_glue\000"
 3430      6500
 3431              	.LASF147:
 3432 05a2 55415254 		.ascii	"UARTStdioConfig\000"
 3432      53746469 
 3432      6F436F6E 
 3432      66696700 
 3433              	.LASF136:
 3434 05b2 70634669 		.ascii	"pcFilename\000"
 3434      6C656E61 
 3434      6D6500
 3435              	.LASF119:
 3436 05bd 5F6E6D61 		.ascii	"_nmalloc\000"
 3436      6C6C6F63 
 3436      00
 3437              	.LASF109:
 3438 05c6 5F6C3634 		.ascii	"_l64a_buf\000"
 3438      615F6275 
 3438      6600
 3439              	.LASF131:
 3440 05d0 636F6E74 		.ascii	"cont\000"
 3440      00
 3441              	.LASF87:
 3442 05d5 5F736967 		.ascii	"_sig_func\000"
 3442      5F66756E 
 3442      6300
 3443              	.LASF134:
 3444 05df 436F6E66 		.ascii	"ConfigureUART\000"
 3444      69677572 
 3444      65554152 
 3444      5400
 3445              	.LASF61:
 3446 05ed 5F6E6275 		.ascii	"_nbuf\000"
 3446      6600
 3447              	.LASF120:
 3448 05f3 5F756E75 		.ascii	"_unused\000"
 3448      73656400 
 3449              	.LASF39:
 3450 05fb 5F5F746D 		.ascii	"__tm_isdst\000"
 3450      5F697364 
 3450      737400
 3451              	.LASF102:
 3452 0606 5F6C6F63 		.ascii	"_localtime_buf\000"
 3452      616C7469 
 3452      6D655F62 
 3452      756600
 3453              	.LASF59:
 3454 0615 5F636C6F 		.ascii	"_close\000"
 3454      736500
 3455              	.LASF105:
 3456 061c 5F723438 		.ascii	"_r48\000"
ARM GAS  C:\Users\Diogo\AppData\Local\Temp\ccRXdVYs.s 			page 72


 3456      00
 3457              	.LASF107:
 3458 0621 5F6D6274 		.ascii	"_mbtowc_state\000"
 3458      6F77635F 
 3458      73746174 
 3458      6500
 3459              	.LASF81:
 3460 062f 5F703573 		.ascii	"_p5s\000"
 3460      00
 3461              	.LASF132:
 3462 0634 6D61696E 		.ascii	"main\000"
 3462      00
 3463              	.LASF126:
 3464 0639 70696E67 		.ascii	"pingpong\000"
 3464      706F6E67 
 3464      00
 3465              	.LASF34:
 3466 0642 5F5F746D 		.ascii	"__tm_mday\000"
 3466      5F6D6461 
 3466      7900
 3467              		.ident	"GCC: (GNU Tools for Arm Embedded Processors 7-2018-q2-update) 7.3.1 20180622 (release) [AR
ARM GAS  C:\Users\Diogo\AppData\Local\Temp\ccRXdVYs.s 			page 73


DEFINED SYMBOLS
                            *ABS*:00000000 hello.c
C:\Users\Diogo\AppData\Local\Temp\ccRXdVYs.s:15     .text:00000000 $t
C:\Users\Diogo\AppData\Local\Temp\ccRXdVYs.s:22     .text:00000000 BodyPing
C:\Users\Diogo\AppData\Local\Temp\ccRXdVYs.s:75     .text:00000028 $d
C:\Users\Diogo\AppData\Local\Temp\ccRXdVYs.s:81     .text:00000034 $t
C:\Users\Diogo\AppData\Local\Temp\ccRXdVYs.s:88     .text:00000034 BodyPong
C:\Users\Diogo\AppData\Local\Temp\ccRXdVYs.s:124    .text:00000050 $d
C:\Users\Diogo\AppData\Local\Temp\ccRXdVYs.s:129    .text:00000058 $t
C:\Users\Diogo\AppData\Local\Temp\ccRXdVYs.s:136    .text:00000058 __error__
C:\Users\Diogo\AppData\Local\Temp\ccRXdVYs.s:162    .text:00000068 $d
C:\Users\Diogo\AppData\Local\Temp\ccRXdVYs.s:166    .text:0000006c $t
C:\Users\Diogo\AppData\Local\Temp\ccRXdVYs.s:173    .text:0000006c ConfigureUART
C:\Users\Diogo\AppData\Local\Temp\ccRXdVYs.s:236    .text:000000bc $d
                            *COM*:00000004 g_ui32SysClock
C:\Users\Diogo\AppData\Local\Temp\ccRXdVYs.s:243    .text:000000cc $t
C:\Users\Diogo\AppData\Local\Temp\ccRXdVYs.s:250    .text:000000cc createThreadStack
C:\Users\Diogo\AppData\Local\Temp\ccRXdVYs.s:277    .text:000000d8 main
C:\Users\Diogo\AppData\Local\Temp\ccRXdVYs.s:411    .text:00000198 $d
                            *COM*:00000100 Thread1Stack
                            *COM*:00000100 Thread2Stack
C:\Users\Diogo\AppData\Local\Temp\ccRXdVYs.s:439    .bss:00000000 pingpong
C:\Users\Diogo\AppData\Local\Temp\ccRXdVYs.s:440    .bss:00000000 $d
C:\Users\Diogo\AppData\Local\Temp\ccRXdVYs.s:442    .rodata.str1.4:00000000 $d

UNDEFINED SYMBOLS
UARTprintf
UARTStdioConfig
malloc
PinoutSet
LEDWrite
SysCtlDelay
createThread
startSwitcher
