ARM GAS  C:\Users\Diogo\AppData\Local\Temp\ccJhW7HY.s 			page 1


   1              		.cpu cortex-m4
   2              		.eabi_attribute 20, 1
   3              		.eabi_attribute 21, 1
   4              		.eabi_attribute 23, 3
   5              		.eabi_attribute 24, 1
   6              		.eabi_attribute 25, 1
   7              		.eabi_attribute 26, 1
   8              		.eabi_attribute 30, 1
   9              		.eabi_attribute 34, 1
  10              		.eabi_attribute 18, 4
  11              		.file	"hello.c"
  12              		.text
  13              	.Ltext0:
  14              		.cfi_sections	.debug_frame
  15              		.align	1
  16              		.global	BodyTask
  17              		.syntax unified
  18              		.thumb
  19              		.thumb_func
  20              		.fpu softvfp
  21              		.type	BodyTask, %function
  22              	BodyTask:
  23              	.LFB3:
  24              		.file 1 "Threads/pingpong-tasks2.c"
   1:Threads/pingpong-tasks2.c **** // PingPongOS - PingPong Operating System
   2:Threads/pingpong-tasks2.c **** // Prof. Carlos A. Maziero, DINF UFPR
   3:Threads/pingpong-tasks2.c **** // Versão 1.1 -- Julho de 2016
   4:Threads/pingpong-tasks2.c **** 
   5:Threads/pingpong-tasks2.c **** // Teste da gestão básica de tarefas
   6:Threads/pingpong-tasks2.c **** 
   7:Threads/pingpong-tasks2.c **** #include <stdio.h>
   8:Threads/pingpong-tasks2.c **** #include <stdlib.h>
   9:Threads/pingpong-tasks2.c **** #include <stdint.h>
  10:Threads/pingpong-tasks2.c **** #include "thread.h"
  11:Threads/pingpong-tasks2.c **** 
  12:Threads/pingpong-tasks2.c **** #define MAXTASK 20
  13:Threads/pingpong-tasks2.c **** 
  14:Threads/pingpong-tasks2.c **** uint32_t activeThread = 0;
  15:Threads/pingpong-tasks2.c **** 
  16:Threads/pingpong-tasks2.c **** // corpo das threads
  17:Threads/pingpong-tasks2.c **** void BodyTask(void *arg)
  18:Threads/pingpong-tasks2.c **** {
  25              		.loc 1 18 0
  26              		.cfi_startproc
  27              		@ args = 0, pretend = 0, frame = 0
  28              		@ frame_needed = 0, uses_anonymous_args = 0
  29              	.LVL0:
  30 0000 F8B5     		push	{r3, r4, r5, r6, r7, lr}
  31              	.LCFI0:
  32              		.cfi_def_cfa_offset 24
  33              		.cfi_offset 3, -24
  34              		.cfi_offset 4, -20
  35              		.cfi_offset 5, -16
  36              		.cfi_offset 6, -12
  37              		.cfi_offset 7, -8
  38              		.cfi_offset 14, -4
  39              	.LVL1:
ARM GAS  C:\Users\Diogo\AppData\Local\Temp\ccJhW7HY.s 			page 2


  19:Threads/pingpong-tasks2.c **** 
  20:Threads/pingpong-tasks2.c ****   uint8_t status = 0;
  40              		.loc 1 20 0
  41 0002 0025     		movs	r5, #0
  21:Threads/pingpong-tasks2.c ****   while (1)
  22:Threads/pingpong-tasks2.c ****   {
  23:Threads/pingpong-tasks2.c ****     if (activeThread == getCurrentThread() && status == 0)
  42              		.loc 1 23 0
  43 0004 154C     		ldr	r4, .L7
  24:Threads/pingpong-tasks2.c ****     {
  25:Threads/pingpong-tasks2.c ****       UARTprintf("Iniciei  tarefa %i\n", getCurrentThread());
  26:Threads/pingpong-tasks2.c ****       activeThread++;
  27:Threads/pingpong-tasks2.c ****       status = 1;
  28:Threads/pingpong-tasks2.c ****     }
  29:Threads/pingpong-tasks2.c ****     if (activeThread == getCurrentThread() && status == 1)
  30:Threads/pingpong-tasks2.c ****     {
  31:Threads/pingpong-tasks2.c ****       UARTprintf("Ence&& status == 0 \n(", getCurrentThread());
  44              		.loc 1 31 0
  45 0006 164E     		ldr	r6, .L7+4
  25:Threads/pingpong-tasks2.c ****       activeThread++;
  46              		.loc 1 25 0
  47 0008 164F     		ldr	r7, .L7+8
  48 000a 1AE0     		b	.L2
  49              	.LVL2:
  50              	.L6:
  23:Threads/pingpong-tasks2.c ****     {
  51              		.loc 1 23 0 discriminator 1
  52 000c F5B9     		cbnz	r5, .L3
  25:Threads/pingpong-tasks2.c ****       activeThread++;
  53              		.loc 1 25 0
  54 000e FFF7FEFF 		bl	getCurrentThread
  55              	.LVL3:
  56 0012 0146     		mov	r1, r0
  57 0014 3846     		mov	r0, r7
  58 0016 FFF7FEFF 		bl	UARTprintf
  59              	.LVL4:
  26:Threads/pingpong-tasks2.c ****       status = 1;
  60              		.loc 1 26 0
  61 001a 2368     		ldr	r3, [r4]
  62 001c 0133     		adds	r3, r3, #1
  63 001e 2360     		str	r3, [r4]
  64              	.LVL5:
  29:Threads/pingpong-tasks2.c ****     {
  65              		.loc 1 29 0
  66 0020 FFF7FEFF 		bl	getCurrentThread
  67              	.LVL6:
  68 0024 2368     		ldr	r3, [r4]
  69 0026 9842     		cmp	r0, r3
  70 0028 01D0     		beq	.L4
  27:Threads/pingpong-tasks2.c ****     }
  71              		.loc 1 27 0
  72 002a 0125     		movs	r5, #1
  73 002c 09E0     		b	.L2
  74              	.LVL7:
  75              	.L4:
  76              		.loc 1 31 0
  77 002e FFF7FEFF 		bl	getCurrentThread
ARM GAS  C:\Users\Diogo\AppData\Local\Temp\ccJhW7HY.s 			page 3


  78              	.LVL8:
  79 0032 0146     		mov	r1, r0
  80 0034 3046     		mov	r0, r6
  81 0036 FFF7FEFF 		bl	UARTprintf
  82              	.LVL9:
  32:Threads/pingpong-tasks2.c ****       activeThread--;
  83              		.loc 1 32 0
  84 003a 2368     		ldr	r3, [r4]
  85 003c 013B     		subs	r3, r3, #1
  86 003e 2360     		str	r3, [r4]
  87              	.LVL10:
  33:Threads/pingpong-tasks2.c ****       status = 2;
  88              		.loc 1 33 0
  89 0040 0225     		movs	r5, #2
  90              	.LVL11:
  91              	.L2:
  23:Threads/pingpong-tasks2.c ****     {
  92              		.loc 1 23 0
  93 0042 FFF7FEFF 		bl	getCurrentThread
  94              	.LVL12:
  95 0046 2368     		ldr	r3, [r4]
  96 0048 9842     		cmp	r0, r3
  97 004a DFD0     		beq	.L6
  98              	.L3:
  29:Threads/pingpong-tasks2.c ****     {
  99              		.loc 1 29 0
 100 004c FFF7FEFF 		bl	getCurrentThread
 101              	.LVL13:
 102 0050 2368     		ldr	r3, [r4]
 103 0052 9842     		cmp	r0, r3
 104 0054 F5D1     		bne	.L2
  29:Threads/pingpong-tasks2.c ****     {
 105              		.loc 1 29 0 is_stmt 0 discriminator 1
 106 0056 012D     		cmp	r5, #1
 107 0058 F3D1     		bne	.L2
 108 005a E8E7     		b	.L4
 109              	.L8:
 110              		.align	2
 111              	.L7:
 112 005c 00000000 		.word	.LANCHOR0
 113 0060 14000000 		.word	.LC1
 114 0064 00000000 		.word	.LC0
 115              		.cfi_endproc
 116              	.LFE3:
 117              		.size	BodyTask, .-BodyTask
 118              		.align	1
 119              		.global	__error__
 120              		.syntax unified
 121              		.thumb
 122              		.thumb_func
 123              		.fpu softvfp
 124              		.type	__error__, %function
 125              	__error__:
 126              	.LFB4:
 127              		.file 2 "hello.c"
   1:hello.c       **** //*****************************************************************************
   2:hello.c       **** //
ARM GAS  C:\Users\Diogo\AppData\Local\Temp\ccJhW7HY.s 			page 4


   3:hello.c       **** // hello.c - Simple hello world example.
   4:hello.c       **** //
   5:hello.c       **** // Copyright (c) 2013-2014 Texas Instruments Incorporated.  All rights reserved.
   6:hello.c       **** // Software License Agreement
   7:hello.c       **** //
   8:hello.c       **** // Texas Instruments (TI) is supplying this software for use solely and
   9:hello.c       **** // exclusively on TI's microcontroller products. The software is owned by
  10:hello.c       **** // TI and/or its suppliers, and is protected under applicable copyright
  11:hello.c       **** // laws. You may not combine this software with "viral" open-source
  12:hello.c       **** // software in order to form a larger program.
  13:hello.c       **** //
  14:hello.c       **** // THIS SOFTWARE IS PROVIDED "AS IS" AND WITH ALL FAULTS.
  15:hello.c       **** // NO WARRANTIES, WHETHER EXPRESS, IMPLIED OR STATUTORY, INCLUDING, BUT
  16:hello.c       **** // NOT LIMITED TO, IMPLIED WARRANTIES OF MERCHANTABILITY AND FITNESS FOR
  17:hello.c       **** // A PARTICULAR PURPOSE APPLY TO THIS SOFTWARE. TI SHALL NOT, UNDER ANY
  18:hello.c       **** // CIRCUMSTANCES, BE LIABLE FOR SPECIAL, INCIDENTAL, OR CONSEQUENTIAL
  19:hello.c       **** // DAMAGES, FOR ANY REASON WHATSOEVER.
  20:hello.c       **** //
  21:hello.c       **** // This is part of revision 2.1.0.12573 of the EK-TM4C1294XL Firmware Package.
  22:hello.c       **** //
  23:hello.c       **** //*****************************************************************************
  24:hello.c       **** 
  25:hello.c       **** #include <stdint.h>
  26:hello.c       **** #include <stdbool.h>
  27:hello.c       **** #include "hw_memmap.h"
  28:hello.c       **** #include "hw_types.h"
  29:hello.c       **** #include "driverlib/gpio.h"
  30:hello.c       **** #include "drivers/pinout.h"
  31:hello.c       **** #include "driverlib/pin_map.h"
  32:hello.c       **** #include "driverlib/rom.h"
  33:hello.c       **** #include "driverlib/rom_map.h"
  34:hello.c       **** #include "driverlib/sysctl.h"
  35:hello.c       **** #include "driverlib/uart.h"
  36:hello.c       **** #include "utils/uartstdio.h"
  37:hello.c       **** #include "Threads/thread.h"
  38:hello.c       **** #include "Threads/pingpong-tasks1.h"
  39:hello.c       **** #include "Threads/pingpong-tasks2.c"
  40:hello.c       **** #include "debug.h"
  41:hello.c       **** 
  42:hello.c       **** #include <stdlib.h>
  43:hello.c       **** 
  44:hello.c       **** int testafila(void);
  45:hello.c       **** #define STACK_SIZE 64
  46:hello.c       **** #define MAXTASK 20
  47:hello.c       **** 
  48:hello.c       **** uint32_t *createThreadStack(void);
  49:hello.c       **** 
  50:hello.c       **** uint32_t Thread1Stack[STACK_SIZE];
  51:hello.c       **** uint32_t Thread2Stack[STACK_SIZE];
  52:hello.c       **** //uint32_t Thread3Stack[STACK_SIZE];
  53:hello.c       **** 
  54:hello.c       **** ThreadControlBlock task[MAXTASK + 1];
  55:hello.c       **** uint32_t ThreadStacks[MAXTASK][STACK_SIZE];
  56:hello.c       **** 
  57:hello.c       **** //*****************************************************************************
  58:hello.c       **** //
  59:hello.c       **** //! \addtogroup example_list
ARM GAS  C:\Users\Diogo\AppData\Local\Temp\ccJhW7HY.s 			page 5


  60:hello.c       **** //! <h1>Hello World (hello)</h1>
  61:hello.c       **** //!
  62:hello.c       **** //! A very simple ``hello world'' example.  It simply displays ``Hello World!''
  63:hello.c       **** //! on the UART and is a starting point for more complicated applications.
  64:hello.c       **** //!
  65:hello.c       **** //! Open a terminal with 115,200 8-N-1 to see the output for this demo.
  66:hello.c       **** //
  67:hello.c       **** //*****************************************************************************
  68:hello.c       **** 
  69:hello.c       **** //*****************************************************************************
  70:hello.c       **** //
  71:hello.c       **** // System clock rate in Hz.
  72:hello.c       **** //
  73:hello.c       **** //*****************************************************************************
  74:hello.c       **** uint32_t g_ui32SysClock;
  75:hello.c       **** 
  76:hello.c       **** //*****************************************************************************
  77:hello.c       **** //
  78:hello.c       **** // The error routine that is called if the driver library encounters an error.
  79:hello.c       **** //
  80:hello.c       **** //*****************************************************************************
  81:hello.c       **** #ifdef DEBUG
  82:hello.c       **** void __error__(char *pcFilename, uint32_t ui32Line)
  83:hello.c       **** {
 128              		.loc 2 83 0 is_stmt 1
 129              		.cfi_startproc
 130              		@ args = 0, pretend = 0, frame = 0
 131              		@ frame_needed = 0, uses_anonymous_args = 0
 132              	.LVL14:
 133 0068 08B5     		push	{r3, lr}
 134              	.LCFI1:
 135              		.cfi_def_cfa_offset 8
 136              		.cfi_offset 3, -8
 137              		.cfi_offset 14, -4
  84:hello.c       ****   UARTprintf("%s %d\n", pcFilename, ui32Line);
 138              		.loc 2 84 0
 139 006a 0A46     		mov	r2, r1
 140 006c 0146     		mov	r1, r0
 141              	.LVL15:
 142 006e 0248     		ldr	r0, .L10
 143              	.LVL16:
 144 0070 FFF7FEFF 		bl	UARTprintf
 145              	.LVL17:
  85:hello.c       **** }
 146              		.loc 2 85 0
 147 0074 08BD     		pop	{r3, pc}
 148              	.L11:
 149 0076 00BF     		.align	2
 150              	.L10:
 151 0078 2C000000 		.word	.LC2
 152              		.cfi_endproc
 153              	.LFE4:
 154              		.size	__error__, .-__error__
 155              		.align	1
 156              		.global	ConfigureUART
 157              		.syntax unified
 158              		.thumb
ARM GAS  C:\Users\Diogo\AppData\Local\Temp\ccJhW7HY.s 			page 6


 159              		.thumb_func
 160              		.fpu softvfp
 161              		.type	ConfigureUART, %function
 162              	ConfigureUART:
 163              	.LFB5:
  86:hello.c       **** #endif
  87:hello.c       **** 
  88:hello.c       **** //*****************************************************************************
  89:hello.c       **** //
  90:hello.c       **** // Configure the UART and its pins.  This must be called before UARTprintf().
  91:hello.c       **** //
  92:hello.c       **** //*****************************************************************************
  93:hello.c       **** void ConfigureUART(void)
  94:hello.c       **** {
 164              		.loc 2 94 0
 165              		.cfi_startproc
 166              		@ args = 0, pretend = 0, frame = 0
 167              		@ frame_needed = 0, uses_anonymous_args = 0
 168 007c 10B5     		push	{r4, lr}
 169              	.LCFI2:
 170              		.cfi_def_cfa_offset 8
 171              		.cfi_offset 4, -8
 172              		.cfi_offset 14, -4
  95:hello.c       ****   //
  96:hello.c       ****   // Enable the GPIO Peripheral used by the UART.
  97:hello.c       ****   //
  98:hello.c       ****   ROM_SysCtlPeripheralEnable(SYSCTL_PERIPH_GPIOA);
 173              		.loc 2 98 0
 174 007e 134C     		ldr	r4, .L13
 175 0080 2368     		ldr	r3, [r4]
 176 0082 9B69     		ldr	r3, [r3, #24]
 177 0084 1248     		ldr	r0, .L13+4
 178 0086 9847     		blx	r3
 179              	.LVL18:
  99:hello.c       **** 
 100:hello.c       ****   //
 101:hello.c       ****   // Enable UART0
 102:hello.c       ****   //
 103:hello.c       ****   ROM_SysCtlPeripheralEnable(SYSCTL_PERIPH_UART0);
 180              		.loc 2 103 0
 181 0088 2368     		ldr	r3, [r4]
 182 008a 9B69     		ldr	r3, [r3, #24]
 183 008c 1148     		ldr	r0, .L13+8
 184 008e 9847     		blx	r3
 185              	.LVL19:
 104:hello.c       **** 
 105:hello.c       ****   //
 106:hello.c       ****   // Configure GPIO Pins for UART mode.
 107:hello.c       ****   //
 108:hello.c       ****   ROM_GPIOPinConfigure(GPIO_PA0_U0RX);
 186              		.loc 2 108 0
 187 0090 243C     		subs	r4, r4, #36
 188 0092 2368     		ldr	r3, [r4]
 189 0094 9B6E     		ldr	r3, [r3, #104]
 190 0096 0120     		movs	r0, #1
 191 0098 9847     		blx	r3
 192              	.LVL20:
ARM GAS  C:\Users\Diogo\AppData\Local\Temp\ccJhW7HY.s 			page 7


 109:hello.c       ****   ROM_GPIOPinConfigure(GPIO_PA1_U0TX);
 193              		.loc 2 109 0
 194 009a 2368     		ldr	r3, [r4]
 195 009c 9B6E     		ldr	r3, [r3, #104]
 196 009e 40F20140 		movw	r0, #1025
 197 00a2 9847     		blx	r3
 198              	.LVL21:
 110:hello.c       ****   ROM_GPIOPinTypeUART(GPIO_PORTA_BASE, GPIO_PIN_0 | GPIO_PIN_1);
 199              		.loc 2 110 0
 200 00a4 2368     		ldr	r3, [r4]
 201 00a6 5B6D     		ldr	r3, [r3, #84]
 202 00a8 0321     		movs	r1, #3
 203 00aa 4FF04020 		mov	r0, #1073758208
 204 00ae 9847     		blx	r3
 205              	.LVL22:
 111:hello.c       ****   ROM_GPIOPinTypeUART(GPIO_PORTA_BASE, GPIO_PIN_0 | GPIO_PIN_2);
 206              		.loc 2 111 0
 207 00b0 2368     		ldr	r3, [r4]
 208 00b2 5B6D     		ldr	r3, [r3, #84]
 209 00b4 0521     		movs	r1, #5
 210 00b6 4FF04020 		mov	r0, #1073758208
 211 00ba 9847     		blx	r3
 212              	.LVL23:
 112:hello.c       **** 
 113:hello.c       ****   //
 114:hello.c       ****   // Initialize the UART for console I/O.
 115:hello.c       ****   //
 116:hello.c       ****   UARTStdioConfig(0, 115200, g_ui32SysClock);
 213              		.loc 2 116 0
 214 00bc 064B     		ldr	r3, .L13+12
 215 00be 1A68     		ldr	r2, [r3]
 216 00c0 4FF4E131 		mov	r1, #115200
 217 00c4 0020     		movs	r0, #0
 218 00c6 FFF7FEFF 		bl	UARTStdioConfig
 219              	.LVL24:
 117:hello.c       **** }
 220              		.loc 2 117 0
 221 00ca 10BD     		pop	{r4, pc}
 222              	.L14:
 223              		.align	2
 224              	.L13:
 225 00cc 44000001 		.word	16777284
 226 00d0 000800F0 		.word	-268433408
 227 00d4 001800F0 		.word	-268429312
 228 00d8 00000000 		.word	g_ui32SysClock
 229              		.cfi_endproc
 230              	.LFE5:
 231              		.size	ConfigureUART, .-ConfigureUART
 232              		.align	1
 233              		.global	createThreadStack
 234              		.syntax unified
 235              		.thumb
 236              		.thumb_func
 237              		.fpu softvfp
 238              		.type	createThreadStack, %function
 239              	createThreadStack:
 240              	.LFB6:
ARM GAS  C:\Users\Diogo\AppData\Local\Temp\ccJhW7HY.s 			page 8


 118:hello.c       **** 
 119:hello.c       **** uint32_t *createThreadStack(void)
 120:hello.c       **** {
 241              		.loc 2 120 0
 242              		.cfi_startproc
 243              		@ args = 0, pretend = 0, frame = 0
 244              		@ frame_needed = 0, uses_anonymous_args = 0
 245 00dc 08B5     		push	{r3, lr}
 246              	.LCFI3:
 247              		.cfi_def_cfa_offset 8
 248              		.cfi_offset 3, -8
 249              		.cfi_offset 14, -4
 121:hello.c       ****   uint32_t *aux;
 122:hello.c       ****   aux = malloc(STACK_SIZE * sizeof(uint32_t));
 250              		.loc 2 122 0
 251 00de 4FF48070 		mov	r0, #256
 252 00e2 FFF7FEFF 		bl	malloc
 253              	.LVL25:
 123:hello.c       ****   return aux;
 124:hello.c       **** }
 254              		.loc 2 124 0
 255 00e6 08BD     		pop	{r3, pc}
 256              		.cfi_endproc
 257              	.LFE6:
 258              		.size	createThreadStack, .-createThreadStack
 259              		.align	1
 260              		.global	initThreads
 261              		.syntax unified
 262              		.thumb
 263              		.thumb_func
 264              		.fpu softvfp
 265              		.type	initThreads, %function
 266              	initThreads:
 267              	.LFB7:
 125:hello.c       **** 
 126:hello.c       **** void initThreads(void)
 127:hello.c       **** {
 268              		.loc 2 127 0
 269              		.cfi_startproc
 270              		@ args = 0, pretend = 0, frame = 0
 271              		@ frame_needed = 0, uses_anonymous_args = 0
 272 00e8 2DE9F041 		push	{r4, r5, r6, r7, r8, lr}
 273              	.LCFI4:
 274              		.cfi_def_cfa_offset 24
 275              		.cfi_offset 4, -24
 276              		.cfi_offset 5, -20
 277              		.cfi_offset 6, -16
 278              		.cfi_offset 7, -12
 279              		.cfi_offset 8, -8
 280              		.cfi_offset 14, -4
 128:hello.c       ****   int i;
 129:hello.c       ****   printf("Inicializando Tarefas\n");
 281              		.loc 2 129 0
 282 00ec 0C48     		ldr	r0, .L19
 283 00ee FFF7FEFF 		bl	puts
 284              	.LVL26:
 285 00f2 0C4D     		ldr	r5, .L19+4
ARM GAS  C:\Users\Diogo\AppData\Local\Temp\ccJhW7HY.s 			page 9


 130:hello.c       **** 
 131:hello.c       ****   for (i = 0; i <= MAXTASK; i++)
 286              		.loc 2 131 0
 287 00f4 0024     		movs	r4, #0
 132:hello.c       ****   {
 133:hello.c       ****     UARTprintf("Criando Tarefa %i\n", i);
 288              		.loc 2 133 0
 289 00f6 DFF83480 		ldr	r8, .L19+12
 134:hello.c       ****   createThread(BodyTask, ThreadStacks[i], STACK_SIZE);
 290              		.loc 2 134 0
 291 00fa 0B4F     		ldr	r7, .L19+8
 292 00fc 4026     		movs	r6, #64
 293              	.LVL27:
 294              	.L17:
 133:hello.c       ****   createThread(BodyTask, ThreadStacks[i], STACK_SIZE);
 295              		.loc 2 133 0 discriminator 3
 296 00fe 2146     		mov	r1, r4
 297 0100 4046     		mov	r0, r8
 298 0102 FFF7FEFF 		bl	UARTprintf
 299              	.LVL28:
 300              		.loc 2 134 0 discriminator 3
 301 0106 3246     		mov	r2, r6
 302 0108 2946     		mov	r1, r5
 303 010a 3846     		mov	r0, r7
 304 010c FFF7FEFF 		bl	createThread
 305              	.LVL29:
 131:hello.c       ****   {
 306              		.loc 2 131 0 discriminator 3
 307 0110 0134     		adds	r4, r4, #1
 308              	.LVL30:
 309 0112 05F58075 		add	r5, r5, #256
 310 0116 152C     		cmp	r4, #21
 311 0118 F1D1     		bne	.L17
 135:hello.c       ****   }
 136:hello.c       **** }
 312              		.loc 2 136 0
 313 011a BDE8F081 		pop	{r4, r5, r6, r7, r8, pc}
 314              	.LVL31:
 315              	.L20:
 316 011e 00BF     		.align	2
 317              	.L19:
 318 0120 34000000 		.word	.LC3
 319 0124 00000000 		.word	ThreadStacks
 320 0128 00000000 		.word	BodyTask
 321 012c 4C000000 		.word	.LC4
 322              		.cfi_endproc
 323              	.LFE7:
 324              		.size	initThreads, .-initThreads
 325              		.align	1
 326              		.global	main
 327              		.syntax unified
 328              		.thumb
 329              		.thumb_func
 330              		.fpu softvfp
 331              		.type	main, %function
 332              	main:
 333              	.LFB8:
ARM GAS  C:\Users\Diogo\AppData\Local\Temp\ccJhW7HY.s 			page 10


 137:hello.c       **** 
 138:hello.c       **** 
 139:hello.c       **** //*****************************************************************************
 140:hello.c       **** //
 141:hello.c       **** // Print "Hello World!" to the UART on the Intelligent UART Module.
 142:hello.c       **** //
 143:hello.c       **** //*****************************************************************************
 144:hello.c       **** int main(void)
 145:hello.c       **** {
 334              		.loc 2 145 0
 335              		.cfi_startproc
 336              		@ args = 0, pretend = 0, frame = 0
 337              		@ frame_needed = 0, uses_anonymous_args = 0
 338 0130 70B5     		push	{r4, r5, r6, lr}
 339              	.LCFI5:
 340              		.cfi_def_cfa_offset 16
 341              		.cfi_offset 4, -16
 342              		.cfi_offset 5, -12
 343              		.cfi_offset 6, -8
 344              		.cfi_offset 14, -4
 146:hello.c       ****   // Run from the PLL at 120 MHz.
 147:hello.c       ****   //
 148:hello.c       ****   g_ui32SysClock = MAP_SysCtlClockFreqSet((SYSCTL_XTAL_25MHZ |
 345              		.loc 2 148 0
 346 0132 284B     		ldr	r3, .L22
 347 0134 1B68     		ldr	r3, [r3]
 348 0136 D3F8C030 		ldr	r3, [r3, #192]
 349 013a 2749     		ldr	r1, .L22+4
 350 013c 2748     		ldr	r0, .L22+8
 351 013e 9847     		blx	r3
 352              	.LVL32:
 353 0140 274C     		ldr	r4, .L22+12
 354 0142 2060     		str	r0, [r4]
 149:hello.c       ****                                            SYSCTL_OSC_MAIN | SYSCTL_USE_PLL |
 150:hello.c       ****                                            SYSCTL_CFG_VCO_480),
 151:hello.c       ****                                           120000000);
 152:hello.c       **** 
 153:hello.c       ****   //
 154:hello.c       ****   // Configure the device pins.
 155:hello.c       ****   //
 156:hello.c       ****   PinoutSet(false, false);
 355              		.loc 2 156 0
 356 0144 0021     		movs	r1, #0
 357 0146 0846     		mov	r0, r1
 358 0148 FFF7FEFF 		bl	PinoutSet
 359              	.LVL33:
 157:hello.c       **** 
 158:hello.c       ****   //
 159:hello.c       ****   // Enable the GPIO pins for the LED D1 (PN1).
 160:hello.c       ****   //
 161:hello.c       ****   ROM_GPIOPinTypeGPIOOutput(GPIO_PORTN_BASE, GPIO_PIN_1);
 360              		.loc 2 161 0
 361 014c 254D     		ldr	r5, .L22+16
 362 014e 264E     		ldr	r6, .L22+20
 363 0150 3368     		ldr	r3, [r6]
 364 0152 DB6B     		ldr	r3, [r3, #60]
 365 0154 0221     		movs	r1, #2
ARM GAS  C:\Users\Diogo\AppData\Local\Temp\ccJhW7HY.s 			page 11


 366 0156 2846     		mov	r0, r5
 367 0158 9847     		blx	r3
 368              	.LVL34:
 162:hello.c       ****   ROM_GPIOPinTypeGPIOOutput(GPIO_PORTN_BASE, GPIO_PIN_2);
 369              		.loc 2 162 0
 370 015a 3368     		ldr	r3, [r6]
 371 015c DB6B     		ldr	r3, [r3, #60]
 372 015e 0421     		movs	r1, #4
 373 0160 2846     		mov	r0, r5
 374 0162 9847     		blx	r3
 375              	.LVL35:
 163:hello.c       **** 
 164:hello.c       ****   //
 165:hello.c       ****   // Initialize the UART.
 166:hello.c       ****   //
 167:hello.c       ****   ConfigureUART();
 376              		.loc 2 167 0
 377 0164 FFF7FEFF 		bl	ConfigureUART
 378              	.LVL36:
 168:hello.c       **** 
 169:hello.c       ****   //
 170:hello.c       ****   // Hello!
 171:hello.c       ****   //
 172:hello.c       ****   UARTprintf("\n\n\n\n\n\n\n\n\n\n\n");
 379              		.loc 2 172 0
 380 0168 204D     		ldr	r5, .L22+24
 381 016a 2846     		mov	r0, r5
 382 016c FFF7FEFF 		bl	UARTprintf
 383              	.LVL37:
 173:hello.c       ****   UARTprintf("\n\n\n\n\n\n\n\n\n\n\n");
 384              		.loc 2 173 0
 385 0170 2846     		mov	r0, r5
 386 0172 FFF7FEFF 		bl	UARTprintf
 387              	.LVL38:
 174:hello.c       ****   UARTprintf("\n\n\n\n\n\n\n\n\n\n\n");
 388              		.loc 2 174 0
 389 0176 2846     		mov	r0, r5
 390 0178 FFF7FEFF 		bl	UARTprintf
 391              	.LVL39:
 175:hello.c       ****   UARTprintf("Hello, world  TIVA CCCC !\n");
 392              		.loc 2 175 0
 393 017c 1C48     		ldr	r0, .L22+28
 394 017e FFF7FEFF 		bl	UARTprintf
 395              	.LVL40:
 176:hello.c       **** 
 177:hello.c       ****   UARTprintf("Ligando o LED\n");
 396              		.loc 2 177 0
 397 0182 1C48     		ldr	r0, .L22+32
 398 0184 FFF7FEFF 		bl	UARTprintf
 399              	.LVL41:
 178:hello.c       ****   //
 179:hello.c       ****   // Turn on D1.
 180:hello.c       ****   //
 181:hello.c       ****   LEDWrite(CLP_D1, 1);
 400              		.loc 2 181 0
 401 0188 0121     		movs	r1, #1
 402 018a 0846     		mov	r0, r1
ARM GAS  C:\Users\Diogo\AppData\Local\Temp\ccJhW7HY.s 			page 12


 403 018c FFF7FEFF 		bl	LEDWrite
 404              	.LVL42:
 182:hello.c       ****   LEDWrite(CLP_D2, 0);
 405              		.loc 2 182 0
 406 0190 0021     		movs	r1, #0
 407 0192 0220     		movs	r0, #2
 408 0194 FFF7FEFF 		bl	LEDWrite
 409              	.LVL43:
 183:hello.c       **** 
 184:hello.c       ****   //
 185:hello.c       ****   // Delay for a bit.
 186:hello.c       ****   //
 187:hello.c       ****   SysCtlDelay(g_ui32SysClock / 10 / 3);
 410              		.loc 2 187 0
 411 0198 2068     		ldr	r0, [r4]
 412 019a 174D     		ldr	r5, .L22+36
 413 019c A5FB0030 		umull	r3, r0, r5, r0
 414 01a0 0009     		lsrs	r0, r0, #4
 415 01a2 FFF7FEFF 		bl	SysCtlDelay
 416              	.LVL44:
 188:hello.c       **** 
 189:hello.c       ****   //
 190:hello.c       ****   UARTprintf("Desligando o LED\n");
 417              		.loc 2 190 0
 418 01a6 1548     		ldr	r0, .L22+40
 419 01a8 FFF7FEFF 		bl	UARTprintf
 420              	.LVL45:
 191:hello.c       ****   //
 192:hello.c       ****   LEDWrite(CLP_D1, 0);
 421              		.loc 2 192 0
 422 01ac 0021     		movs	r1, #0
 423 01ae 0120     		movs	r0, #1
 424 01b0 FFF7FEFF 		bl	LEDWrite
 425              	.LVL46:
 193:hello.c       ****   LEDWrite(CLP_D2, 1);
 426              		.loc 2 193 0
 427 01b4 0121     		movs	r1, #1
 428 01b6 0220     		movs	r0, #2
 429 01b8 FFF7FEFF 		bl	LEDWrite
 430              	.LVL47:
 194:hello.c       ****   //
 195:hello.c       ****   // Delay for a bit.
 196:hello.c       ****   //
 197:hello.c       ****   SysCtlDelay(g_ui32SysClock / 10 / 3);
 431              		.loc 2 197 0
 432 01bc 2068     		ldr	r0, [r4]
 433 01be A5FB0030 		umull	r3, r0, r5, r0
 434 01c2 0009     		lsrs	r0, r0, #4
 435 01c4 FFF7FEFF 		bl	SysCtlDelay
 436              	.LVL48:
 198:hello.c       ****   initThreads();
 437              		.loc 2 198 0
 438 01c8 FFF7FEFF 		bl	initThreads
 439              	.LVL49:
 199:hello.c       ****   startSwitcher(); // start the thread switching (this does not return)
 440              		.loc 2 199 0
 441 01cc FFF7FEFF 		bl	startSwitcher
ARM GAS  C:\Users\Diogo\AppData\Local\Temp\ccJhW7HY.s 			page 13


 442              	.LVL50:
 200:hello.c       **** }
 443              		.loc 2 200 0
 444 01d0 0020     		movs	r0, #0
 445 01d2 70BD     		pop	{r4, r5, r6, pc}
 446              	.L23:
 447              		.align	2
 448              	.L22:
 449 01d4 44000001 		.word	16777284
 450 01d8 000E2707 		.word	120000000
 451 01dc 800600F1 		.word	-251656576
 452 01e0 00000000 		.word	g_ui32SysClock
 453 01e4 00400640 		.word	1074151424
 454 01e8 20000001 		.word	16777248
 455 01ec 60000000 		.word	.LC5
 456 01f0 6C000000 		.word	.LC6
 457 01f4 88000000 		.word	.LC7
 458 01f8 89888888 		.word	-2004318071
 459 01fc 98000000 		.word	.LC8
 460              		.cfi_endproc
 461              	.LFE8:
 462              		.size	main, .-main
 463              		.comm	g_ui32SysClock,4,4
 464              		.comm	ThreadStacks,5120,4
 465              		.comm	task,336,4
 466              		.comm	Thread2Stack,256,4
 467              		.comm	Thread1Stack,256,4
 468              		.global	activeThread
 469              		.bss
 470              		.align	2
 471              		.set	.LANCHOR0,. + 0
 472              		.type	activeThread, %object
 473              		.size	activeThread, 4
 474              	activeThread:
 475 0000 00000000 		.space	4
 476              		.section	.rodata.str1.4,"aMS",%progbits,1
 477              		.align	2
 478              	.LC0:
 479 0000 496E6963 		.ascii	"Iniciei  tarefa %i\012\000"
 479      69656920 
 479      20746172 
 479      65666120 
 479      25690A00 
 480              	.LC1:
 481 0014 456E6365 		.ascii	"Ence&& status == 0 \012(\000"
 481      26262073 
 481      74617475 
 481      73203D3D 
 481      2030200A 
 482 002a 0000     		.space	2
 483              	.LC2:
 484 002c 25732025 		.ascii	"%s %d\012\000"
 484      640A00
 485 0033 00       		.space	1
 486              	.LC3:
 487 0034 496E6963 		.ascii	"Inicializando Tarefas\000"
 487      69616C69 
ARM GAS  C:\Users\Diogo\AppData\Local\Temp\ccJhW7HY.s 			page 14


 487      7A616E64 
 487      6F205461 
 487      72656661 
 488 004a 0000     		.space	2
 489              	.LC4:
 490 004c 43726961 		.ascii	"Criando Tarefa %i\012\000"
 490      6E646F20 
 490      54617265 
 490      66612025 
 490      690A00
 491 005f 00       		.space	1
 492              	.LC5:
 493 0060 0A0A0A0A 		.ascii	"\012\012\012\012\012\012\012\012\012\012\012\000"
 493      0A0A0A0A 
 493      0A0A0A00 
 494              	.LC6:
 495 006c 48656C6C 		.ascii	"Hello, world  TIVA CCCC !\012\000"
 495      6F2C2077 
 495      6F726C64 
 495      20205449 
 495      56412043 
 496 0087 00       		.space	1
 497              	.LC7:
 498 0088 4C696761 		.ascii	"Ligando o LED\012\000"
 498      6E646F20 
 498      6F204C45 
 498      440A00
 499 0097 00       		.space	1
 500              	.LC8:
 501 0098 4465736C 		.ascii	"Desligando o LED\012\000"
 501      6967616E 
 501      646F206F 
 501      204C4544 
 501      0A00
 502              		.text
 503              	.Letext0:
 504              		.file 3 "c:\\program files (x86)\\gnu tools arm embedded\\7 2018-q2-update\\arm-none-eabi\\include
 505              		.file 4 "c:\\program files (x86)\\gnu tools arm embedded\\7 2018-q2-update\\arm-none-eabi\\include
 506              		.file 5 "Threads/thread.h"
 507              		.file 6 "c:\\program files (x86)\\gnu tools arm embedded\\7 2018-q2-update\\arm-none-eabi\\include
 508              		.file 7 "c:\\program files (x86)\\gnu tools arm embedded\\7 2018-q2-update\\arm-none-eabi\\include
 509              		.file 8 "c:\\program files (x86)\\gnu tools arm embedded\\7 2018-q2-update\\lib\\gcc\\arm-none-eab
 510              		.file 9 "c:\\program files (x86)\\gnu tools arm embedded\\7 2018-q2-update\\arm-none-eabi\\include
 511              		.file 10 "c:\\program files (x86)\\gnu tools arm embedded\\7 2018-q2-update\\arm-none-eabi\\includ
 512              		.file 11 "drivers/pinout.h"
 513              		.file 12 "./inc/utils/uartstdio.h"
 514              		.file 13 "./inc/driverlib/sysctl.h"
 515              		.file 14 "<built-in>"
 516              		.section	.debug_info,"",%progbits
 517              	.Ldebug_info0:
 518 0000 050F0000 		.4byte	0xf05
 519 0004 0200     		.2byte	0x2
 520 0006 00000000 		.4byte	.Ldebug_abbrev0
 521 000a 04       		.byte	0x4
 522 000b 01       		.uleb128 0x1
 523 000c 17030000 		.4byte	.LASF154
 524 0010 0C       		.byte	0xc
ARM GAS  C:\Users\Diogo\AppData\Local\Temp\ccJhW7HY.s 			page 15


 525 0011 0E020000 		.4byte	.LASF155
 526 0015 D5050000 		.4byte	.LASF156
 527 0019 00000000 		.4byte	.Ltext0
 528 001d 00020000 		.4byte	.Letext0
 529 0021 00000000 		.4byte	.Ldebug_line0
 530 0025 02       		.uleb128 0x2
 531 0026 01       		.byte	0x1
 532 0027 06       		.byte	0x6
 533 0028 CD000000 		.4byte	.LASF0
 534 002c 03       		.uleb128 0x3
 535 002d 2C000000 		.4byte	.LASF5
 536 0031 03       		.byte	0x3
 537 0032 2B       		.byte	0x2b
 538 0033 37000000 		.4byte	0x37
 539 0037 02       		.uleb128 0x2
 540 0038 01       		.byte	0x1
 541 0039 08       		.byte	0x8
 542 003a 42040000 		.4byte	.LASF1
 543 003e 02       		.uleb128 0x2
 544 003f 02       		.byte	0x2
 545 0040 05       		.byte	0x5
 546 0041 5E040000 		.4byte	.LASF2
 547 0045 02       		.uleb128 0x2
 548 0046 02       		.byte	0x2
 549 0047 07       		.byte	0x7
 550 0048 80020000 		.4byte	.LASF3
 551 004c 02       		.uleb128 0x2
 552 004d 04       		.byte	0x4
 553 004e 05       		.byte	0x5
 554 004f 12010000 		.4byte	.LASF4
 555 0053 03       		.uleb128 0x3
 556 0054 C5010000 		.4byte	.LASF6
 557 0058 03       		.byte	0x3
 558 0059 4F       		.byte	0x4f
 559 005a 5E000000 		.4byte	0x5e
 560 005e 02       		.uleb128 0x2
 561 005f 04       		.byte	0x4
 562 0060 07       		.byte	0x7
 563 0061 3F020000 		.4byte	.LASF7
 564 0065 02       		.uleb128 0x2
 565 0066 08       		.byte	0x8
 566 0067 05       		.byte	0x5
 567 0068 BF000000 		.4byte	.LASF8
 568 006c 02       		.uleb128 0x2
 569 006d 08       		.byte	0x8
 570 006e 07       		.byte	0x7
 571 006f 66000000 		.4byte	.LASF9
 572 0073 04       		.uleb128 0x4
 573 0074 04       		.byte	0x4
 574 0075 05       		.byte	0x5
 575 0076 696E7400 		.ascii	"int\000"
 576 007a 02       		.uleb128 0x2
 577 007b 04       		.byte	0x4
 578 007c 07       		.byte	0x7
 579 007d 1B020000 		.4byte	.LASF10
 580 0081 03       		.uleb128 0x3
 581 0082 32060000 		.4byte	.LASF11
ARM GAS  C:\Users\Diogo\AppData\Local\Temp\ccJhW7HY.s 			page 16


 582 0086 04       		.byte	0x4
 583 0087 18       		.byte	0x18
 584 0088 2C000000 		.4byte	0x2c
 585 008c 03       		.uleb128 0x3
 586 008d 13050000 		.4byte	.LASF12
 587 0091 04       		.byte	0x4
 588 0092 30       		.byte	0x30
 589 0093 53000000 		.4byte	0x53
 590 0097 05       		.uleb128 0x5
 591 0098 04       		.byte	0x4
 592 0099 06       		.uleb128 0x6
 593 009a 57020000 		.4byte	.LASF16
 594 009e 10       		.byte	0x10
 595 009f 05       		.byte	0x5
 596 00a0 09       		.byte	0x9
 597 00a1 DD000000 		.4byte	0xdd
 598 00a5 07       		.uleb128 0x7
 599 00a6 6D010000 		.4byte	.LASF13
 600 00aa 05       		.byte	0x5
 601 00ab 0A       		.byte	0xa
 602 00ac DD000000 		.4byte	0xdd
 603 00b0 02       		.byte	0x2
 604 00b1 23       		.byte	0x23
 605 00b2 00       		.uleb128 0
 606 00b3 07       		.uleb128 0x7
 607 00b4 90060000 		.4byte	.LASF14
 608 00b8 05       		.byte	0x5
 609 00b9 0B       		.byte	0xb
 610 00ba EA000000 		.4byte	0xea
 611 00be 02       		.byte	0x2
 612 00bf 23       		.byte	0x23
 613 00c0 04       		.uleb128 0x4
 614 00c1 07       		.uleb128 0x7
 615 00c2 2D010000 		.4byte	.LASF15
 616 00c6 05       		.byte	0x5
 617 00c7 0C       		.byte	0xc
 618 00c8 8C000000 		.4byte	0x8c
 619 00cc 02       		.byte	0x2
 620 00cd 23       		.byte	0x23
 621 00ce 08       		.uleb128 0x8
 622 00cf 08       		.uleb128 0x8
 623 00d0 696400   		.ascii	"id\000"
 624 00d3 05       		.byte	0x5
 625 00d4 0D       		.byte	0xd
 626 00d5 8C000000 		.4byte	0x8c
 627 00d9 02       		.byte	0x2
 628 00da 23       		.byte	0x23
 629 00db 0C       		.uleb128 0xc
 630 00dc 00       		.byte	0
 631 00dd 09       		.uleb128 0x9
 632 00de 04       		.byte	0x4
 633 00df 8C000000 		.4byte	0x8c
 634 00e3 0A       		.uleb128 0xa
 635 00e4 EA000000 		.4byte	0xea
 636 00e8 0B       		.uleb128 0xb
 637 00e9 00       		.byte	0
 638 00ea 09       		.uleb128 0x9
ARM GAS  C:\Users\Diogo\AppData\Local\Temp\ccJhW7HY.s 			page 17


 639 00eb 04       		.byte	0x4
 640 00ec E3000000 		.4byte	0xe3
 641 00f0 03       		.uleb128 0x3
 642 00f1 57020000 		.4byte	.LASF16
 643 00f5 05       		.byte	0x5
 644 00f6 0E       		.byte	0xe
 645 00f7 99000000 		.4byte	0x99
 646 00fb 02       		.uleb128 0x2
 647 00fc 08       		.byte	0x8
 648 00fd 04       		.byte	0x4
 649 00fe C8030000 		.4byte	.LASF17
 650 0102 03       		.uleb128 0x3
 651 0103 D0020000 		.4byte	.LASF18
 652 0107 06       		.byte	0x6
 653 0108 22       		.byte	0x22
 654 0109 0D010000 		.4byte	0x10d
 655 010d 09       		.uleb128 0x9
 656 010e 04       		.byte	0x4
 657 010f 13010000 		.4byte	0x113
 658 0113 0C       		.uleb128 0xc
 659 0114 0C050000 		.4byte	.LASF125
 660 0118 01       		.byte	0x1
 661 0119 03       		.uleb128 0x3
 662 011a 0A040000 		.4byte	.LASF19
 663 011e 07       		.byte	0x7
 664 011f 2C       		.byte	0x2c
 665 0120 4C000000 		.4byte	0x4c
 666 0124 03       		.uleb128 0x3
 667 0125 2E050000 		.4byte	.LASF20
 668 0129 07       		.byte	0x7
 669 012a 72       		.byte	0x72
 670 012b 4C000000 		.4byte	0x4c
 671 012f 0D       		.uleb128 0xd
 672 0130 D8020000 		.4byte	.LASF21
 673 0134 08       		.byte	0x8
 674 0135 6501     		.2byte	0x165
 675 0137 7A000000 		.4byte	0x7a
 676 013b 0E       		.uleb128 0xe
 677 013c 04       		.byte	0x4
 678 013d 07       		.byte	0x7
 679 013e A6       		.byte	0xa6
 680 013f 5A010000 		.4byte	0x15a
 681 0143 0F       		.uleb128 0xf
 682 0144 BD020000 		.4byte	.LASF22
 683 0148 07       		.byte	0x7
 684 0149 A8       		.byte	0xa8
 685 014a 2F010000 		.4byte	0x12f
 686 014e 0F       		.uleb128 0xf
 687 014f 28020000 		.4byte	.LASF23
 688 0153 07       		.byte	0x7
 689 0154 A9       		.byte	0xa9
 690 0155 5A010000 		.4byte	0x15a
 691 0159 00       		.byte	0
 692 015a 10       		.uleb128 0x10
 693 015b 37000000 		.4byte	0x37
 694 015f 6A010000 		.4byte	0x16a
 695 0163 11       		.uleb128 0x11
ARM GAS  C:\Users\Diogo\AppData\Local\Temp\ccJhW7HY.s 			page 18


 696 0164 7A000000 		.4byte	0x7a
 697 0168 03       		.byte	0x3
 698 0169 00       		.byte	0
 699 016a 12       		.uleb128 0x12
 700 016b 08       		.byte	0x8
 701 016c 07       		.byte	0x7
 702 016d A3       		.byte	0xa3
 703 016e 8F010000 		.4byte	0x18f
 704 0172 07       		.uleb128 0x7
 705 0173 04050000 		.4byte	.LASF24
 706 0177 07       		.byte	0x7
 707 0178 A5       		.byte	0xa5
 708 0179 73000000 		.4byte	0x73
 709 017d 02       		.byte	0x2
 710 017e 23       		.byte	0x23
 711 017f 00       		.uleb128 0
 712 0180 07       		.uleb128 0x7
 713 0181 7D050000 		.4byte	.LASF25
 714 0185 07       		.byte	0x7
 715 0186 AA       		.byte	0xaa
 716 0187 3B010000 		.4byte	0x13b
 717 018b 02       		.byte	0x2
 718 018c 23       		.byte	0x23
 719 018d 04       		.uleb128 0x4
 720 018e 00       		.byte	0
 721 018f 03       		.uleb128 0x3
 722 0190 86040000 		.4byte	.LASF26
 723 0194 07       		.byte	0x7
 724 0195 AB       		.byte	0xab
 725 0196 6A010000 		.4byte	0x16a
 726 019a 03       		.uleb128 0x3
 727 019b D6010000 		.4byte	.LASF27
 728 019f 07       		.byte	0x7
 729 01a0 AF       		.byte	0xaf
 730 01a1 02010000 		.4byte	0x102
 731 01a5 03       		.uleb128 0x3
 732 01a6 93050000 		.4byte	.LASF28
 733 01aa 09       		.byte	0x9
 734 01ab 16       		.byte	0x16
 735 01ac 5E000000 		.4byte	0x5e
 736 01b0 06       		.uleb128 0x6
 737 01b1 E7010000 		.4byte	.LASF29
 738 01b5 18       		.byte	0x18
 739 01b6 09       		.byte	0x9
 740 01b7 2F       		.byte	0x2f
 741 01b8 0F020000 		.4byte	0x20f
 742 01bc 07       		.uleb128 0x7
 743 01bd 5A050000 		.4byte	.LASF30
 744 01c1 09       		.byte	0x9
 745 01c2 31       		.byte	0x31
 746 01c3 0F020000 		.4byte	0x20f
 747 01c7 02       		.byte	0x2
 748 01c8 23       		.byte	0x23
 749 01c9 00       		.uleb128 0
 750 01ca 08       		.uleb128 0x8
 751 01cb 5F6B00   		.ascii	"_k\000"
 752 01ce 09       		.byte	0x9
ARM GAS  C:\Users\Diogo\AppData\Local\Temp\ccJhW7HY.s 			page 19


 753 01cf 32       		.byte	0x32
 754 01d0 73000000 		.4byte	0x73
 755 01d4 02       		.byte	0x2
 756 01d5 23       		.byte	0x23
 757 01d6 04       		.uleb128 0x4
 758 01d7 07       		.uleb128 0x7
 759 01d8 EF040000 		.4byte	.LASF31
 760 01dc 09       		.byte	0x9
 761 01dd 32       		.byte	0x32
 762 01de 73000000 		.4byte	0x73
 763 01e2 02       		.byte	0x2
 764 01e3 23       		.byte	0x23
 765 01e4 08       		.uleb128 0x8
 766 01e5 07       		.uleb128 0x7
 767 01e6 D0010000 		.4byte	.LASF32
 768 01ea 09       		.byte	0x9
 769 01eb 32       		.byte	0x32
 770 01ec 73000000 		.4byte	0x73
 771 01f0 02       		.byte	0x2
 772 01f1 23       		.byte	0x23
 773 01f2 0C       		.uleb128 0xc
 774 01f3 07       		.uleb128 0x7
 775 01f4 06060000 		.4byte	.LASF33
 776 01f8 09       		.byte	0x9
 777 01f9 32       		.byte	0x32
 778 01fa 73000000 		.4byte	0x73
 779 01fe 02       		.byte	0x2
 780 01ff 23       		.byte	0x23
 781 0200 10       		.uleb128 0x10
 782 0201 08       		.uleb128 0x8
 783 0202 5F7800   		.ascii	"_x\000"
 784 0205 09       		.byte	0x9
 785 0206 33       		.byte	0x33
 786 0207 15020000 		.4byte	0x215
 787 020b 02       		.byte	0x2
 788 020c 23       		.byte	0x23
 789 020d 14       		.uleb128 0x14
 790 020e 00       		.byte	0
 791 020f 09       		.uleb128 0x9
 792 0210 04       		.byte	0x4
 793 0211 B0010000 		.4byte	0x1b0
 794 0215 10       		.uleb128 0x10
 795 0216 A5010000 		.4byte	0x1a5
 796 021a 25020000 		.4byte	0x225
 797 021e 11       		.uleb128 0x11
 798 021f 7A000000 		.4byte	0x7a
 799 0223 00       		.byte	0
 800 0224 00       		.byte	0
 801 0225 06       		.uleb128 0x6
 802 0226 16020000 		.4byte	.LASF34
 803 022a 24       		.byte	0x24
 804 022b 09       		.byte	0x9
 805 022c 37       		.byte	0x37
 806 022d B0020000 		.4byte	0x2b0
 807 0231 07       		.uleb128 0x7
 808 0232 AA000000 		.4byte	.LASF35
 809 0236 09       		.byte	0x9
ARM GAS  C:\Users\Diogo\AppData\Local\Temp\ccJhW7HY.s 			page 20


 810 0237 39       		.byte	0x39
 811 0238 73000000 		.4byte	0x73
 812 023c 02       		.byte	0x2
 813 023d 23       		.byte	0x23
 814 023e 00       		.uleb128 0
 815 023f 07       		.uleb128 0x7
 816 0240 42050000 		.4byte	.LASF36
 817 0244 09       		.byte	0x9
 818 0245 3A       		.byte	0x3a
 819 0246 73000000 		.4byte	0x73
 820 024a 02       		.byte	0x2
 821 024b 23       		.byte	0x23
 822 024c 04       		.uleb128 0x4
 823 024d 07       		.uleb128 0x7
 824 024e E5000000 		.4byte	.LASF37
 825 0252 09       		.byte	0x9
 826 0253 3B       		.byte	0x3b
 827 0254 73000000 		.4byte	0x73
 828 0258 02       		.byte	0x2
 829 0259 23       		.byte	0x23
 830 025a 08       		.uleb128 0x8
 831 025b 07       		.uleb128 0x7
 832 025c B1060000 		.4byte	.LASF38
 833 0260 09       		.byte	0x9
 834 0261 3C       		.byte	0x3c
 835 0262 73000000 		.4byte	0x73
 836 0266 02       		.byte	0x2
 837 0267 23       		.byte	0x23
 838 0268 0C       		.uleb128 0xc
 839 0269 07       		.uleb128 0x7
 840 026a DB030000 		.4byte	.LASF39
 841 026e 09       		.byte	0x9
 842 026f 3D       		.byte	0x3d
 843 0270 73000000 		.4byte	0x73
 844 0274 02       		.byte	0x2
 845 0275 23       		.byte	0x23
 846 0276 10       		.uleb128 0x10
 847 0277 07       		.uleb128 0x7
 848 0278 0D030000 		.4byte	.LASF40
 849 027c 09       		.byte	0x9
 850 027d 3E       		.byte	0x3e
 851 027e 73000000 		.4byte	0x73
 852 0282 02       		.byte	0x2
 853 0283 23       		.byte	0x23
 854 0284 14       		.uleb128 0x14
 855 0285 07       		.uleb128 0x7
 856 0286 0B060000 		.4byte	.LASF41
 857 028a 09       		.byte	0x9
 858 028b 3F       		.byte	0x3f
 859 028c 73000000 		.4byte	0x73
 860 0290 02       		.byte	0x2
 861 0291 23       		.byte	0x23
 862 0292 18       		.uleb128 0x18
 863 0293 07       		.uleb128 0x7
 864 0294 68040000 		.4byte	.LASF42
 865 0298 09       		.byte	0x9
 866 0299 40       		.byte	0x40
ARM GAS  C:\Users\Diogo\AppData\Local\Temp\ccJhW7HY.s 			page 21


 867 029a 73000000 		.4byte	0x73
 868 029e 02       		.byte	0x2
 869 029f 23       		.byte	0x23
 870 02a0 1C       		.uleb128 0x1c
 871 02a1 07       		.uleb128 0x7
 872 02a2 6A060000 		.4byte	.LASF43
 873 02a6 09       		.byte	0x9
 874 02a7 41       		.byte	0x41
 875 02a8 73000000 		.4byte	0x73
 876 02ac 02       		.byte	0x2
 877 02ad 23       		.byte	0x23
 878 02ae 20       		.uleb128 0x20
 879 02af 00       		.byte	0
 880 02b0 13       		.uleb128 0x13
 881 02b1 F4000000 		.4byte	.LASF44
 882 02b5 0801     		.2byte	0x108
 883 02b7 09       		.byte	0x9
 884 02b8 4A       		.byte	0x4a
 885 02b9 F9020000 		.4byte	0x2f9
 886 02bd 07       		.uleb128 0x7
 887 02be AD010000 		.4byte	.LASF45
 888 02c2 09       		.byte	0x9
 889 02c3 4B       		.byte	0x4b
 890 02c4 F9020000 		.4byte	0x2f9
 891 02c8 02       		.byte	0x2
 892 02c9 23       		.byte	0x23
 893 02ca 00       		.uleb128 0
 894 02cb 07       		.uleb128 0x7
 895 02cc 00000000 		.4byte	.LASF46
 896 02d0 09       		.byte	0x9
 897 02d1 4C       		.byte	0x4c
 898 02d2 F9020000 		.4byte	0x2f9
 899 02d6 03       		.byte	0x3
 900 02d7 23       		.byte	0x23
 901 02d8 8001     		.uleb128 0x80
 902 02da 07       		.uleb128 0x7
 903 02db 85050000 		.4byte	.LASF47
 904 02df 09       		.byte	0x9
 905 02e0 4E       		.byte	0x4e
 906 02e1 A5010000 		.4byte	0x1a5
 907 02e5 03       		.byte	0x3
 908 02e6 23       		.byte	0x23
 909 02e7 8002     		.uleb128 0x100
 910 02e9 07       		.uleb128 0x7
 911 02ea 38010000 		.4byte	.LASF48
 912 02ee 09       		.byte	0x9
 913 02ef 51       		.byte	0x51
 914 02f0 A5010000 		.4byte	0x1a5
 915 02f4 03       		.byte	0x3
 916 02f5 23       		.byte	0x23
 917 02f6 8402     		.uleb128 0x104
 918 02f8 00       		.byte	0
 919 02f9 10       		.uleb128 0x10
 920 02fa 97000000 		.4byte	0x97
 921 02fe 09030000 		.4byte	0x309
 922 0302 11       		.uleb128 0x11
 923 0303 7A000000 		.4byte	0x7a
ARM GAS  C:\Users\Diogo\AppData\Local\Temp\ccJhW7HY.s 			page 22


 924 0307 1F       		.byte	0x1f
 925 0308 00       		.byte	0
 926 0309 13       		.uleb128 0x13
 927 030a ED030000 		.4byte	.LASF49
 928 030e 9001     		.2byte	0x190
 929 0310 09       		.byte	0x9
 930 0311 5D       		.byte	0x5d
 931 0312 50030000 		.4byte	0x350
 932 0316 07       		.uleb128 0x7
 933 0317 5A050000 		.4byte	.LASF30
 934 031b 09       		.byte	0x9
 935 031c 5E       		.byte	0x5e
 936 031d 50030000 		.4byte	0x350
 937 0321 02       		.byte	0x2
 938 0322 23       		.byte	0x23
 939 0323 00       		.uleb128 0
 940 0324 07       		.uleb128 0x7
 941 0325 BF040000 		.4byte	.LASF50
 942 0329 09       		.byte	0x9
 943 032a 5F       		.byte	0x5f
 944 032b 73000000 		.4byte	0x73
 945 032f 02       		.byte	0x2
 946 0330 23       		.byte	0x23
 947 0331 04       		.uleb128 0x4
 948 0332 07       		.uleb128 0x7
 949 0333 C0010000 		.4byte	.LASF51
 950 0337 09       		.byte	0x9
 951 0338 61       		.byte	0x61
 952 0339 56030000 		.4byte	0x356
 953 033d 02       		.byte	0x2
 954 033e 23       		.byte	0x23
 955 033f 08       		.uleb128 0x8
 956 0340 07       		.uleb128 0x7
 957 0341 F4000000 		.4byte	.LASF44
 958 0345 09       		.byte	0x9
 959 0346 62       		.byte	0x62
 960 0347 B0020000 		.4byte	0x2b0
 961 034b 03       		.byte	0x3
 962 034c 23       		.byte	0x23
 963 034d 8801     		.uleb128 0x88
 964 034f 00       		.byte	0
 965 0350 09       		.uleb128 0x9
 966 0351 04       		.byte	0x4
 967 0352 09030000 		.4byte	0x309
 968 0356 10       		.uleb128 0x10
 969 0357 66030000 		.4byte	0x366
 970 035b 66030000 		.4byte	0x366
 971 035f 11       		.uleb128 0x11
 972 0360 7A000000 		.4byte	0x7a
 973 0364 1F       		.byte	0x1f
 974 0365 00       		.byte	0
 975 0366 09       		.uleb128 0x9
 976 0367 04       		.byte	0x4
 977 0368 6C030000 		.4byte	0x36c
 978 036c 14       		.uleb128 0x14
 979 036d 01       		.byte	0x1
 980 036e 06       		.uleb128 0x6
ARM GAS  C:\Users\Diogo\AppData\Local\Temp\ccJhW7HY.s 			page 23


 981 036f 72040000 		.4byte	.LASF52
 982 0373 08       		.byte	0x8
 983 0374 09       		.byte	0x9
 984 0375 75       		.byte	0x75
 985 0376 97030000 		.4byte	0x397
 986 037a 07       		.uleb128 0x7
 987 037b DF000000 		.4byte	.LASF53
 988 037f 09       		.byte	0x9
 989 0380 76       		.byte	0x76
 990 0381 97030000 		.4byte	0x397
 991 0385 02       		.byte	0x2
 992 0386 23       		.byte	0x23
 993 0387 00       		.uleb128 0
 994 0388 07       		.uleb128 0x7
 995 0389 13000000 		.4byte	.LASF54
 996 038d 09       		.byte	0x9
 997 038e 77       		.byte	0x77
 998 038f 73000000 		.4byte	0x73
 999 0393 02       		.byte	0x2
 1000 0394 23       		.byte	0x23
 1001 0395 04       		.uleb128 0x4
 1002 0396 00       		.byte	0
 1003 0397 09       		.uleb128 0x9
 1004 0398 04       		.byte	0x4
 1005 0399 37000000 		.4byte	0x37
 1006 039d 06       		.uleb128 0x6
 1007 039e 91040000 		.4byte	.LASF55
 1008 03a2 68       		.byte	0x68
 1009 03a3 09       		.byte	0x9
 1010 03a4 B5       		.byte	0xb5
 1011 03a5 F7040000 		.4byte	0x4f7
 1012 03a9 08       		.uleb128 0x8
 1013 03aa 5F7000   		.ascii	"_p\000"
 1014 03ad 09       		.byte	0x9
 1015 03ae B6       		.byte	0xb6
 1016 03af 97030000 		.4byte	0x397
 1017 03b3 02       		.byte	0x2
 1018 03b4 23       		.byte	0x23
 1019 03b5 00       		.uleb128 0
 1020 03b6 08       		.uleb128 0x8
 1021 03b7 5F7200   		.ascii	"_r\000"
 1022 03ba 09       		.byte	0x9
 1023 03bb B7       		.byte	0xb7
 1024 03bc 73000000 		.4byte	0x73
 1025 03c0 02       		.byte	0x2
 1026 03c1 23       		.byte	0x23
 1027 03c2 04       		.uleb128 0x4
 1028 03c3 08       		.uleb128 0x8
 1029 03c4 5F7700   		.ascii	"_w\000"
 1030 03c7 09       		.byte	0x9
 1031 03c8 B8       		.byte	0xb8
 1032 03c9 73000000 		.4byte	0x73
 1033 03cd 02       		.byte	0x2
 1034 03ce 23       		.byte	0x23
 1035 03cf 08       		.uleb128 0x8
 1036 03d0 07       		.uleb128 0x7
 1037 03d1 2B060000 		.4byte	.LASF56
ARM GAS  C:\Users\Diogo\AppData\Local\Temp\ccJhW7HY.s 			page 24


 1038 03d5 09       		.byte	0x9
 1039 03d6 B9       		.byte	0xb9
 1040 03d7 3E000000 		.4byte	0x3e
 1041 03db 02       		.byte	0x2
 1042 03dc 23       		.byte	0x23
 1043 03dd 0C       		.uleb128 0xc
 1044 03de 07       		.uleb128 0x7
 1045 03df 51020000 		.4byte	.LASF57
 1046 03e3 09       		.byte	0x9
 1047 03e4 BA       		.byte	0xba
 1048 03e5 3E000000 		.4byte	0x3e
 1049 03e9 02       		.byte	0x2
 1050 03ea 23       		.byte	0x23
 1051 03eb 0E       		.uleb128 0xe
 1052 03ec 08       		.uleb128 0x8
 1053 03ed 5F626600 		.ascii	"_bf\000"
 1054 03f1 09       		.byte	0x9
 1055 03f2 BB       		.byte	0xbb
 1056 03f3 6E030000 		.4byte	0x36e
 1057 03f7 02       		.byte	0x2
 1058 03f8 23       		.byte	0x23
 1059 03f9 10       		.uleb128 0x10
 1060 03fa 07       		.uleb128 0x7
 1061 03fb 7D000000 		.4byte	.LASF58
 1062 03ff 09       		.byte	0x9
 1063 0400 BC       		.byte	0xbc
 1064 0401 73000000 		.4byte	0x73
 1065 0405 02       		.byte	0x2
 1066 0406 23       		.byte	0x23
 1067 0407 18       		.uleb128 0x18
 1068 0408 07       		.uleb128 0x7
 1069 0409 02010000 		.4byte	.LASF59
 1070 040d 09       		.byte	0x9
 1071 040e C3       		.byte	0xc3
 1072 040f 97000000 		.4byte	0x97
 1073 0413 02       		.byte	0x2
 1074 0414 23       		.byte	0x23
 1075 0415 1C       		.uleb128 0x1c
 1076 0416 07       		.uleb128 0x7
 1077 0417 FE010000 		.4byte	.LASF60
 1078 041b 09       		.byte	0x9
 1079 041c C5       		.byte	0xc5
 1080 041d 91060000 		.4byte	0x691
 1081 0421 02       		.byte	0x2
 1082 0422 23       		.byte	0x23
 1083 0423 20       		.uleb128 0x20
 1084 0424 07       		.uleb128 0x7
 1085 0425 06030000 		.4byte	.LASF61
 1086 0429 09       		.byte	0x9
 1087 042a C7       		.byte	0xc7
 1088 042b BC060000 		.4byte	0x6bc
 1089 042f 02       		.byte	0x2
 1090 0430 23       		.byte	0x23
 1091 0431 24       		.uleb128 0x24
 1092 0432 07       		.uleb128 0x7
 1093 0433 1C050000 		.4byte	.LASF62
 1094 0437 09       		.byte	0x9
ARM GAS  C:\Users\Diogo\AppData\Local\Temp\ccJhW7HY.s 			page 25


 1095 0438 CA       		.byte	0xca
 1096 0439 E1060000 		.4byte	0x6e1
 1097 043d 02       		.byte	0x2
 1098 043e 23       		.byte	0x23
 1099 043f 28       		.uleb128 0x28
 1100 0440 07       		.uleb128 0x7
 1101 0441 84060000 		.4byte	.LASF63
 1102 0445 09       		.byte	0x9
 1103 0446 CB       		.byte	0xcb
 1104 0447 FC060000 		.4byte	0x6fc
 1105 044b 02       		.byte	0x2
 1106 044c 23       		.byte	0x23
 1107 044d 2C       		.uleb128 0x2c
 1108 044e 08       		.uleb128 0x8
 1109 044f 5F756200 		.ascii	"_ub\000"
 1110 0453 09       		.byte	0x9
 1111 0454 CE       		.byte	0xce
 1112 0455 6E030000 		.4byte	0x36e
 1113 0459 02       		.byte	0x2
 1114 045a 23       		.byte	0x23
 1115 045b 30       		.uleb128 0x30
 1116 045c 08       		.uleb128 0x8
 1117 045d 5F757000 		.ascii	"_up\000"
 1118 0461 09       		.byte	0x9
 1119 0462 CF       		.byte	0xcf
 1120 0463 97030000 		.4byte	0x397
 1121 0467 02       		.byte	0x2
 1122 0468 23       		.byte	0x23
 1123 0469 38       		.uleb128 0x38
 1124 046a 08       		.uleb128 0x8
 1125 046b 5F757200 		.ascii	"_ur\000"
 1126 046f 09       		.byte	0x9
 1127 0470 D0       		.byte	0xd0
 1128 0471 73000000 		.4byte	0x73
 1129 0475 02       		.byte	0x2
 1130 0476 23       		.byte	0x23
 1131 0477 3C       		.uleb128 0x3c
 1132 0478 07       		.uleb128 0x7
 1133 0479 D9000000 		.4byte	.LASF64
 1134 047d 09       		.byte	0x9
 1135 047e D3       		.byte	0xd3
 1136 047f 02070000 		.4byte	0x702
 1137 0483 02       		.byte	0x2
 1138 0484 23       		.byte	0x23
 1139 0485 40       		.uleb128 0x40
 1140 0486 07       		.uleb128 0x7
 1141 0487 5C060000 		.4byte	.LASF65
 1142 048b 09       		.byte	0x9
 1143 048c D4       		.byte	0xd4
 1144 048d 12070000 		.4byte	0x712
 1145 0491 02       		.byte	0x2
 1146 0492 23       		.byte	0x23
 1147 0493 43       		.uleb128 0x43
 1148 0494 08       		.uleb128 0x8
 1149 0495 5F6C6200 		.ascii	"_lb\000"
 1150 0499 09       		.byte	0x9
 1151 049a D7       		.byte	0xd7
ARM GAS  C:\Users\Diogo\AppData\Local\Temp\ccJhW7HY.s 			page 26


 1152 049b 6E030000 		.4byte	0x36e
 1153 049f 02       		.byte	0x2
 1154 04a0 23       		.byte	0x23
 1155 04a1 44       		.uleb128 0x44
 1156 04a2 07       		.uleb128 0x7
 1157 04a3 64010000 		.4byte	.LASF66
 1158 04a7 09       		.byte	0x9
 1159 04a8 DA       		.byte	0xda
 1160 04a9 73000000 		.4byte	0x73
 1161 04ad 02       		.byte	0x2
 1162 04ae 23       		.byte	0x23
 1163 04af 4C       		.uleb128 0x4c
 1164 04b0 07       		.uleb128 0x7
 1165 04b1 79010000 		.4byte	.LASF67
 1166 04b5 09       		.byte	0x9
 1167 04b6 DB       		.byte	0xdb
 1168 04b7 19010000 		.4byte	0x119
 1169 04bb 02       		.byte	0x2
 1170 04bc 23       		.byte	0x23
 1171 04bd 50       		.uleb128 0x50
 1172 04be 07       		.uleb128 0x7
 1173 04bf 40000000 		.4byte	.LASF68
 1174 04c3 09       		.byte	0x9
 1175 04c4 DE       		.byte	0xde
 1176 04c5 16050000 		.4byte	0x516
 1177 04c9 02       		.byte	0x2
 1178 04ca 23       		.byte	0x23
 1179 04cb 54       		.uleb128 0x54
 1180 04cc 07       		.uleb128 0x7
 1181 04cd DF020000 		.4byte	.LASF69
 1182 04d1 09       		.byte	0x9
 1183 04d2 E2       		.byte	0xe2
 1184 04d3 9A010000 		.4byte	0x19a
 1185 04d7 02       		.byte	0x2
 1186 04d8 23       		.byte	0x23
 1187 04d9 58       		.uleb128 0x58
 1188 04da 07       		.uleb128 0x7
 1189 04db 99040000 		.4byte	.LASF70
 1190 04df 09       		.byte	0x9
 1191 04e0 E4       		.byte	0xe4
 1192 04e1 8F010000 		.4byte	0x18f
 1193 04e5 02       		.byte	0x2
 1194 04e6 23       		.byte	0x23
 1195 04e7 5C       		.uleb128 0x5c
 1196 04e8 07       		.uleb128 0x7
 1197 04e9 F2020000 		.4byte	.LASF71
 1198 04ed 09       		.byte	0x9
 1199 04ee E5       		.byte	0xe5
 1200 04ef 73000000 		.4byte	0x73
 1201 04f3 02       		.byte	0x2
 1202 04f4 23       		.byte	0x23
 1203 04f5 64       		.uleb128 0x64
 1204 04f6 00       		.byte	0
 1205 04f7 15       		.uleb128 0x15
 1206 04f8 01       		.byte	0x1
 1207 04f9 73000000 		.4byte	0x73
 1208 04fd 16050000 		.4byte	0x516
ARM GAS  C:\Users\Diogo\AppData\Local\Temp\ccJhW7HY.s 			page 27


 1209 0501 16       		.uleb128 0x16
 1210 0502 16050000 		.4byte	0x516
 1211 0506 16       		.uleb128 0x16
 1212 0507 97000000 		.4byte	0x97
 1213 050b 16       		.uleb128 0x16
 1214 050c 7F060000 		.4byte	0x67f
 1215 0510 16       		.uleb128 0x16
 1216 0511 73000000 		.4byte	0x73
 1217 0515 00       		.byte	0
 1218 0516 09       		.uleb128 0x9
 1219 0517 04       		.byte	0x4
 1220 0518 21050000 		.4byte	0x521
 1221 051c 17       		.uleb128 0x17
 1222 051d 16050000 		.4byte	0x516
 1223 0521 18       		.uleb128 0x18
 1224 0522 F7040000 		.4byte	.LASF72
 1225 0526 2804     		.2byte	0x428
 1226 0528 09       		.byte	0x9
 1227 0529 6002     		.2byte	0x260
 1228 052b 7F060000 		.4byte	0x67f
 1229 052f 19       		.uleb128 0x19
 1230 0530 36050000 		.4byte	.LASF73
 1231 0534 09       		.byte	0x9
 1232 0535 6202     		.2byte	0x262
 1233 0537 73000000 		.4byte	0x73
 1234 053b 02       		.byte	0x2
 1235 053c 23       		.byte	0x23
 1236 053d 00       		.uleb128 0
 1237 053e 19       		.uleb128 0x19
 1238 053f 40010000 		.4byte	.LASF74
 1239 0543 09       		.byte	0x9
 1240 0544 6702     		.2byte	0x267
 1241 0546 6F070000 		.4byte	0x76f
 1242 054a 02       		.byte	0x2
 1243 054b 23       		.byte	0x23
 1244 054c 04       		.uleb128 0x4
 1245 054d 19       		.uleb128 0x19
 1246 054e 2F020000 		.4byte	.LASF75
 1247 0552 09       		.byte	0x9
 1248 0553 6702     		.2byte	0x267
 1249 0555 6F070000 		.4byte	0x76f
 1250 0559 02       		.byte	0x2
 1251 055a 23       		.byte	0x23
 1252 055b 08       		.uleb128 0x8
 1253 055c 19       		.uleb128 0x19
 1254 055d DF010000 		.4byte	.LASF76
 1255 0561 09       		.byte	0x9
 1256 0562 6702     		.2byte	0x267
 1257 0564 6F070000 		.4byte	0x76f
 1258 0568 02       		.byte	0x2
 1259 0569 23       		.byte	0x23
 1260 056a 0C       		.uleb128 0xc
 1261 056b 19       		.uleb128 0x19
 1262 056c BA040000 		.4byte	.LASF77
 1263 0570 09       		.byte	0x9
 1264 0571 6902     		.2byte	0x269
 1265 0573 73000000 		.4byte	0x73
ARM GAS  C:\Users\Diogo\AppData\Local\Temp\ccJhW7HY.s 			page 28


 1266 0577 02       		.byte	0x2
 1267 0578 23       		.byte	0x23
 1268 0579 10       		.uleb128 0x10
 1269 057a 19       		.uleb128 0x19
 1270 057b 21000000 		.4byte	.LASF78
 1271 057f 09       		.byte	0x9
 1272 0580 6A02     		.2byte	0x26a
 1273 0582 8A090000 		.4byte	0x98a
 1274 0586 02       		.byte	0x2
 1275 0587 23       		.byte	0x23
 1276 0588 14       		.uleb128 0x14
 1277 0589 19       		.uleb128 0x19
 1278 058a D6040000 		.4byte	.LASF79
 1279 058e 09       		.byte	0x9
 1280 058f 6D02     		.2byte	0x26d
 1281 0591 73000000 		.4byte	0x73
 1282 0595 02       		.byte	0x2
 1283 0596 23       		.byte	0x23
 1284 0597 30       		.uleb128 0x30
 1285 0598 19       		.uleb128 0x19
 1286 0599 C4040000 		.4byte	.LASF80
 1287 059d 09       		.byte	0x9
 1288 059e 6E02     		.2byte	0x26e
 1289 05a0 A0090000 		.4byte	0x9a0
 1290 05a4 02       		.byte	0x2
 1291 05a5 23       		.byte	0x23
 1292 05a6 34       		.uleb128 0x34
 1293 05a7 19       		.uleb128 0x19
 1294 05a8 FF030000 		.4byte	.LASF81
 1295 05ac 09       		.byte	0x9
 1296 05ad 7002     		.2byte	0x270
 1297 05af 73000000 		.4byte	0x73
 1298 05b3 02       		.byte	0x2
 1299 05b4 23       		.byte	0x23
 1300 05b5 38       		.uleb128 0x38
 1301 05b6 19       		.uleb128 0x19
 1302 05b7 CC040000 		.4byte	.LASF82
 1303 05bb 09       		.byte	0x9
 1304 05bc 7202     		.2byte	0x272
 1305 05be B2090000 		.4byte	0x9b2
 1306 05c2 02       		.byte	0x2
 1307 05c3 23       		.byte	0x23
 1308 05c4 3C       		.uleb128 0x3c
 1309 05c5 19       		.uleb128 0x19
 1310 05c6 B5020000 		.4byte	.LASF83
 1311 05ca 09       		.byte	0x9
 1312 05cb 7502     		.2byte	0x275
 1313 05cd 0F020000 		.4byte	0x20f
 1314 05d1 02       		.byte	0x2
 1315 05d2 23       		.byte	0x23
 1316 05d3 40       		.uleb128 0x40
 1317 05d4 19       		.uleb128 0x19
 1318 05d5 04020000 		.4byte	.LASF84
 1319 05d9 09       		.byte	0x9
 1320 05da 7602     		.2byte	0x276
 1321 05dc 73000000 		.4byte	0x73
 1322 05e0 02       		.byte	0x2
ARM GAS  C:\Users\Diogo\AppData\Local\Temp\ccJhW7HY.s 			page 29


 1323 05e1 23       		.byte	0x23
 1324 05e2 44       		.uleb128 0x44
 1325 05e3 19       		.uleb128 0x19
 1326 05e4 A7060000 		.4byte	.LASF85
 1327 05e8 09       		.byte	0x9
 1328 05e9 7702     		.2byte	0x277
 1329 05eb 0F020000 		.4byte	0x20f
 1330 05ef 02       		.byte	0x2
 1331 05f0 23       		.byte	0x23
 1332 05f1 48       		.uleb128 0x48
 1333 05f2 19       		.uleb128 0x19
 1334 05f3 22040000 		.4byte	.LASF86
 1335 05f7 09       		.byte	0x9
 1336 05f8 7802     		.2byte	0x278
 1337 05fa B8090000 		.4byte	0x9b8
 1338 05fe 02       		.byte	0x2
 1339 05ff 23       		.byte	0x23
 1340 0600 4C       		.uleb128 0x4c
 1341 0601 19       		.uleb128 0x19
 1342 0602 37020000 		.4byte	.LASF87
 1343 0606 09       		.byte	0x9
 1344 0607 7B02     		.2byte	0x27b
 1345 0609 73000000 		.4byte	0x73
 1346 060d 02       		.byte	0x2
 1347 060e 23       		.byte	0x23
 1348 060f 50       		.uleb128 0x50
 1349 0610 19       		.uleb128 0x19
 1350 0611 3A040000 		.4byte	.LASF88
 1351 0615 09       		.byte	0x9
 1352 0616 7C02     		.2byte	0x27c
 1353 0618 7F060000 		.4byte	0x67f
 1354 061c 02       		.byte	0x2
 1355 061d 23       		.byte	0x23
 1356 061e 54       		.uleb128 0x54
 1357 061f 19       		.uleb128 0x19
 1358 0620 50040000 		.4byte	.LASF89
 1359 0624 09       		.byte	0x9
 1360 0625 9F02     		.2byte	0x29f
 1361 0627 68090000 		.4byte	0x968
 1362 062b 02       		.byte	0x2
 1363 062c 23       		.byte	0x23
 1364 062d 58       		.uleb128 0x58
 1365 062e 19       		.uleb128 0x19
 1366 062f ED030000 		.4byte	.LASF49
 1367 0633 09       		.byte	0x9
 1368 0634 A302     		.2byte	0x2a3
 1369 0636 50030000 		.4byte	0x350
 1370 063a 03       		.byte	0x3
 1371 063b 23       		.byte	0x23
 1372 063c C802     		.uleb128 0x148
 1373 063e 19       		.uleb128 0x19
 1374 063f 93020000 		.4byte	.LASF90
 1375 0643 09       		.byte	0x9
 1376 0644 A402     		.2byte	0x2a4
 1377 0646 09030000 		.4byte	0x309
 1378 064a 03       		.byte	0x3
 1379 064b 23       		.byte	0x23
ARM GAS  C:\Users\Diogo\AppData\Local\Temp\ccJhW7HY.s 			page 30


 1380 064c CC02     		.uleb128 0x14c
 1381 064e 19       		.uleb128 0x19
 1382 064f 44060000 		.4byte	.LASF91
 1383 0653 09       		.byte	0x9
 1384 0654 A802     		.2byte	0x2a8
 1385 0656 CA090000 		.4byte	0x9ca
 1386 065a 03       		.byte	0x3
 1387 065b 23       		.byte	0x23
 1388 065c DC05     		.uleb128 0x2dc
 1389 065e 19       		.uleb128 0x19
 1390 065f 0A010000 		.4byte	.LASF92
 1391 0663 09       		.byte	0x9
 1392 0664 AD02     		.2byte	0x2ad
 1393 0666 2E070000 		.4byte	0x72e
 1394 066a 03       		.byte	0x3
 1395 066b 23       		.byte	0x23
 1396 066c E005     		.uleb128 0x2e0
 1397 066e 19       		.uleb128 0x19
 1398 066f EF000000 		.4byte	.LASF93
 1399 0673 09       		.byte	0x9
 1400 0674 AF02     		.2byte	0x2af
 1401 0676 D6090000 		.4byte	0x9d6
 1402 067a 03       		.byte	0x3
 1403 067b 23       		.byte	0x23
 1404 067c EC05     		.uleb128 0x2ec
 1405 067e 00       		.byte	0
 1406 067f 09       		.uleb128 0x9
 1407 0680 04       		.byte	0x4
 1408 0681 85060000 		.4byte	0x685
 1409 0685 02       		.uleb128 0x2
 1410 0686 01       		.byte	0x1
 1411 0687 08       		.byte	0x8
 1412 0688 3D050000 		.4byte	.LASF94
 1413 068c 17       		.uleb128 0x17
 1414 068d 85060000 		.4byte	0x685
 1415 0691 09       		.uleb128 0x9
 1416 0692 04       		.byte	0x4
 1417 0693 F7040000 		.4byte	0x4f7
 1418 0697 15       		.uleb128 0x15
 1419 0698 01       		.byte	0x1
 1420 0699 73000000 		.4byte	0x73
 1421 069d B6060000 		.4byte	0x6b6
 1422 06a1 16       		.uleb128 0x16
 1423 06a2 16050000 		.4byte	0x516
 1424 06a6 16       		.uleb128 0x16
 1425 06a7 97000000 		.4byte	0x97
 1426 06ab 16       		.uleb128 0x16
 1427 06ac B6060000 		.4byte	0x6b6
 1428 06b0 16       		.uleb128 0x16
 1429 06b1 73000000 		.4byte	0x73
 1430 06b5 00       		.byte	0
 1431 06b6 09       		.uleb128 0x9
 1432 06b7 04       		.byte	0x4
 1433 06b8 8C060000 		.4byte	0x68c
 1434 06bc 09       		.uleb128 0x9
 1435 06bd 04       		.byte	0x4
 1436 06be 97060000 		.4byte	0x697
ARM GAS  C:\Users\Diogo\AppData\Local\Temp\ccJhW7HY.s 			page 31


 1437 06c2 15       		.uleb128 0x15
 1438 06c3 01       		.byte	0x1
 1439 06c4 24010000 		.4byte	0x124
 1440 06c8 E1060000 		.4byte	0x6e1
 1441 06cc 16       		.uleb128 0x16
 1442 06cd 16050000 		.4byte	0x516
 1443 06d1 16       		.uleb128 0x16
 1444 06d2 97000000 		.4byte	0x97
 1445 06d6 16       		.uleb128 0x16
 1446 06d7 24010000 		.4byte	0x124
 1447 06db 16       		.uleb128 0x16
 1448 06dc 73000000 		.4byte	0x73
 1449 06e0 00       		.byte	0
 1450 06e1 09       		.uleb128 0x9
 1451 06e2 04       		.byte	0x4
 1452 06e3 C2060000 		.4byte	0x6c2
 1453 06e7 15       		.uleb128 0x15
 1454 06e8 01       		.byte	0x1
 1455 06e9 73000000 		.4byte	0x73
 1456 06ed FC060000 		.4byte	0x6fc
 1457 06f1 16       		.uleb128 0x16
 1458 06f2 16050000 		.4byte	0x516
 1459 06f6 16       		.uleb128 0x16
 1460 06f7 97000000 		.4byte	0x97
 1461 06fb 00       		.byte	0
 1462 06fc 09       		.uleb128 0x9
 1463 06fd 04       		.byte	0x4
 1464 06fe E7060000 		.4byte	0x6e7
 1465 0702 10       		.uleb128 0x10
 1466 0703 37000000 		.4byte	0x37
 1467 0707 12070000 		.4byte	0x712
 1468 070b 11       		.uleb128 0x11
 1469 070c 7A000000 		.4byte	0x7a
 1470 0710 02       		.byte	0x2
 1471 0711 00       		.byte	0
 1472 0712 10       		.uleb128 0x10
 1473 0713 37000000 		.4byte	0x37
 1474 0717 22070000 		.4byte	0x722
 1475 071b 11       		.uleb128 0x11
 1476 071c 7A000000 		.4byte	0x7a
 1477 0720 00       		.byte	0
 1478 0721 00       		.byte	0
 1479 0722 0D       		.uleb128 0xd
 1480 0723 7F040000 		.4byte	.LASF95
 1481 0727 09       		.byte	0x9
 1482 0728 1F01     		.2byte	0x11f
 1483 072a 9D030000 		.4byte	0x39d
 1484 072e 1A       		.uleb128 0x1a
 1485 072f 15060000 		.4byte	.LASF96
 1486 0733 0C       		.byte	0xc
 1487 0734 09       		.byte	0x9
 1488 0735 2301     		.2byte	0x123
 1489 0737 69070000 		.4byte	0x769
 1490 073b 19       		.uleb128 0x19
 1491 073c 5A050000 		.4byte	.LASF30
 1492 0740 09       		.byte	0x9
 1493 0741 2501     		.2byte	0x125
ARM GAS  C:\Users\Diogo\AppData\Local\Temp\ccJhW7HY.s 			page 32


 1494 0743 69070000 		.4byte	0x769
 1495 0747 02       		.byte	0x2
 1496 0748 23       		.byte	0x23
 1497 0749 00       		.uleb128 0
 1498 074a 19       		.uleb128 0x19
 1499 074b 79020000 		.4byte	.LASF97
 1500 074f 09       		.byte	0x9
 1501 0750 2601     		.2byte	0x126
 1502 0752 73000000 		.4byte	0x73
 1503 0756 02       		.byte	0x2
 1504 0757 23       		.byte	0x23
 1505 0758 04       		.uleb128 0x4
 1506 0759 19       		.uleb128 0x19
 1507 075a 79040000 		.4byte	.LASF98
 1508 075e 09       		.byte	0x9
 1509 075f 2701     		.2byte	0x127
 1510 0761 6F070000 		.4byte	0x76f
 1511 0765 02       		.byte	0x2
 1512 0766 23       		.byte	0x23
 1513 0767 08       		.uleb128 0x8
 1514 0768 00       		.byte	0
 1515 0769 09       		.uleb128 0x9
 1516 076a 04       		.byte	0x4
 1517 076b 2E070000 		.4byte	0x72e
 1518 076f 09       		.uleb128 0x9
 1519 0770 04       		.byte	0x4
 1520 0771 22070000 		.4byte	0x722
 1521 0775 1A       		.uleb128 0x1a
 1522 0776 19000000 		.4byte	.LASF99
 1523 077a 0E       		.byte	0xe
 1524 077b 09       		.byte	0x9
 1525 077c 3F01     		.2byte	0x13f
 1526 077e B0070000 		.4byte	0x7b0
 1527 0782 19       		.uleb128 0x19
 1528 0783 FE040000 		.4byte	.LASF100
 1529 0787 09       		.byte	0x9
 1530 0788 4001     		.2byte	0x140
 1531 078a B0070000 		.4byte	0x7b0
 1532 078e 02       		.byte	0x2
 1533 078f 23       		.byte	0x23
 1534 0790 00       		.uleb128 0
 1535 0791 19       		.uleb128 0x19
 1536 0792 54050000 		.4byte	.LASF101
 1537 0796 09       		.byte	0x9
 1538 0797 4101     		.2byte	0x141
 1539 0799 B0070000 		.4byte	0x7b0
 1540 079d 02       		.byte	0x2
 1541 079e 23       		.byte	0x23
 1542 079f 06       		.uleb128 0x6
 1543 07a0 19       		.uleb128 0x19
 1544 07a1 8E050000 		.4byte	.LASF102
 1545 07a5 09       		.byte	0x9
 1546 07a6 4201     		.2byte	0x142
 1547 07a8 45000000 		.4byte	0x45
 1548 07ac 02       		.byte	0x2
 1549 07ad 23       		.byte	0x23
 1550 07ae 0C       		.uleb128 0xc
ARM GAS  C:\Users\Diogo\AppData\Local\Temp\ccJhW7HY.s 			page 33


 1551 07af 00       		.byte	0
 1552 07b0 10       		.uleb128 0x10
 1553 07b1 45000000 		.4byte	0x45
 1554 07b5 C0070000 		.4byte	0x7c0
 1555 07b9 11       		.uleb128 0x11
 1556 07ba 7A000000 		.4byte	0x7a
 1557 07be 02       		.byte	0x2
 1558 07bf 00       		.byte	0
 1559 07c0 1B       		.uleb128 0x1b
 1560 07c1 D0       		.byte	0xd0
 1561 07c2 09       		.byte	0x9
 1562 07c3 8002     		.2byte	0x280
 1563 07c5 F0080000 		.4byte	0x8f0
 1564 07c9 19       		.uleb128 0x19
 1565 07ca C8050000 		.4byte	.LASF103
 1566 07ce 09       		.byte	0x9
 1567 07cf 8202     		.2byte	0x282
 1568 07d1 7A000000 		.4byte	0x7a
 1569 07d5 02       		.byte	0x2
 1570 07d6 23       		.byte	0x23
 1571 07d7 00       		.uleb128 0
 1572 07d8 19       		.uleb128 0x19
 1573 07d9 6B050000 		.4byte	.LASF104
 1574 07dd 09       		.byte	0x9
 1575 07de 8302     		.2byte	0x283
 1576 07e0 7F060000 		.4byte	0x67f
 1577 07e4 02       		.byte	0x2
 1578 07e5 23       		.byte	0x23
 1579 07e6 04       		.uleb128 0x4
 1580 07e7 19       		.uleb128 0x19
 1581 07e8 A8020000 		.4byte	.LASF105
 1582 07ec 09       		.byte	0x9
 1583 07ed 8402     		.2byte	0x284
 1584 07ef F0080000 		.4byte	0x8f0
 1585 07f3 02       		.byte	0x2
 1586 07f4 23       		.byte	0x23
 1587 07f5 08       		.uleb128 0x8
 1588 07f6 19       		.uleb128 0x19
 1589 07f7 75060000 		.4byte	.LASF106
 1590 07fb 09       		.byte	0x9
 1591 07fc 8502     		.2byte	0x285
 1592 07fe 25020000 		.4byte	0x225
 1593 0802 02       		.byte	0x2
 1594 0803 23       		.byte	0x23
 1595 0804 24       		.uleb128 0x24
 1596 0805 19       		.uleb128 0x19
 1597 0806 EF010000 		.4byte	.LASF107
 1598 080a 09       		.byte	0x9
 1599 080b 8602     		.2byte	0x286
 1600 080d 73000000 		.4byte	0x73
 1601 0811 02       		.byte	0x2
 1602 0812 23       		.byte	0x23
 1603 0813 48       		.uleb128 0x48
 1604 0814 19       		.uleb128 0x19
 1605 0815 A2040000 		.4byte	.LASF108
 1606 0819 09       		.byte	0x9
 1607 081a 8702     		.2byte	0x287
ARM GAS  C:\Users\Diogo\AppData\Local\Temp\ccJhW7HY.s 			page 34


 1608 081c 6C000000 		.4byte	0x6c
 1609 0820 02       		.byte	0x2
 1610 0821 23       		.byte	0x23
 1611 0822 50       		.uleb128 0x50
 1612 0823 19       		.uleb128 0x19
 1613 0824 8B060000 		.4byte	.LASF109
 1614 0828 09       		.byte	0x9
 1615 0829 8802     		.2byte	0x288
 1616 082b 75070000 		.4byte	0x775
 1617 082f 02       		.byte	0x2
 1618 0830 23       		.byte	0x23
 1619 0831 58       		.uleb128 0x58
 1620 0832 19       		.uleb128 0x19
 1621 0833 AD040000 		.4byte	.LASF110
 1622 0837 09       		.byte	0x9
 1623 0838 8902     		.2byte	0x289
 1624 083a 8F010000 		.4byte	0x18f
 1625 083e 02       		.byte	0x2
 1626 083f 23       		.byte	0x23
 1627 0840 68       		.uleb128 0x68
 1628 0841 19       		.uleb128 0x19
 1629 0842 99060000 		.4byte	.LASF111
 1630 0846 09       		.byte	0x9
 1631 0847 8A02     		.2byte	0x28a
 1632 0849 8F010000 		.4byte	0x18f
 1633 084d 02       		.byte	0x2
 1634 084e 23       		.byte	0x23
 1635 084f 70       		.uleb128 0x70
 1636 0850 19       		.uleb128 0x19
 1637 0851 2C040000 		.4byte	.LASF112
 1638 0855 09       		.byte	0x9
 1639 0856 8B02     		.2byte	0x28b
 1640 0858 8F010000 		.4byte	0x18f
 1641 085c 02       		.byte	0x2
 1642 085d 23       		.byte	0x23
 1643 085e 78       		.uleb128 0x78
 1644 085f 19       		.uleb128 0x19
 1645 0860 3A060000 		.4byte	.LASF113
 1646 0864 09       		.byte	0x9
 1647 0865 8C02     		.2byte	0x28c
 1648 0867 00090000 		.4byte	0x900
 1649 086b 03       		.byte	0x3
 1650 086c 23       		.byte	0x23
 1651 086d 8001     		.uleb128 0x80
 1652 086f 19       		.uleb128 0x19
 1653 0870 9C020000 		.4byte	.LASF114
 1654 0874 09       		.byte	0x9
 1655 0875 8D02     		.2byte	0x28d
 1656 0877 10090000 		.4byte	0x910
 1657 087b 03       		.byte	0x3
 1658 087c 23       		.byte	0x23
 1659 087d 8801     		.uleb128 0x88
 1660 087f 19       		.uleb128 0x19
 1661 0880 9B050000 		.4byte	.LASF115
 1662 0884 09       		.byte	0x9
 1663 0885 8E02     		.2byte	0x28e
 1664 0887 73000000 		.4byte	0x73
ARM GAS  C:\Users\Diogo\AppData\Local\Temp\ccJhW7HY.s 			page 35


 1665 088b 03       		.byte	0x3
 1666 088c 23       		.byte	0x23
 1667 088d A001     		.uleb128 0xa0
 1668 088f 19       		.uleb128 0x19
 1669 0890 92010000 		.4byte	.LASF116
 1670 0894 09       		.byte	0x9
 1671 0895 8F02     		.2byte	0x28f
 1672 0897 8F010000 		.4byte	0x18f
 1673 089b 03       		.byte	0x3
 1674 089c 23       		.byte	0x23
 1675 089d A401     		.uleb128 0xa4
 1676 089f 19       		.uleb128 0x19
 1677 08a0 91000000 		.4byte	.LASF117
 1678 08a4 09       		.byte	0x9
 1679 08a5 9002     		.2byte	0x290
 1680 08a7 8F010000 		.4byte	0x18f
 1681 08ab 03       		.byte	0x3
 1682 08ac 23       		.byte	0x23
 1683 08ad AC01     		.uleb128 0xac
 1684 08af 19       		.uleb128 0x19
 1685 08b0 81010000 		.4byte	.LASF118
 1686 08b4 09       		.byte	0x9
 1687 08b5 9102     		.2byte	0x291
 1688 08b7 8F010000 		.4byte	0x18f
 1689 08bb 03       		.byte	0x3
 1690 08bc 23       		.byte	0x23
 1691 08bd B401     		.uleb128 0xb4
 1692 08bf 19       		.uleb128 0x19
 1693 08c0 46000000 		.4byte	.LASF119
 1694 08c4 09       		.byte	0x9
 1695 08c5 9202     		.2byte	0x292
 1696 08c7 8F010000 		.4byte	0x18f
 1697 08cb 03       		.byte	0x3
 1698 08cc 23       		.byte	0x23
 1699 08cd BC01     		.uleb128 0xbc
 1700 08cf 19       		.uleb128 0x19
 1701 08d0 55000000 		.4byte	.LASF120
 1702 08d4 09       		.byte	0x9
 1703 08d5 9302     		.2byte	0x293
 1704 08d7 8F010000 		.4byte	0x18f
 1705 08db 03       		.byte	0x3
 1706 08dc 23       		.byte	0x23
 1707 08dd C401     		.uleb128 0xc4
 1708 08df 19       		.uleb128 0x19
 1709 08e0 55040000 		.4byte	.LASF121
 1710 08e4 09       		.byte	0x9
 1711 08e5 9402     		.2byte	0x294
 1712 08e7 73000000 		.4byte	0x73
 1713 08eb 03       		.byte	0x3
 1714 08ec 23       		.byte	0x23
 1715 08ed CC01     		.uleb128 0xcc
 1716 08ef 00       		.byte	0
 1717 08f0 10       		.uleb128 0x10
 1718 08f1 85060000 		.4byte	0x685
 1719 08f5 00090000 		.4byte	0x900
 1720 08f9 11       		.uleb128 0x11
 1721 08fa 7A000000 		.4byte	0x7a
ARM GAS  C:\Users\Diogo\AppData\Local\Temp\ccJhW7HY.s 			page 36


 1722 08fe 19       		.byte	0x19
 1723 08ff 00       		.byte	0
 1724 0900 10       		.uleb128 0x10
 1725 0901 85060000 		.4byte	0x685
 1726 0905 10090000 		.4byte	0x910
 1727 0909 11       		.uleb128 0x11
 1728 090a 7A000000 		.4byte	0x7a
 1729 090e 07       		.byte	0x7
 1730 090f 00       		.byte	0
 1731 0910 10       		.uleb128 0x10
 1732 0911 85060000 		.4byte	0x685
 1733 0915 20090000 		.4byte	0x920
 1734 0919 11       		.uleb128 0x11
 1735 091a 7A000000 		.4byte	0x7a
 1736 091e 17       		.byte	0x17
 1737 091f 00       		.byte	0
 1738 0920 1B       		.uleb128 0x1b
 1739 0921 F0       		.byte	0xf0
 1740 0922 09       		.byte	0x9
 1741 0923 9902     		.2byte	0x299
 1742 0925 48090000 		.4byte	0x948
 1743 0929 19       		.uleb128 0x19
 1744 092a D4030000 		.4byte	.LASF122
 1745 092e 09       		.byte	0x9
 1746 092f 9C02     		.2byte	0x29c
 1747 0931 48090000 		.4byte	0x948
 1748 0935 02       		.byte	0x2
 1749 0936 23       		.byte	0x23
 1750 0937 00       		.uleb128 0
 1751 0938 19       		.uleb128 0x19
 1752 0939 A9030000 		.4byte	.LASF123
 1753 093d 09       		.byte	0x9
 1754 093e 9D02     		.2byte	0x29d
 1755 0940 58090000 		.4byte	0x958
 1756 0944 02       		.byte	0x2
 1757 0945 23       		.byte	0x23
 1758 0946 78       		.uleb128 0x78
 1759 0947 00       		.byte	0
 1760 0948 10       		.uleb128 0x10
 1761 0949 97030000 		.4byte	0x397
 1762 094d 58090000 		.4byte	0x958
 1763 0951 11       		.uleb128 0x11
 1764 0952 7A000000 		.4byte	0x7a
 1765 0956 1D       		.byte	0x1d
 1766 0957 00       		.byte	0
 1767 0958 10       		.uleb128 0x10
 1768 0959 7A000000 		.4byte	0x7a
 1769 095d 68090000 		.4byte	0x968
 1770 0961 11       		.uleb128 0x11
 1771 0962 7A000000 		.4byte	0x7a
 1772 0966 1D       		.byte	0x1d
 1773 0967 00       		.byte	0
 1774 0968 1C       		.uleb128 0x1c
 1775 0969 F0       		.byte	0xf0
 1776 096a 09       		.byte	0x9
 1777 096b 7E02     		.2byte	0x27e
 1778 096d 8A090000 		.4byte	0x98a
ARM GAS  C:\Users\Diogo\AppData\Local\Temp\ccJhW7HY.s 			page 37


 1779 0971 1D       		.uleb128 0x1d
 1780 0972 F7040000 		.4byte	.LASF72
 1781 0976 09       		.byte	0x9
 1782 0977 9502     		.2byte	0x295
 1783 0979 C0070000 		.4byte	0x7c0
 1784 097d 1D       		.uleb128 0x1d
 1785 097e 62060000 		.4byte	.LASF124
 1786 0982 09       		.byte	0x9
 1787 0983 9E02     		.2byte	0x29e
 1788 0985 20090000 		.4byte	0x920
 1789 0989 00       		.byte	0
 1790 098a 10       		.uleb128 0x10
 1791 098b 85060000 		.4byte	0x685
 1792 098f 9A090000 		.4byte	0x99a
 1793 0993 11       		.uleb128 0x11
 1794 0994 7A000000 		.4byte	0x7a
 1795 0998 18       		.byte	0x18
 1796 0999 00       		.byte	0
 1797 099a 0C       		.uleb128 0xc
 1798 099b 86000000 		.4byte	.LASF126
 1799 099f 01       		.byte	0x1
 1800 09a0 09       		.uleb128 0x9
 1801 09a1 04       		.byte	0x4
 1802 09a2 9A090000 		.4byte	0x99a
 1803 09a6 1E       		.uleb128 0x1e
 1804 09a7 01       		.byte	0x1
 1805 09a8 B2090000 		.4byte	0x9b2
 1806 09ac 16       		.uleb128 0x16
 1807 09ad 16050000 		.4byte	0x516
 1808 09b1 00       		.byte	0
 1809 09b2 09       		.uleb128 0x9
 1810 09b3 04       		.byte	0x4
 1811 09b4 A6090000 		.4byte	0x9a6
 1812 09b8 09       		.uleb128 0x9
 1813 09b9 04       		.byte	0x4
 1814 09ba 0F020000 		.4byte	0x20f
 1815 09be 1E       		.uleb128 0x1e
 1816 09bf 01       		.byte	0x1
 1817 09c0 CA090000 		.4byte	0x9ca
 1818 09c4 16       		.uleb128 0x16
 1819 09c5 73000000 		.4byte	0x73
 1820 09c9 00       		.byte	0
 1821 09ca 09       		.uleb128 0x9
 1822 09cb 04       		.byte	0x4
 1823 09cc D0090000 		.4byte	0x9d0
 1824 09d0 09       		.uleb128 0x9
 1825 09d1 04       		.byte	0x4
 1826 09d2 BE090000 		.4byte	0x9be
 1827 09d6 10       		.uleb128 0x10
 1828 09d7 22070000 		.4byte	0x722
 1829 09db E6090000 		.4byte	0x9e6
 1830 09df 11       		.uleb128 0x11
 1831 09e0 7A000000 		.4byte	0x7a
 1832 09e4 02       		.byte	0x2
 1833 09e5 00       		.byte	0
 1834 09e6 1F       		.uleb128 0x1f
 1835 09e7 22050000 		.4byte	.LASF127
ARM GAS  C:\Users\Diogo\AppData\Local\Temp\ccJhW7HY.s 			page 38


 1836 09eb 09       		.byte	0x9
 1837 09ec 2E03     		.2byte	0x32e
 1838 09ee 16050000 		.4byte	0x516
 1839 09f2 01       		.byte	0x1
 1840 09f3 01       		.byte	0x1
 1841 09f4 1F       		.uleb128 0x1f
 1842 09f5 B5050000 		.4byte	.LASF128
 1843 09f9 09       		.byte	0x9
 1844 09fa 2F03     		.2byte	0x32f
 1845 09fc 1C050000 		.4byte	0x51c
 1846 0a00 01       		.byte	0x1
 1847 0a01 01       		.byte	0x1
 1848 0a02 20       		.uleb128 0x20
 1849 0a03 F5030000 		.4byte	.LASF129
 1850 0a07 0A       		.byte	0xa
 1851 0a08 63       		.byte	0x63
 1852 0a09 7F060000 		.4byte	0x67f
 1853 0a0d 01       		.byte	0x1
 1854 0a0e 01       		.byte	0x1
 1855 0a0f 21       		.uleb128 0x21
 1856 0a10 C3020000 		.4byte	.LASF130
 1857 0a14 01       		.byte	0x1
 1858 0a15 0E       		.byte	0xe
 1859 0a16 8C000000 		.4byte	0x8c
 1860 0a1a 01       		.byte	0x1
 1861 0a1b 05       		.byte	0x5
 1862 0a1c 03       		.byte	0x3
 1863 0a1d 00000000 		.4byte	activeThread
 1864 0a21 10       		.uleb128 0x10
 1865 0a22 8C000000 		.4byte	0x8c
 1866 0a26 310A0000 		.4byte	0xa31
 1867 0a2a 11       		.uleb128 0x11
 1868 0a2b 7A000000 		.4byte	0x7a
 1869 0a2f 3F       		.byte	0x3f
 1870 0a30 00       		.byte	0
 1871 0a31 21       		.uleb128 0x21
 1872 0a32 B2030000 		.4byte	.LASF131
 1873 0a36 02       		.byte	0x2
 1874 0a37 32       		.byte	0x32
 1875 0a38 210A0000 		.4byte	0xa21
 1876 0a3c 01       		.byte	0x1
 1877 0a3d 05       		.byte	0x5
 1878 0a3e 03       		.byte	0x3
 1879 0a3f 00000000 		.4byte	Thread1Stack
 1880 0a43 21       		.uleb128 0x21
 1881 0a44 A8050000 		.4byte	.LASF132
 1882 0a48 02       		.byte	0x2
 1883 0a49 33       		.byte	0x33
 1884 0a4a 210A0000 		.4byte	0xa21
 1885 0a4e 01       		.byte	0x1
 1886 0a4f 05       		.byte	0x5
 1887 0a50 03       		.byte	0x3
 1888 0a51 00000000 		.4byte	Thread2Stack
 1889 0a55 10       		.uleb128 0x10
 1890 0a56 F0000000 		.4byte	0xf0
 1891 0a5a 650A0000 		.4byte	0xa65
 1892 0a5e 11       		.uleb128 0x11
ARM GAS  C:\Users\Diogo\AppData\Local\Temp\ccJhW7HY.s 			page 39


 1893 0a5f 7A000000 		.4byte	0x7a
 1894 0a63 14       		.byte	0x14
 1895 0a64 00       		.byte	0
 1896 0a65 21       		.uleb128 0x21
 1897 0a66 78050000 		.4byte	.LASF133
 1898 0a6a 02       		.byte	0x2
 1899 0a6b 36       		.byte	0x36
 1900 0a6c 550A0000 		.4byte	0xa55
 1901 0a70 01       		.byte	0x1
 1902 0a71 05       		.byte	0x5
 1903 0a72 03       		.byte	0x3
 1904 0a73 00000000 		.4byte	task
 1905 0a77 10       		.uleb128 0x10
 1906 0a78 8C000000 		.4byte	0x8c
 1907 0a7c 8D0A0000 		.4byte	0xa8d
 1908 0a80 11       		.uleb128 0x11
 1909 0a81 7A000000 		.4byte	0x7a
 1910 0a85 13       		.byte	0x13
 1911 0a86 11       		.uleb128 0x11
 1912 0a87 7A000000 		.4byte	0x7a
 1913 0a8b 3F       		.byte	0x3f
 1914 0a8c 00       		.byte	0
 1915 0a8d 21       		.uleb128 0x21
 1916 0a8e E5020000 		.4byte	.LASF134
 1917 0a92 02       		.byte	0x2
 1918 0a93 37       		.byte	0x37
 1919 0a94 770A0000 		.4byte	0xa77
 1920 0a98 01       		.byte	0x1
 1921 0a99 05       		.byte	0x5
 1922 0a9a 03       		.byte	0x3
 1923 0a9b 00000000 		.4byte	ThreadStacks
 1924 0a9f 21       		.uleb128 0x21
 1925 0aa0 6A020000 		.4byte	.LASF135
 1926 0aa4 02       		.byte	0x2
 1927 0aa5 4A       		.byte	0x4a
 1928 0aa6 8C000000 		.4byte	0x8c
 1929 0aaa 01       		.byte	0x1
 1930 0aab 05       		.byte	0x5
 1931 0aac 03       		.byte	0x3
 1932 0aad 00000000 		.4byte	g_ui32SysClock
 1933 0ab1 22       		.uleb128 0x22
 1934 0ab2 01       		.byte	0x1
 1935 0ab3 AC060000 		.4byte	.LASF136
 1936 0ab7 02       		.byte	0x2
 1937 0ab8 90       		.byte	0x90
 1938 0ab9 01       		.byte	0x1
 1939 0aba 73000000 		.4byte	0x73
 1940 0abe 30010000 		.4byte	.LFB8
 1941 0ac2 00020000 		.4byte	.LFE8
 1942 0ac6 00000000 		.4byte	.LLST10
 1943 0aca 01       		.byte	0x1
 1944 0acb 3D0C0000 		.4byte	0xc3d
 1945 0acf 23       		.uleb128 0x23
 1946 0ad0 40010000 		.4byte	.LVL32
 1947 0ad4 EC0A0000 		.4byte	0xaec
 1948 0ad8 24       		.uleb128 0x24
 1949 0ad9 01       		.byte	0x1
ARM GAS  C:\Users\Diogo\AppData\Local\Temp\ccJhW7HY.s 			page 40


 1950 0ada 50       		.byte	0x50
 1951 0adb 06       		.byte	0x6
 1952 0adc 11       		.byte	0x11
 1953 0add 808D8088 		.sleb128 -251656576
 1953      7F
 1954 0ae2 24       		.uleb128 0x24
 1955 0ae3 01       		.byte	0x1
 1956 0ae4 51       		.byte	0x51
 1957 0ae5 05       		.byte	0x5
 1958 0ae6 0C       		.byte	0xc
 1959 0ae7 000E2707 		.4byte	0x7270e00
 1960 0aeb 00       		.byte	0
 1961 0aec 25       		.uleb128 0x25
 1962 0aed 4C010000 		.4byte	.LVL33
 1963 0af1 810E0000 		.4byte	0xe81
 1964 0af5 040B0000 		.4byte	0xb04
 1965 0af9 24       		.uleb128 0x24
 1966 0afa 01       		.byte	0x1
 1967 0afb 50       		.byte	0x50
 1968 0afc 01       		.byte	0x1
 1969 0afd 30       		.byte	0x30
 1970 0afe 24       		.uleb128 0x24
 1971 0aff 01       		.byte	0x1
 1972 0b00 51       		.byte	0x51
 1973 0b01 01       		.byte	0x1
 1974 0b02 30       		.byte	0x30
 1975 0b03 00       		.byte	0
 1976 0b04 23       		.uleb128 0x23
 1977 0b05 5A010000 		.4byte	.LVL34
 1978 0b09 190B0000 		.4byte	0xb19
 1979 0b0d 24       		.uleb128 0x24
 1980 0b0e 01       		.byte	0x1
 1981 0b0f 50       		.byte	0x50
 1982 0b10 02       		.byte	0x2
 1983 0b11 75       		.byte	0x75
 1984 0b12 00       		.sleb128 0
 1985 0b13 24       		.uleb128 0x24
 1986 0b14 01       		.byte	0x1
 1987 0b15 51       		.byte	0x51
 1988 0b16 01       		.byte	0x1
 1989 0b17 32       		.byte	0x32
 1990 0b18 00       		.byte	0
 1991 0b19 23       		.uleb128 0x23
 1992 0b1a 64010000 		.4byte	.LVL35
 1993 0b1e 2E0B0000 		.4byte	0xb2e
 1994 0b22 24       		.uleb128 0x24
 1995 0b23 01       		.byte	0x1
 1996 0b24 50       		.byte	0x50
 1997 0b25 02       		.byte	0x2
 1998 0b26 75       		.byte	0x75
 1999 0b27 00       		.sleb128 0
 2000 0b28 24       		.uleb128 0x24
 2001 0b29 01       		.byte	0x1
 2002 0b2a 51       		.byte	0x51
 2003 0b2b 01       		.byte	0x1
 2004 0b2c 34       		.byte	0x34
 2005 0b2d 00       		.byte	0
ARM GAS  C:\Users\Diogo\AppData\Local\Temp\ccJhW7HY.s 			page 41


 2006 0b2e 26       		.uleb128 0x26
 2007 0b2f 68010000 		.4byte	.LVL36
 2008 0b33 EF0C0000 		.4byte	0xcef
 2009 0b37 25       		.uleb128 0x25
 2010 0b38 70010000 		.4byte	.LVL37
 2011 0b3c 8E0E0000 		.4byte	0xe8e
 2012 0b40 4B0B0000 		.4byte	0xb4b
 2013 0b44 24       		.uleb128 0x24
 2014 0b45 01       		.byte	0x1
 2015 0b46 50       		.byte	0x50
 2016 0b47 02       		.byte	0x2
 2017 0b48 75       		.byte	0x75
 2018 0b49 00       		.sleb128 0
 2019 0b4a 00       		.byte	0
 2020 0b4b 25       		.uleb128 0x25
 2021 0b4c 76010000 		.4byte	.LVL38
 2022 0b50 8E0E0000 		.4byte	0xe8e
 2023 0b54 5F0B0000 		.4byte	0xb5f
 2024 0b58 24       		.uleb128 0x24
 2025 0b59 01       		.byte	0x1
 2026 0b5a 50       		.byte	0x50
 2027 0b5b 02       		.byte	0x2
 2028 0b5c 75       		.byte	0x75
 2029 0b5d 00       		.sleb128 0
 2030 0b5e 00       		.byte	0
 2031 0b5f 25       		.uleb128 0x25
 2032 0b60 7C010000 		.4byte	.LVL39
 2033 0b64 8E0E0000 		.4byte	0xe8e
 2034 0b68 730B0000 		.4byte	0xb73
 2035 0b6c 24       		.uleb128 0x24
 2036 0b6d 01       		.byte	0x1
 2037 0b6e 50       		.byte	0x50
 2038 0b6f 02       		.byte	0x2
 2039 0b70 75       		.byte	0x75
 2040 0b71 00       		.sleb128 0
 2041 0b72 00       		.byte	0
 2042 0b73 25       		.uleb128 0x25
 2043 0b74 82010000 		.4byte	.LVL40
 2044 0b78 8E0E0000 		.4byte	0xe8e
 2045 0b7c 8A0B0000 		.4byte	0xb8a
 2046 0b80 24       		.uleb128 0x24
 2047 0b81 01       		.byte	0x1
 2048 0b82 50       		.byte	0x50
 2049 0b83 05       		.byte	0x5
 2050 0b84 03       		.byte	0x3
 2051 0b85 6C000000 		.4byte	.LC6
 2052 0b89 00       		.byte	0
 2053 0b8a 25       		.uleb128 0x25
 2054 0b8b 88010000 		.4byte	.LVL41
 2055 0b8f 8E0E0000 		.4byte	0xe8e
 2056 0b93 A10B0000 		.4byte	0xba1
 2057 0b97 24       		.uleb128 0x24
 2058 0b98 01       		.byte	0x1
 2059 0b99 50       		.byte	0x50
 2060 0b9a 05       		.byte	0x5
 2061 0b9b 03       		.byte	0x3
 2062 0b9c 88000000 		.4byte	.LC7
ARM GAS  C:\Users\Diogo\AppData\Local\Temp\ccJhW7HY.s 			page 42


 2063 0ba0 00       		.byte	0
 2064 0ba1 25       		.uleb128 0x25
 2065 0ba2 90010000 		.4byte	.LVL42
 2066 0ba6 9B0E0000 		.4byte	0xe9b
 2067 0baa B90B0000 		.4byte	0xbb9
 2068 0bae 24       		.uleb128 0x24
 2069 0baf 01       		.byte	0x1
 2070 0bb0 50       		.byte	0x50
 2071 0bb1 01       		.byte	0x1
 2072 0bb2 31       		.byte	0x31
 2073 0bb3 24       		.uleb128 0x24
 2074 0bb4 01       		.byte	0x1
 2075 0bb5 51       		.byte	0x51
 2076 0bb6 01       		.byte	0x1
 2077 0bb7 31       		.byte	0x31
 2078 0bb8 00       		.byte	0
 2079 0bb9 25       		.uleb128 0x25
 2080 0bba 98010000 		.4byte	.LVL43
 2081 0bbe 9B0E0000 		.4byte	0xe9b
 2082 0bc2 D10B0000 		.4byte	0xbd1
 2083 0bc6 24       		.uleb128 0x24
 2084 0bc7 01       		.byte	0x1
 2085 0bc8 50       		.byte	0x50
 2086 0bc9 01       		.byte	0x1
 2087 0bca 32       		.byte	0x32
 2088 0bcb 24       		.uleb128 0x24
 2089 0bcc 01       		.byte	0x1
 2090 0bcd 51       		.byte	0x51
 2091 0bce 01       		.byte	0x1
 2092 0bcf 30       		.byte	0x30
 2093 0bd0 00       		.byte	0
 2094 0bd1 26       		.uleb128 0x26
 2095 0bd2 A6010000 		.4byte	.LVL44
 2096 0bd6 A80E0000 		.4byte	0xea8
 2097 0bda 25       		.uleb128 0x25
 2098 0bdb AC010000 		.4byte	.LVL45
 2099 0bdf 8E0E0000 		.4byte	0xe8e
 2100 0be3 F10B0000 		.4byte	0xbf1
 2101 0be7 24       		.uleb128 0x24
 2102 0be8 01       		.byte	0x1
 2103 0be9 50       		.byte	0x50
 2104 0bea 05       		.byte	0x5
 2105 0beb 03       		.byte	0x3
 2106 0bec 98000000 		.4byte	.LC8
 2107 0bf0 00       		.byte	0
 2108 0bf1 25       		.uleb128 0x25
 2109 0bf2 B4010000 		.4byte	.LVL46
 2110 0bf6 9B0E0000 		.4byte	0xe9b
 2111 0bfa 090C0000 		.4byte	0xc09
 2112 0bfe 24       		.uleb128 0x24
 2113 0bff 01       		.byte	0x1
 2114 0c00 50       		.byte	0x50
 2115 0c01 01       		.byte	0x1
 2116 0c02 31       		.byte	0x31
 2117 0c03 24       		.uleb128 0x24
 2118 0c04 01       		.byte	0x1
 2119 0c05 51       		.byte	0x51
ARM GAS  C:\Users\Diogo\AppData\Local\Temp\ccJhW7HY.s 			page 43


 2120 0c06 01       		.byte	0x1
 2121 0c07 30       		.byte	0x30
 2122 0c08 00       		.byte	0
 2123 0c09 25       		.uleb128 0x25
 2124 0c0a BC010000 		.4byte	.LVL47
 2125 0c0e 9B0E0000 		.4byte	0xe9b
 2126 0c12 210C0000 		.4byte	0xc21
 2127 0c16 24       		.uleb128 0x24
 2128 0c17 01       		.byte	0x1
 2129 0c18 50       		.byte	0x50
 2130 0c19 01       		.byte	0x1
 2131 0c1a 32       		.byte	0x32
 2132 0c1b 24       		.uleb128 0x24
 2133 0c1c 01       		.byte	0x1
 2134 0c1d 51       		.byte	0x51
 2135 0c1e 01       		.byte	0x1
 2136 0c1f 31       		.byte	0x31
 2137 0c20 00       		.byte	0
 2138 0c21 26       		.uleb128 0x26
 2139 0c22 C8010000 		.4byte	.LVL48
 2140 0c26 A80E0000 		.4byte	0xea8
 2141 0c2a 26       		.uleb128 0x26
 2142 0c2b CC010000 		.4byte	.LVL49
 2143 0c2f 3D0C0000 		.4byte	0xc3d
 2144 0c33 26       		.uleb128 0x26
 2145 0c34 D0010000 		.4byte	.LVL50
 2146 0c38 B60E0000 		.4byte	0xeb6
 2147 0c3c 00       		.byte	0
 2148 0c3d 27       		.uleb128 0x27
 2149 0c3e 01       		.byte	0x1
 2150 0c3f FA020000 		.4byte	.LASF138
 2151 0c43 02       		.byte	0x2
 2152 0c44 7E       		.byte	0x7e
 2153 0c45 01       		.byte	0x1
 2154 0c46 E8000000 		.4byte	.LFB7
 2155 0c4a 30010000 		.4byte	.LFE7
 2156 0c4e 20000000 		.4byte	.LLST8
 2157 0c52 01       		.byte	0x1
 2158 0c53 B20C0000 		.4byte	0xcb2
 2159 0c57 28       		.uleb128 0x28
 2160 0c58 6900     		.ascii	"i\000"
 2161 0c5a 02       		.byte	0x2
 2162 0c5b 80       		.byte	0x80
 2163 0c5c 73000000 		.4byte	0x73
 2164 0c60 40000000 		.4byte	.LLST9
 2165 0c64 25       		.uleb128 0x25
 2166 0c65 F2000000 		.4byte	.LVL26
 2167 0c69 C30E0000 		.4byte	0xec3
 2168 0c6d 7B0C0000 		.4byte	0xc7b
 2169 0c71 24       		.uleb128 0x24
 2170 0c72 01       		.byte	0x1
 2171 0c73 50       		.byte	0x50
 2172 0c74 05       		.byte	0x5
 2173 0c75 03       		.byte	0x3
 2174 0c76 34000000 		.4byte	.LC3
 2175 0c7a 00       		.byte	0
 2176 0c7b 25       		.uleb128 0x25
ARM GAS  C:\Users\Diogo\AppData\Local\Temp\ccJhW7HY.s 			page 44


 2177 0c7c 06010000 		.4byte	.LVL28
 2178 0c80 8E0E0000 		.4byte	0xe8e
 2179 0c84 950C0000 		.4byte	0xc95
 2180 0c88 24       		.uleb128 0x24
 2181 0c89 01       		.byte	0x1
 2182 0c8a 50       		.byte	0x50
 2183 0c8b 02       		.byte	0x2
 2184 0c8c 78       		.byte	0x78
 2185 0c8d 00       		.sleb128 0
 2186 0c8e 24       		.uleb128 0x24
 2187 0c8f 01       		.byte	0x1
 2188 0c90 51       		.byte	0x51
 2189 0c91 02       		.byte	0x2
 2190 0c92 74       		.byte	0x74
 2191 0c93 00       		.sleb128 0
 2192 0c94 00       		.byte	0
 2193 0c95 29       		.uleb128 0x29
 2194 0c96 10010000 		.4byte	.LVL29
 2195 0c9a D40E0000 		.4byte	0xed4
 2196 0c9e 24       		.uleb128 0x24
 2197 0c9f 01       		.byte	0x1
 2198 0ca0 50       		.byte	0x50
 2199 0ca1 02       		.byte	0x2
 2200 0ca2 77       		.byte	0x77
 2201 0ca3 00       		.sleb128 0
 2202 0ca4 24       		.uleb128 0x24
 2203 0ca5 01       		.byte	0x1
 2204 0ca6 51       		.byte	0x51
 2205 0ca7 02       		.byte	0x2
 2206 0ca8 75       		.byte	0x75
 2207 0ca9 00       		.sleb128 0
 2208 0caa 24       		.uleb128 0x24
 2209 0cab 01       		.byte	0x1
 2210 0cac 52       		.byte	0x52
 2211 0cad 02       		.byte	0x2
 2212 0cae 76       		.byte	0x76
 2213 0caf 00       		.sleb128 0
 2214 0cb0 00       		.byte	0
 2215 0cb1 00       		.byte	0
 2216 0cb2 22       		.uleb128 0x22
 2217 0cb3 01       		.byte	0x1
 2218 0cb4 1B010000 		.4byte	.LASF137
 2219 0cb8 02       		.byte	0x2
 2220 0cb9 77       		.byte	0x77
 2221 0cba 01       		.byte	0x1
 2222 0cbb DD000000 		.4byte	0xdd
 2223 0cbf DC000000 		.4byte	.LFB6
 2224 0cc3 E8000000 		.4byte	.LFE6
 2225 0cc7 5F000000 		.4byte	.LLST7
 2226 0ccb 01       		.byte	0x1
 2227 0ccc EF0C0000 		.4byte	0xcef
 2228 0cd0 2A       		.uleb128 0x2a
 2229 0cd1 61757800 		.ascii	"aux\000"
 2230 0cd5 02       		.byte	0x2
 2231 0cd6 79       		.byte	0x79
 2232 0cd7 DD000000 		.4byte	0xdd
 2233 0cdb 01       		.byte	0x1
ARM GAS  C:\Users\Diogo\AppData\Local\Temp\ccJhW7HY.s 			page 45


 2234 0cdc 50       		.byte	0x50
 2235 0cdd 29       		.uleb128 0x29
 2236 0cde E6000000 		.4byte	.LVL25
 2237 0ce2 E10E0000 		.4byte	0xee1
 2238 0ce6 24       		.uleb128 0x24
 2239 0ce7 01       		.byte	0x1
 2240 0ce8 50       		.byte	0x50
 2241 0ce9 03       		.byte	0x3
 2242 0cea 0A       		.byte	0xa
 2243 0ceb 0001     		.2byte	0x100
 2244 0ced 00       		.byte	0
 2245 0cee 00       		.byte	0
 2246 0cef 27       		.uleb128 0x27
 2247 0cf0 01       		.byte	0x1
 2248 0cf1 4E060000 		.4byte	.LASF139
 2249 0cf5 02       		.byte	0x2
 2250 0cf6 5D       		.byte	0x5d
 2251 0cf7 01       		.byte	0x1
 2252 0cf8 7C000000 		.4byte	.LFB5
 2253 0cfc DC000000 		.4byte	.LFE5
 2254 0d00 7F000000 		.4byte	.LLST6
 2255 0d04 01       		.byte	0x1
 2256 0d05 990D0000 		.4byte	0xd99
 2257 0d09 23       		.uleb128 0x23
 2258 0d0a 88000000 		.4byte	.LVL18
 2259 0d0e 1D0D0000 		.4byte	0xd1d
 2260 0d12 24       		.uleb128 0x24
 2261 0d13 01       		.byte	0x1
 2262 0d14 50       		.byte	0x50
 2263 0d15 06       		.byte	0x6
 2264 0d16 11       		.byte	0x11
 2265 0d17 80908080 		.sleb128 -268433408
 2265      7F
 2266 0d1c 00       		.byte	0
 2267 0d1d 23       		.uleb128 0x23
 2268 0d1e 90000000 		.4byte	.LVL19
 2269 0d22 310D0000 		.4byte	0xd31
 2270 0d26 24       		.uleb128 0x24
 2271 0d27 01       		.byte	0x1
 2272 0d28 50       		.byte	0x50
 2273 0d29 06       		.byte	0x6
 2274 0d2a 11       		.byte	0x11
 2275 0d2b 80B08080 		.sleb128 -268429312
 2275      7F
 2276 0d30 00       		.byte	0
 2277 0d31 23       		.uleb128 0x23
 2278 0d32 9A000000 		.4byte	.LVL20
 2279 0d36 400D0000 		.4byte	0xd40
 2280 0d3a 24       		.uleb128 0x24
 2281 0d3b 01       		.byte	0x1
 2282 0d3c 50       		.byte	0x50
 2283 0d3d 01       		.byte	0x1
 2284 0d3e 31       		.byte	0x31
 2285 0d3f 00       		.byte	0
 2286 0d40 23       		.uleb128 0x23
 2287 0d41 A4000000 		.4byte	.LVL21
 2288 0d45 510D0000 		.4byte	0xd51
ARM GAS  C:\Users\Diogo\AppData\Local\Temp\ccJhW7HY.s 			page 46


 2289 0d49 24       		.uleb128 0x24
 2290 0d4a 01       		.byte	0x1
 2291 0d4b 50       		.byte	0x50
 2292 0d4c 03       		.byte	0x3
 2293 0d4d 0A       		.byte	0xa
 2294 0d4e 0104     		.2byte	0x401
 2295 0d50 00       		.byte	0
 2296 0d51 23       		.uleb128 0x23
 2297 0d52 B0000000 		.4byte	.LVL22
 2298 0d56 690D0000 		.4byte	0xd69
 2299 0d5a 24       		.uleb128 0x24
 2300 0d5b 01       		.byte	0x1
 2301 0d5c 50       		.byte	0x50
 2302 0d5d 05       		.byte	0x5
 2303 0d5e 0C       		.byte	0xc
 2304 0d5f 00400040 		.4byte	0x40004000
 2305 0d63 24       		.uleb128 0x24
 2306 0d64 01       		.byte	0x1
 2307 0d65 51       		.byte	0x51
 2308 0d66 01       		.byte	0x1
 2309 0d67 33       		.byte	0x33
 2310 0d68 00       		.byte	0
 2311 0d69 23       		.uleb128 0x23
 2312 0d6a BC000000 		.4byte	.LVL23
 2313 0d6e 810D0000 		.4byte	0xd81
 2314 0d72 24       		.uleb128 0x24
 2315 0d73 01       		.byte	0x1
 2316 0d74 50       		.byte	0x50
 2317 0d75 05       		.byte	0x5
 2318 0d76 0C       		.byte	0xc
 2319 0d77 00400040 		.4byte	0x40004000
 2320 0d7b 24       		.uleb128 0x24
 2321 0d7c 01       		.byte	0x1
 2322 0d7d 51       		.byte	0x51
 2323 0d7e 01       		.byte	0x1
 2324 0d7f 35       		.byte	0x35
 2325 0d80 00       		.byte	0
 2326 0d81 29       		.uleb128 0x29
 2327 0d82 CA000000 		.4byte	.LVL24
 2328 0d86 EE0E0000 		.4byte	0xeee
 2329 0d8a 24       		.uleb128 0x24
 2330 0d8b 01       		.byte	0x1
 2331 0d8c 50       		.byte	0x50
 2332 0d8d 01       		.byte	0x1
 2333 0d8e 30       		.byte	0x30
 2334 0d8f 24       		.uleb128 0x24
 2335 0d90 01       		.byte	0x1
 2336 0d91 51       		.byte	0x51
 2337 0d92 04       		.byte	0x4
 2338 0d93 08       		.byte	0x8
 2339 0d94 E1       		.byte	0xe1
 2340 0d95 39       		.byte	0x39
 2341 0d96 24       		.byte	0x24
 2342 0d97 00       		.byte	0
 2343 0d98 00       		.byte	0
 2344 0d99 27       		.uleb128 0x27
 2345 0d9a 01       		.byte	0x1
ARM GAS  C:\Users\Diogo\AppData\Local\Temp\ccJhW7HY.s 			page 47


 2346 0d9b 36000000 		.4byte	.LASF140
 2347 0d9f 02       		.byte	0x2
 2348 0da0 52       		.byte	0x52
 2349 0da1 01       		.byte	0x1
 2350 0da2 68000000 		.4byte	.LFB4
 2351 0da6 7C000000 		.4byte	.LFE4
 2352 0daa 9F000000 		.4byte	.LLST3
 2353 0dae 01       		.byte	0x1
 2354 0daf F30D0000 		.4byte	0xdf3
 2355 0db3 2B       		.uleb128 0x2b
 2356 0db4 60050000 		.4byte	.LASF141
 2357 0db8 02       		.byte	0x2
 2358 0db9 52       		.byte	0x52
 2359 0dba 7F060000 		.4byte	0x67f
 2360 0dbe BF000000 		.4byte	.LLST4
 2361 0dc2 2B       		.uleb128 0x2b
 2362 0dc3 E4030000 		.4byte	.LASF142
 2363 0dc7 02       		.byte	0x2
 2364 0dc8 52       		.byte	0x52
 2365 0dc9 8C000000 		.4byte	0x8c
 2366 0dcd EB000000 		.4byte	.LLST5
 2367 0dd1 29       		.uleb128 0x29
 2368 0dd2 74000000 		.4byte	.LVL17
 2369 0dd6 8E0E0000 		.4byte	0xe8e
 2370 0dda 24       		.uleb128 0x24
 2371 0ddb 01       		.byte	0x1
 2372 0ddc 50       		.byte	0x50
 2373 0ddd 05       		.byte	0x5
 2374 0dde 03       		.byte	0x3
 2375 0ddf 2C000000 		.4byte	.LC2
 2376 0de3 24       		.uleb128 0x24
 2377 0de4 01       		.byte	0x1
 2378 0de5 51       		.byte	0x51
 2379 0de6 03       		.byte	0x3
 2380 0de7 F3       		.byte	0xf3
 2381 0de8 01       		.uleb128 0x1
 2382 0de9 50       		.byte	0x50
 2383 0dea 24       		.uleb128 0x24
 2384 0deb 01       		.byte	0x1
 2385 0dec 52       		.byte	0x52
 2386 0ded 03       		.byte	0x3
 2387 0dee F3       		.byte	0xf3
 2388 0def 01       		.uleb128 0x1
 2389 0df0 51       		.byte	0x51
 2390 0df1 00       		.byte	0
 2391 0df2 00       		.byte	0
 2392 0df3 27       		.uleb128 0x27
 2393 0df4 01       		.byte	0x1
 2394 0df5 BF030000 		.4byte	.LASF143
 2395 0df9 01       		.byte	0x1
 2396 0dfa 11       		.byte	0x11
 2397 0dfb 01       		.byte	0x1
 2398 0dfc 00000000 		.4byte	.LFB3
 2399 0e00 68000000 		.4byte	.LFE3
 2400 0e04 17010000 		.4byte	.LLST0
 2401 0e08 01       		.byte	0x1
 2402 0e09 810E0000 		.4byte	0xe81
ARM GAS  C:\Users\Diogo\AppData\Local\Temp\ccJhW7HY.s 			page 48


 2403 0e0d 2C       		.uleb128 0x2c
 2404 0e0e 61726700 		.ascii	"arg\000"
 2405 0e12 01       		.byte	0x1
 2406 0e13 11       		.byte	0x11
 2407 0e14 97000000 		.4byte	0x97
 2408 0e18 37010000 		.4byte	.LLST1
 2409 0e1c 2D       		.uleb128 0x2d
 2410 0e1d FF050000 		.4byte	.LASF144
 2411 0e21 01       		.byte	0x1
 2412 0e22 14       		.byte	0x14
 2413 0e23 81000000 		.4byte	0x81
 2414 0e27 58010000 		.4byte	.LLST2
 2415 0e2b 26       		.uleb128 0x26
 2416 0e2c 12000000 		.4byte	.LVL3
 2417 0e30 FB0E0000 		.4byte	0xefb
 2418 0e34 25       		.uleb128 0x25
 2419 0e35 1A000000 		.4byte	.LVL4
 2420 0e39 8E0E0000 		.4byte	0xe8e
 2421 0e3d 480E0000 		.4byte	0xe48
 2422 0e41 24       		.uleb128 0x24
 2423 0e42 01       		.byte	0x1
 2424 0e43 50       		.byte	0x50
 2425 0e44 02       		.byte	0x2
 2426 0e45 77       		.byte	0x77
 2427 0e46 00       		.sleb128 0
 2428 0e47 00       		.byte	0
 2429 0e48 26       		.uleb128 0x26
 2430 0e49 24000000 		.4byte	.LVL6
 2431 0e4d FB0E0000 		.4byte	0xefb
 2432 0e51 26       		.uleb128 0x26
 2433 0e52 32000000 		.4byte	.LVL8
 2434 0e56 FB0E0000 		.4byte	0xefb
 2435 0e5a 25       		.uleb128 0x25
 2436 0e5b 3A000000 		.4byte	.LVL9
 2437 0e5f 8E0E0000 		.4byte	0xe8e
 2438 0e63 6E0E0000 		.4byte	0xe6e
 2439 0e67 24       		.uleb128 0x24
 2440 0e68 01       		.byte	0x1
 2441 0e69 50       		.byte	0x50
 2442 0e6a 02       		.byte	0x2
 2443 0e6b 76       		.byte	0x76
 2444 0e6c 00       		.sleb128 0
 2445 0e6d 00       		.byte	0
 2446 0e6e 26       		.uleb128 0x26
 2447 0e6f 46000000 		.4byte	.LVL12
 2448 0e73 FB0E0000 		.4byte	0xefb
 2449 0e77 26       		.uleb128 0x26
 2450 0e78 50000000 		.4byte	.LVL13
 2451 0e7c FB0E0000 		.4byte	0xefb
 2452 0e80 00       		.byte	0
 2453 0e81 2E       		.uleb128 0x2e
 2454 0e82 01       		.byte	0x1
 2455 0e83 01       		.byte	0x1
 2456 0e84 A0000000 		.4byte	.LASF145
 2457 0e88 A0000000 		.4byte	.LASF145
 2458 0e8c 0B       		.byte	0xb
 2459 0e8d 43       		.byte	0x43
ARM GAS  C:\Users\Diogo\AppData\Local\Temp\ccJhW7HY.s 			page 49


 2460 0e8e 2E       		.uleb128 0x2e
 2461 0e8f 01       		.byte	0x1
 2462 0e90 01       		.byte	0x1
 2463 0e91 B5010000 		.4byte	.LASF146
 2464 0e95 B5010000 		.4byte	.LASF146
 2465 0e99 0C       		.byte	0xc
 2466 0e9a 41       		.byte	0x41
 2467 0e9b 2E       		.uleb128 0x2e
 2468 0e9c 01       		.byte	0x1
 2469 0e9d 01       		.byte	0x1
 2470 0e9e 4B050000 		.4byte	.LASF147
 2471 0ea2 4B050000 		.4byte	.LASF147
 2472 0ea6 0B       		.byte	0xb
 2473 0ea7 44       		.byte	0x44
 2474 0ea8 2F       		.uleb128 0x2f
 2475 0ea9 01       		.byte	0x1
 2476 0eaa 01       		.byte	0x1
 2477 0eab B3000000 		.4byte	.LASF148
 2478 0eaf B3000000 		.4byte	.LASF148
 2479 0eb3 0D       		.byte	0xd
 2480 0eb4 6802     		.2byte	0x268
 2481 0eb6 2E       		.uleb128 0x2e
 2482 0eb7 01       		.byte	0x1
 2483 0eb8 01       		.byte	0x1
 2484 0eb9 47010000 		.4byte	.LASF149
 2485 0ebd 47010000 		.4byte	.LASF149
 2486 0ec1 05       		.byte	0x5
 2487 0ec2 12       		.byte	0x12
 2488 0ec3 30       		.uleb128 0x30
 2489 0ec4 01       		.byte	0x1
 2490 0ec5 01       		.byte	0x1
 2491 0ec6 A4030000 		.4byte	.LASF157
 2492 0eca 55010000 		.4byte	.LASF158
 2493 0ece 0E       		.byte	0xe
 2494 0ecf 00       		.byte	0
 2495 0ed0 A4030000 		.4byte	.LASF157
 2496 0ed4 2E       		.uleb128 0x2e
 2497 0ed5 01       		.byte	0x1
 2498 0ed6 01       		.byte	0x1
 2499 0ed7 A0010000 		.4byte	.LASF150
 2500 0edb A0010000 		.4byte	.LASF150
 2501 0edf 05       		.byte	0x5
 2502 0ee0 10       		.byte	0x10
 2503 0ee1 2E       		.uleb128 0x2e
 2504 0ee2 01       		.byte	0x1
 2505 0ee3 01       		.byte	0x1
 2506 0ee4 0C000000 		.4byte	.LASF151
 2507 0ee8 0C000000 		.4byte	.LASF151
 2508 0eec 0A       		.byte	0xa
 2509 0eed 68       		.byte	0x68
 2510 0eee 2E       		.uleb128 0x2e
 2511 0eef 01       		.byte	0x1
 2512 0ef0 01       		.byte	0x1
 2513 0ef1 1B060000 		.4byte	.LASF152
 2514 0ef5 1B060000 		.4byte	.LASF152
 2515 0ef9 0C       		.byte	0xc
 2516 0efa 3D       		.byte	0x3d
ARM GAS  C:\Users\Diogo\AppData\Local\Temp\ccJhW7HY.s 			page 50


 2517 0efb 2E       		.uleb128 0x2e
 2518 0efc 01       		.byte	0x1
 2519 0efd 01       		.byte	0x1
 2520 0efe 11040000 		.4byte	.LASF153
 2521 0f02 11040000 		.4byte	.LASF153
 2522 0f06 05       		.byte	0x5
 2523 0f07 11       		.byte	0x11
 2524 0f08 00       		.byte	0
 2525              		.section	.debug_abbrev,"",%progbits
 2526              	.Ldebug_abbrev0:
 2527 0000 01       		.uleb128 0x1
 2528 0001 11       		.uleb128 0x11
 2529 0002 01       		.byte	0x1
 2530 0003 25       		.uleb128 0x25
 2531 0004 0E       		.uleb128 0xe
 2532 0005 13       		.uleb128 0x13
 2533 0006 0B       		.uleb128 0xb
 2534 0007 03       		.uleb128 0x3
 2535 0008 0E       		.uleb128 0xe
 2536 0009 1B       		.uleb128 0x1b
 2537 000a 0E       		.uleb128 0xe
 2538 000b 11       		.uleb128 0x11
 2539 000c 01       		.uleb128 0x1
 2540 000d 12       		.uleb128 0x12
 2541 000e 01       		.uleb128 0x1
 2542 000f 10       		.uleb128 0x10
 2543 0010 06       		.uleb128 0x6
 2544 0011 00       		.byte	0
 2545 0012 00       		.byte	0
 2546 0013 02       		.uleb128 0x2
 2547 0014 24       		.uleb128 0x24
 2548 0015 00       		.byte	0
 2549 0016 0B       		.uleb128 0xb
 2550 0017 0B       		.uleb128 0xb
 2551 0018 3E       		.uleb128 0x3e
 2552 0019 0B       		.uleb128 0xb
 2553 001a 03       		.uleb128 0x3
 2554 001b 0E       		.uleb128 0xe
 2555 001c 00       		.byte	0
 2556 001d 00       		.byte	0
 2557 001e 03       		.uleb128 0x3
 2558 001f 16       		.uleb128 0x16
 2559 0020 00       		.byte	0
 2560 0021 03       		.uleb128 0x3
 2561 0022 0E       		.uleb128 0xe
 2562 0023 3A       		.uleb128 0x3a
 2563 0024 0B       		.uleb128 0xb
 2564 0025 3B       		.uleb128 0x3b
 2565 0026 0B       		.uleb128 0xb
 2566 0027 49       		.uleb128 0x49
 2567 0028 13       		.uleb128 0x13
 2568 0029 00       		.byte	0
 2569 002a 00       		.byte	0
 2570 002b 04       		.uleb128 0x4
 2571 002c 24       		.uleb128 0x24
 2572 002d 00       		.byte	0
 2573 002e 0B       		.uleb128 0xb
ARM GAS  C:\Users\Diogo\AppData\Local\Temp\ccJhW7HY.s 			page 51


 2574 002f 0B       		.uleb128 0xb
 2575 0030 3E       		.uleb128 0x3e
 2576 0031 0B       		.uleb128 0xb
 2577 0032 03       		.uleb128 0x3
 2578 0033 08       		.uleb128 0x8
 2579 0034 00       		.byte	0
 2580 0035 00       		.byte	0
 2581 0036 05       		.uleb128 0x5
 2582 0037 0F       		.uleb128 0xf
 2583 0038 00       		.byte	0
 2584 0039 0B       		.uleb128 0xb
 2585 003a 0B       		.uleb128 0xb
 2586 003b 00       		.byte	0
 2587 003c 00       		.byte	0
 2588 003d 06       		.uleb128 0x6
 2589 003e 13       		.uleb128 0x13
 2590 003f 01       		.byte	0x1
 2591 0040 03       		.uleb128 0x3
 2592 0041 0E       		.uleb128 0xe
 2593 0042 0B       		.uleb128 0xb
 2594 0043 0B       		.uleb128 0xb
 2595 0044 3A       		.uleb128 0x3a
 2596 0045 0B       		.uleb128 0xb
 2597 0046 3B       		.uleb128 0x3b
 2598 0047 0B       		.uleb128 0xb
 2599 0048 01       		.uleb128 0x1
 2600 0049 13       		.uleb128 0x13
 2601 004a 00       		.byte	0
 2602 004b 00       		.byte	0
 2603 004c 07       		.uleb128 0x7
 2604 004d 0D       		.uleb128 0xd
 2605 004e 00       		.byte	0
 2606 004f 03       		.uleb128 0x3
 2607 0050 0E       		.uleb128 0xe
 2608 0051 3A       		.uleb128 0x3a
 2609 0052 0B       		.uleb128 0xb
 2610 0053 3B       		.uleb128 0x3b
 2611 0054 0B       		.uleb128 0xb
 2612 0055 49       		.uleb128 0x49
 2613 0056 13       		.uleb128 0x13
 2614 0057 38       		.uleb128 0x38
 2615 0058 0A       		.uleb128 0xa
 2616 0059 00       		.byte	0
 2617 005a 00       		.byte	0
 2618 005b 08       		.uleb128 0x8
 2619 005c 0D       		.uleb128 0xd
 2620 005d 00       		.byte	0
 2621 005e 03       		.uleb128 0x3
 2622 005f 08       		.uleb128 0x8
 2623 0060 3A       		.uleb128 0x3a
 2624 0061 0B       		.uleb128 0xb
 2625 0062 3B       		.uleb128 0x3b
 2626 0063 0B       		.uleb128 0xb
 2627 0064 49       		.uleb128 0x49
 2628 0065 13       		.uleb128 0x13
 2629 0066 38       		.uleb128 0x38
 2630 0067 0A       		.uleb128 0xa
ARM GAS  C:\Users\Diogo\AppData\Local\Temp\ccJhW7HY.s 			page 52


 2631 0068 00       		.byte	0
 2632 0069 00       		.byte	0
 2633 006a 09       		.uleb128 0x9
 2634 006b 0F       		.uleb128 0xf
 2635 006c 00       		.byte	0
 2636 006d 0B       		.uleb128 0xb
 2637 006e 0B       		.uleb128 0xb
 2638 006f 49       		.uleb128 0x49
 2639 0070 13       		.uleb128 0x13
 2640 0071 00       		.byte	0
 2641 0072 00       		.byte	0
 2642 0073 0A       		.uleb128 0xa
 2643 0074 15       		.uleb128 0x15
 2644 0075 01       		.byte	0x1
 2645 0076 01       		.uleb128 0x1
 2646 0077 13       		.uleb128 0x13
 2647 0078 00       		.byte	0
 2648 0079 00       		.byte	0
 2649 007a 0B       		.uleb128 0xb
 2650 007b 18       		.uleb128 0x18
 2651 007c 00       		.byte	0
 2652 007d 00       		.byte	0
 2653 007e 00       		.byte	0
 2654 007f 0C       		.uleb128 0xc
 2655 0080 13       		.uleb128 0x13
 2656 0081 00       		.byte	0
 2657 0082 03       		.uleb128 0x3
 2658 0083 0E       		.uleb128 0xe
 2659 0084 3C       		.uleb128 0x3c
 2660 0085 0C       		.uleb128 0xc
 2661 0086 00       		.byte	0
 2662 0087 00       		.byte	0
 2663 0088 0D       		.uleb128 0xd
 2664 0089 16       		.uleb128 0x16
 2665 008a 00       		.byte	0
 2666 008b 03       		.uleb128 0x3
 2667 008c 0E       		.uleb128 0xe
 2668 008d 3A       		.uleb128 0x3a
 2669 008e 0B       		.uleb128 0xb
 2670 008f 3B       		.uleb128 0x3b
 2671 0090 05       		.uleb128 0x5
 2672 0091 49       		.uleb128 0x49
 2673 0092 13       		.uleb128 0x13
 2674 0093 00       		.byte	0
 2675 0094 00       		.byte	0
 2676 0095 0E       		.uleb128 0xe
 2677 0096 17       		.uleb128 0x17
 2678 0097 01       		.byte	0x1
 2679 0098 0B       		.uleb128 0xb
 2680 0099 0B       		.uleb128 0xb
 2681 009a 3A       		.uleb128 0x3a
 2682 009b 0B       		.uleb128 0xb
 2683 009c 3B       		.uleb128 0x3b
 2684 009d 0B       		.uleb128 0xb
 2685 009e 01       		.uleb128 0x1
 2686 009f 13       		.uleb128 0x13
 2687 00a0 00       		.byte	0
ARM GAS  C:\Users\Diogo\AppData\Local\Temp\ccJhW7HY.s 			page 53


 2688 00a1 00       		.byte	0
 2689 00a2 0F       		.uleb128 0xf
 2690 00a3 0D       		.uleb128 0xd
 2691 00a4 00       		.byte	0
 2692 00a5 03       		.uleb128 0x3
 2693 00a6 0E       		.uleb128 0xe
 2694 00a7 3A       		.uleb128 0x3a
 2695 00a8 0B       		.uleb128 0xb
 2696 00a9 3B       		.uleb128 0x3b
 2697 00aa 0B       		.uleb128 0xb
 2698 00ab 49       		.uleb128 0x49
 2699 00ac 13       		.uleb128 0x13
 2700 00ad 00       		.byte	0
 2701 00ae 00       		.byte	0
 2702 00af 10       		.uleb128 0x10
 2703 00b0 01       		.uleb128 0x1
 2704 00b1 01       		.byte	0x1
 2705 00b2 49       		.uleb128 0x49
 2706 00b3 13       		.uleb128 0x13
 2707 00b4 01       		.uleb128 0x1
 2708 00b5 13       		.uleb128 0x13
 2709 00b6 00       		.byte	0
 2710 00b7 00       		.byte	0
 2711 00b8 11       		.uleb128 0x11
 2712 00b9 21       		.uleb128 0x21
 2713 00ba 00       		.byte	0
 2714 00bb 49       		.uleb128 0x49
 2715 00bc 13       		.uleb128 0x13
 2716 00bd 2F       		.uleb128 0x2f
 2717 00be 0B       		.uleb128 0xb
 2718 00bf 00       		.byte	0
 2719 00c0 00       		.byte	0
 2720 00c1 12       		.uleb128 0x12
 2721 00c2 13       		.uleb128 0x13
 2722 00c3 01       		.byte	0x1
 2723 00c4 0B       		.uleb128 0xb
 2724 00c5 0B       		.uleb128 0xb
 2725 00c6 3A       		.uleb128 0x3a
 2726 00c7 0B       		.uleb128 0xb
 2727 00c8 3B       		.uleb128 0x3b
 2728 00c9 0B       		.uleb128 0xb
 2729 00ca 01       		.uleb128 0x1
 2730 00cb 13       		.uleb128 0x13
 2731 00cc 00       		.byte	0
 2732 00cd 00       		.byte	0
 2733 00ce 13       		.uleb128 0x13
 2734 00cf 13       		.uleb128 0x13
 2735 00d0 01       		.byte	0x1
 2736 00d1 03       		.uleb128 0x3
 2737 00d2 0E       		.uleb128 0xe
 2738 00d3 0B       		.uleb128 0xb
 2739 00d4 05       		.uleb128 0x5
 2740 00d5 3A       		.uleb128 0x3a
 2741 00d6 0B       		.uleb128 0xb
 2742 00d7 3B       		.uleb128 0x3b
 2743 00d8 0B       		.uleb128 0xb
 2744 00d9 01       		.uleb128 0x1
ARM GAS  C:\Users\Diogo\AppData\Local\Temp\ccJhW7HY.s 			page 54


 2745 00da 13       		.uleb128 0x13
 2746 00db 00       		.byte	0
 2747 00dc 00       		.byte	0
 2748 00dd 14       		.uleb128 0x14
 2749 00de 15       		.uleb128 0x15
 2750 00df 00       		.byte	0
 2751 00e0 27       		.uleb128 0x27
 2752 00e1 0C       		.uleb128 0xc
 2753 00e2 00       		.byte	0
 2754 00e3 00       		.byte	0
 2755 00e4 15       		.uleb128 0x15
 2756 00e5 15       		.uleb128 0x15
 2757 00e6 01       		.byte	0x1
 2758 00e7 27       		.uleb128 0x27
 2759 00e8 0C       		.uleb128 0xc
 2760 00e9 49       		.uleb128 0x49
 2761 00ea 13       		.uleb128 0x13
 2762 00eb 01       		.uleb128 0x1
 2763 00ec 13       		.uleb128 0x13
 2764 00ed 00       		.byte	0
 2765 00ee 00       		.byte	0
 2766 00ef 16       		.uleb128 0x16
 2767 00f0 05       		.uleb128 0x5
 2768 00f1 00       		.byte	0
 2769 00f2 49       		.uleb128 0x49
 2770 00f3 13       		.uleb128 0x13
 2771 00f4 00       		.byte	0
 2772 00f5 00       		.byte	0
 2773 00f6 17       		.uleb128 0x17
 2774 00f7 26       		.uleb128 0x26
 2775 00f8 00       		.byte	0
 2776 00f9 49       		.uleb128 0x49
 2777 00fa 13       		.uleb128 0x13
 2778 00fb 00       		.byte	0
 2779 00fc 00       		.byte	0
 2780 00fd 18       		.uleb128 0x18
 2781 00fe 13       		.uleb128 0x13
 2782 00ff 01       		.byte	0x1
 2783 0100 03       		.uleb128 0x3
 2784 0101 0E       		.uleb128 0xe
 2785 0102 0B       		.uleb128 0xb
 2786 0103 05       		.uleb128 0x5
 2787 0104 3A       		.uleb128 0x3a
 2788 0105 0B       		.uleb128 0xb
 2789 0106 3B       		.uleb128 0x3b
 2790 0107 05       		.uleb128 0x5
 2791 0108 01       		.uleb128 0x1
 2792 0109 13       		.uleb128 0x13
 2793 010a 00       		.byte	0
 2794 010b 00       		.byte	0
 2795 010c 19       		.uleb128 0x19
 2796 010d 0D       		.uleb128 0xd
 2797 010e 00       		.byte	0
 2798 010f 03       		.uleb128 0x3
 2799 0110 0E       		.uleb128 0xe
 2800 0111 3A       		.uleb128 0x3a
 2801 0112 0B       		.uleb128 0xb
ARM GAS  C:\Users\Diogo\AppData\Local\Temp\ccJhW7HY.s 			page 55


 2802 0113 3B       		.uleb128 0x3b
 2803 0114 05       		.uleb128 0x5
 2804 0115 49       		.uleb128 0x49
 2805 0116 13       		.uleb128 0x13
 2806 0117 38       		.uleb128 0x38
 2807 0118 0A       		.uleb128 0xa
 2808 0119 00       		.byte	0
 2809 011a 00       		.byte	0
 2810 011b 1A       		.uleb128 0x1a
 2811 011c 13       		.uleb128 0x13
 2812 011d 01       		.byte	0x1
 2813 011e 03       		.uleb128 0x3
 2814 011f 0E       		.uleb128 0xe
 2815 0120 0B       		.uleb128 0xb
 2816 0121 0B       		.uleb128 0xb
 2817 0122 3A       		.uleb128 0x3a
 2818 0123 0B       		.uleb128 0xb
 2819 0124 3B       		.uleb128 0x3b
 2820 0125 05       		.uleb128 0x5
 2821 0126 01       		.uleb128 0x1
 2822 0127 13       		.uleb128 0x13
 2823 0128 00       		.byte	0
 2824 0129 00       		.byte	0
 2825 012a 1B       		.uleb128 0x1b
 2826 012b 13       		.uleb128 0x13
 2827 012c 01       		.byte	0x1
 2828 012d 0B       		.uleb128 0xb
 2829 012e 0B       		.uleb128 0xb
 2830 012f 3A       		.uleb128 0x3a
 2831 0130 0B       		.uleb128 0xb
 2832 0131 3B       		.uleb128 0x3b
 2833 0132 05       		.uleb128 0x5
 2834 0133 01       		.uleb128 0x1
 2835 0134 13       		.uleb128 0x13
 2836 0135 00       		.byte	0
 2837 0136 00       		.byte	0
 2838 0137 1C       		.uleb128 0x1c
 2839 0138 17       		.uleb128 0x17
 2840 0139 01       		.byte	0x1
 2841 013a 0B       		.uleb128 0xb
 2842 013b 0B       		.uleb128 0xb
 2843 013c 3A       		.uleb128 0x3a
 2844 013d 0B       		.uleb128 0xb
 2845 013e 3B       		.uleb128 0x3b
 2846 013f 05       		.uleb128 0x5
 2847 0140 01       		.uleb128 0x1
 2848 0141 13       		.uleb128 0x13
 2849 0142 00       		.byte	0
 2850 0143 00       		.byte	0
 2851 0144 1D       		.uleb128 0x1d
 2852 0145 0D       		.uleb128 0xd
 2853 0146 00       		.byte	0
 2854 0147 03       		.uleb128 0x3
 2855 0148 0E       		.uleb128 0xe
 2856 0149 3A       		.uleb128 0x3a
 2857 014a 0B       		.uleb128 0xb
 2858 014b 3B       		.uleb128 0x3b
ARM GAS  C:\Users\Diogo\AppData\Local\Temp\ccJhW7HY.s 			page 56


 2859 014c 05       		.uleb128 0x5
 2860 014d 49       		.uleb128 0x49
 2861 014e 13       		.uleb128 0x13
 2862 014f 00       		.byte	0
 2863 0150 00       		.byte	0
 2864 0151 1E       		.uleb128 0x1e
 2865 0152 15       		.uleb128 0x15
 2866 0153 01       		.byte	0x1
 2867 0154 27       		.uleb128 0x27
 2868 0155 0C       		.uleb128 0xc
 2869 0156 01       		.uleb128 0x1
 2870 0157 13       		.uleb128 0x13
 2871 0158 00       		.byte	0
 2872 0159 00       		.byte	0
 2873 015a 1F       		.uleb128 0x1f
 2874 015b 34       		.uleb128 0x34
 2875 015c 00       		.byte	0
 2876 015d 03       		.uleb128 0x3
 2877 015e 0E       		.uleb128 0xe
 2878 015f 3A       		.uleb128 0x3a
 2879 0160 0B       		.uleb128 0xb
 2880 0161 3B       		.uleb128 0x3b
 2881 0162 05       		.uleb128 0x5
 2882 0163 49       		.uleb128 0x49
 2883 0164 13       		.uleb128 0x13
 2884 0165 3F       		.uleb128 0x3f
 2885 0166 0C       		.uleb128 0xc
 2886 0167 3C       		.uleb128 0x3c
 2887 0168 0C       		.uleb128 0xc
 2888 0169 00       		.byte	0
 2889 016a 00       		.byte	0
 2890 016b 20       		.uleb128 0x20
 2891 016c 34       		.uleb128 0x34
 2892 016d 00       		.byte	0
 2893 016e 03       		.uleb128 0x3
 2894 016f 0E       		.uleb128 0xe
 2895 0170 3A       		.uleb128 0x3a
 2896 0171 0B       		.uleb128 0xb
 2897 0172 3B       		.uleb128 0x3b
 2898 0173 0B       		.uleb128 0xb
 2899 0174 49       		.uleb128 0x49
 2900 0175 13       		.uleb128 0x13
 2901 0176 3F       		.uleb128 0x3f
 2902 0177 0C       		.uleb128 0xc
 2903 0178 3C       		.uleb128 0x3c
 2904 0179 0C       		.uleb128 0xc
 2905 017a 00       		.byte	0
 2906 017b 00       		.byte	0
 2907 017c 21       		.uleb128 0x21
 2908 017d 34       		.uleb128 0x34
 2909 017e 00       		.byte	0
 2910 017f 03       		.uleb128 0x3
 2911 0180 0E       		.uleb128 0xe
 2912 0181 3A       		.uleb128 0x3a
 2913 0182 0B       		.uleb128 0xb
 2914 0183 3B       		.uleb128 0x3b
 2915 0184 0B       		.uleb128 0xb
ARM GAS  C:\Users\Diogo\AppData\Local\Temp\ccJhW7HY.s 			page 57


 2916 0185 49       		.uleb128 0x49
 2917 0186 13       		.uleb128 0x13
 2918 0187 3F       		.uleb128 0x3f
 2919 0188 0C       		.uleb128 0xc
 2920 0189 02       		.uleb128 0x2
 2921 018a 0A       		.uleb128 0xa
 2922 018b 00       		.byte	0
 2923 018c 00       		.byte	0
 2924 018d 22       		.uleb128 0x22
 2925 018e 2E       		.uleb128 0x2e
 2926 018f 01       		.byte	0x1
 2927 0190 3F       		.uleb128 0x3f
 2928 0191 0C       		.uleb128 0xc
 2929 0192 03       		.uleb128 0x3
 2930 0193 0E       		.uleb128 0xe
 2931 0194 3A       		.uleb128 0x3a
 2932 0195 0B       		.uleb128 0xb
 2933 0196 3B       		.uleb128 0x3b
 2934 0197 0B       		.uleb128 0xb
 2935 0198 27       		.uleb128 0x27
 2936 0199 0C       		.uleb128 0xc
 2937 019a 49       		.uleb128 0x49
 2938 019b 13       		.uleb128 0x13
 2939 019c 11       		.uleb128 0x11
 2940 019d 01       		.uleb128 0x1
 2941 019e 12       		.uleb128 0x12
 2942 019f 01       		.uleb128 0x1
 2943 01a0 40       		.uleb128 0x40
 2944 01a1 06       		.uleb128 0x6
 2945 01a2 9742     		.uleb128 0x2117
 2946 01a4 0C       		.uleb128 0xc
 2947 01a5 01       		.uleb128 0x1
 2948 01a6 13       		.uleb128 0x13
 2949 01a7 00       		.byte	0
 2950 01a8 00       		.byte	0
 2951 01a9 23       		.uleb128 0x23
 2952 01aa 898201   		.uleb128 0x4109
 2953 01ad 01       		.byte	0x1
 2954 01ae 11       		.uleb128 0x11
 2955 01af 01       		.uleb128 0x1
 2956 01b0 01       		.uleb128 0x1
 2957 01b1 13       		.uleb128 0x13
 2958 01b2 00       		.byte	0
 2959 01b3 00       		.byte	0
 2960 01b4 24       		.uleb128 0x24
 2961 01b5 8A8201   		.uleb128 0x410a
 2962 01b8 00       		.byte	0
 2963 01b9 02       		.uleb128 0x2
 2964 01ba 0A       		.uleb128 0xa
 2965 01bb 9142     		.uleb128 0x2111
 2966 01bd 0A       		.uleb128 0xa
 2967 01be 00       		.byte	0
 2968 01bf 00       		.byte	0
 2969 01c0 25       		.uleb128 0x25
 2970 01c1 898201   		.uleb128 0x4109
 2971 01c4 01       		.byte	0x1
 2972 01c5 11       		.uleb128 0x11
ARM GAS  C:\Users\Diogo\AppData\Local\Temp\ccJhW7HY.s 			page 58


 2973 01c6 01       		.uleb128 0x1
 2974 01c7 31       		.uleb128 0x31
 2975 01c8 13       		.uleb128 0x13
 2976 01c9 01       		.uleb128 0x1
 2977 01ca 13       		.uleb128 0x13
 2978 01cb 00       		.byte	0
 2979 01cc 00       		.byte	0
 2980 01cd 26       		.uleb128 0x26
 2981 01ce 898201   		.uleb128 0x4109
 2982 01d1 00       		.byte	0
 2983 01d2 11       		.uleb128 0x11
 2984 01d3 01       		.uleb128 0x1
 2985 01d4 31       		.uleb128 0x31
 2986 01d5 13       		.uleb128 0x13
 2987 01d6 00       		.byte	0
 2988 01d7 00       		.byte	0
 2989 01d8 27       		.uleb128 0x27
 2990 01d9 2E       		.uleb128 0x2e
 2991 01da 01       		.byte	0x1
 2992 01db 3F       		.uleb128 0x3f
 2993 01dc 0C       		.uleb128 0xc
 2994 01dd 03       		.uleb128 0x3
 2995 01de 0E       		.uleb128 0xe
 2996 01df 3A       		.uleb128 0x3a
 2997 01e0 0B       		.uleb128 0xb
 2998 01e1 3B       		.uleb128 0x3b
 2999 01e2 0B       		.uleb128 0xb
 3000 01e3 27       		.uleb128 0x27
 3001 01e4 0C       		.uleb128 0xc
 3002 01e5 11       		.uleb128 0x11
 3003 01e6 01       		.uleb128 0x1
 3004 01e7 12       		.uleb128 0x12
 3005 01e8 01       		.uleb128 0x1
 3006 01e9 40       		.uleb128 0x40
 3007 01ea 06       		.uleb128 0x6
 3008 01eb 9742     		.uleb128 0x2117
 3009 01ed 0C       		.uleb128 0xc
 3010 01ee 01       		.uleb128 0x1
 3011 01ef 13       		.uleb128 0x13
 3012 01f0 00       		.byte	0
 3013 01f1 00       		.byte	0
 3014 01f2 28       		.uleb128 0x28
 3015 01f3 34       		.uleb128 0x34
 3016 01f4 00       		.byte	0
 3017 01f5 03       		.uleb128 0x3
 3018 01f6 08       		.uleb128 0x8
 3019 01f7 3A       		.uleb128 0x3a
 3020 01f8 0B       		.uleb128 0xb
 3021 01f9 3B       		.uleb128 0x3b
 3022 01fa 0B       		.uleb128 0xb
 3023 01fb 49       		.uleb128 0x49
 3024 01fc 13       		.uleb128 0x13
 3025 01fd 02       		.uleb128 0x2
 3026 01fe 06       		.uleb128 0x6
 3027 01ff 00       		.byte	0
 3028 0200 00       		.byte	0
 3029 0201 29       		.uleb128 0x29
ARM GAS  C:\Users\Diogo\AppData\Local\Temp\ccJhW7HY.s 			page 59


 3030 0202 898201   		.uleb128 0x4109
 3031 0205 01       		.byte	0x1
 3032 0206 11       		.uleb128 0x11
 3033 0207 01       		.uleb128 0x1
 3034 0208 31       		.uleb128 0x31
 3035 0209 13       		.uleb128 0x13
 3036 020a 00       		.byte	0
 3037 020b 00       		.byte	0
 3038 020c 2A       		.uleb128 0x2a
 3039 020d 34       		.uleb128 0x34
 3040 020e 00       		.byte	0
 3041 020f 03       		.uleb128 0x3
 3042 0210 08       		.uleb128 0x8
 3043 0211 3A       		.uleb128 0x3a
 3044 0212 0B       		.uleb128 0xb
 3045 0213 3B       		.uleb128 0x3b
 3046 0214 0B       		.uleb128 0xb
 3047 0215 49       		.uleb128 0x49
 3048 0216 13       		.uleb128 0x13
 3049 0217 02       		.uleb128 0x2
 3050 0218 0A       		.uleb128 0xa
 3051 0219 00       		.byte	0
 3052 021a 00       		.byte	0
 3053 021b 2B       		.uleb128 0x2b
 3054 021c 05       		.uleb128 0x5
 3055 021d 00       		.byte	0
 3056 021e 03       		.uleb128 0x3
 3057 021f 0E       		.uleb128 0xe
 3058 0220 3A       		.uleb128 0x3a
 3059 0221 0B       		.uleb128 0xb
 3060 0222 3B       		.uleb128 0x3b
 3061 0223 0B       		.uleb128 0xb
 3062 0224 49       		.uleb128 0x49
 3063 0225 13       		.uleb128 0x13
 3064 0226 02       		.uleb128 0x2
 3065 0227 06       		.uleb128 0x6
 3066 0228 00       		.byte	0
 3067 0229 00       		.byte	0
 3068 022a 2C       		.uleb128 0x2c
 3069 022b 05       		.uleb128 0x5
 3070 022c 00       		.byte	0
 3071 022d 03       		.uleb128 0x3
 3072 022e 08       		.uleb128 0x8
 3073 022f 3A       		.uleb128 0x3a
 3074 0230 0B       		.uleb128 0xb
 3075 0231 3B       		.uleb128 0x3b
 3076 0232 0B       		.uleb128 0xb
 3077 0233 49       		.uleb128 0x49
 3078 0234 13       		.uleb128 0x13
 3079 0235 02       		.uleb128 0x2
 3080 0236 06       		.uleb128 0x6
 3081 0237 00       		.byte	0
 3082 0238 00       		.byte	0
 3083 0239 2D       		.uleb128 0x2d
 3084 023a 34       		.uleb128 0x34
 3085 023b 00       		.byte	0
 3086 023c 03       		.uleb128 0x3
ARM GAS  C:\Users\Diogo\AppData\Local\Temp\ccJhW7HY.s 			page 60


 3087 023d 0E       		.uleb128 0xe
 3088 023e 3A       		.uleb128 0x3a
 3089 023f 0B       		.uleb128 0xb
 3090 0240 3B       		.uleb128 0x3b
 3091 0241 0B       		.uleb128 0xb
 3092 0242 49       		.uleb128 0x49
 3093 0243 13       		.uleb128 0x13
 3094 0244 02       		.uleb128 0x2
 3095 0245 06       		.uleb128 0x6
 3096 0246 00       		.byte	0
 3097 0247 00       		.byte	0
 3098 0248 2E       		.uleb128 0x2e
 3099 0249 2E       		.uleb128 0x2e
 3100 024a 00       		.byte	0
 3101 024b 3F       		.uleb128 0x3f
 3102 024c 0C       		.uleb128 0xc
 3103 024d 3C       		.uleb128 0x3c
 3104 024e 0C       		.uleb128 0xc
 3105 024f 8740     		.uleb128 0x2007
 3106 0251 0E       		.uleb128 0xe
 3107 0252 03       		.uleb128 0x3
 3108 0253 0E       		.uleb128 0xe
 3109 0254 3A       		.uleb128 0x3a
 3110 0255 0B       		.uleb128 0xb
 3111 0256 3B       		.uleb128 0x3b
 3112 0257 0B       		.uleb128 0xb
 3113 0258 00       		.byte	0
 3114 0259 00       		.byte	0
 3115 025a 2F       		.uleb128 0x2f
 3116 025b 2E       		.uleb128 0x2e
 3117 025c 00       		.byte	0
 3118 025d 3F       		.uleb128 0x3f
 3119 025e 0C       		.uleb128 0xc
 3120 025f 3C       		.uleb128 0x3c
 3121 0260 0C       		.uleb128 0xc
 3122 0261 8740     		.uleb128 0x2007
 3123 0263 0E       		.uleb128 0xe
 3124 0264 03       		.uleb128 0x3
 3125 0265 0E       		.uleb128 0xe
 3126 0266 3A       		.uleb128 0x3a
 3127 0267 0B       		.uleb128 0xb
 3128 0268 3B       		.uleb128 0x3b
 3129 0269 05       		.uleb128 0x5
 3130 026a 00       		.byte	0
 3131 026b 00       		.byte	0
 3132 026c 30       		.uleb128 0x30
 3133 026d 2E       		.uleb128 0x2e
 3134 026e 00       		.byte	0
 3135 026f 3F       		.uleb128 0x3f
 3136 0270 0C       		.uleb128 0xc
 3137 0271 3C       		.uleb128 0x3c
 3138 0272 0C       		.uleb128 0xc
 3139 0273 8740     		.uleb128 0x2007
 3140 0275 0E       		.uleb128 0xe
 3141 0276 03       		.uleb128 0x3
 3142 0277 0E       		.uleb128 0xe
 3143 0278 3A       		.uleb128 0x3a
ARM GAS  C:\Users\Diogo\AppData\Local\Temp\ccJhW7HY.s 			page 61


 3144 0279 0B       		.uleb128 0xb
 3145 027a 3B       		.uleb128 0x3b
 3146 027b 0B       		.uleb128 0xb
 3147 027c 8740     		.uleb128 0x2007
 3148 027e 0E       		.uleb128 0xe
 3149 027f 00       		.byte	0
 3150 0280 00       		.byte	0
 3151 0281 00       		.byte	0
 3152              		.section	.debug_loc,"",%progbits
 3153              	.Ldebug_loc0:
 3154              	.LLST10:
 3155 0000 30010000 		.4byte	.LFB8-.Ltext0
 3156 0004 32010000 		.4byte	.LCFI5-.Ltext0
 3157 0008 0200     		.2byte	0x2
 3158 000a 7D       		.byte	0x7d
 3159 000b 00       		.sleb128 0
 3160 000c 32010000 		.4byte	.LCFI5-.Ltext0
 3161 0010 00020000 		.4byte	.LFE8-.Ltext0
 3162 0014 0200     		.2byte	0x2
 3163 0016 7D       		.byte	0x7d
 3164 0017 10       		.sleb128 16
 3165 0018 00000000 		.4byte	0
 3166 001c 00000000 		.4byte	0
 3167              	.LLST8:
 3168 0020 E8000000 		.4byte	.LFB7-.Ltext0
 3169 0024 EC000000 		.4byte	.LCFI4-.Ltext0
 3170 0028 0200     		.2byte	0x2
 3171 002a 7D       		.byte	0x7d
 3172 002b 00       		.sleb128 0
 3173 002c EC000000 		.4byte	.LCFI4-.Ltext0
 3174 0030 30010000 		.4byte	.LFE7-.Ltext0
 3175 0034 0200     		.2byte	0x2
 3176 0036 7D       		.byte	0x7d
 3177 0037 18       		.sleb128 24
 3178 0038 00000000 		.4byte	0
 3179 003c 00000000 		.4byte	0
 3180              	.LLST9:
 3181 0040 F2000000 		.4byte	.LVL26-.Ltext0
 3182 0044 FE000000 		.4byte	.LVL27-.Ltext0
 3183 0048 0200     		.2byte	0x2
 3184 004a 30       		.byte	0x30
 3185 004b 9F       		.byte	0x9f
 3186 004c FE000000 		.4byte	.LVL27-.Ltext0
 3187 0050 1E010000 		.4byte	.LVL31-.Ltext0
 3188 0054 0100     		.2byte	0x1
 3189 0056 54       		.byte	0x54
 3190 0057 00000000 		.4byte	0
 3191 005b 00000000 		.4byte	0
 3192              	.LLST7:
 3193 005f DC000000 		.4byte	.LFB6-.Ltext0
 3194 0063 DE000000 		.4byte	.LCFI3-.Ltext0
 3195 0067 0200     		.2byte	0x2
 3196 0069 7D       		.byte	0x7d
 3197 006a 00       		.sleb128 0
 3198 006b DE000000 		.4byte	.LCFI3-.Ltext0
 3199 006f E8000000 		.4byte	.LFE6-.Ltext0
 3200 0073 0200     		.2byte	0x2
ARM GAS  C:\Users\Diogo\AppData\Local\Temp\ccJhW7HY.s 			page 62


 3201 0075 7D       		.byte	0x7d
 3202 0076 08       		.sleb128 8
 3203 0077 00000000 		.4byte	0
 3204 007b 00000000 		.4byte	0
 3205              	.LLST6:
 3206 007f 7C000000 		.4byte	.LFB5-.Ltext0
 3207 0083 7E000000 		.4byte	.LCFI2-.Ltext0
 3208 0087 0200     		.2byte	0x2
 3209 0089 7D       		.byte	0x7d
 3210 008a 00       		.sleb128 0
 3211 008b 7E000000 		.4byte	.LCFI2-.Ltext0
 3212 008f DC000000 		.4byte	.LFE5-.Ltext0
 3213 0093 0200     		.2byte	0x2
 3214 0095 7D       		.byte	0x7d
 3215 0096 08       		.sleb128 8
 3216 0097 00000000 		.4byte	0
 3217 009b 00000000 		.4byte	0
 3218              	.LLST3:
 3219 009f 68000000 		.4byte	.LFB4-.Ltext0
 3220 00a3 6A000000 		.4byte	.LCFI1-.Ltext0
 3221 00a7 0200     		.2byte	0x2
 3222 00a9 7D       		.byte	0x7d
 3223 00aa 00       		.sleb128 0
 3224 00ab 6A000000 		.4byte	.LCFI1-.Ltext0
 3225 00af 7C000000 		.4byte	.LFE4-.Ltext0
 3226 00b3 0200     		.2byte	0x2
 3227 00b5 7D       		.byte	0x7d
 3228 00b6 08       		.sleb128 8
 3229 00b7 00000000 		.4byte	0
 3230 00bb 00000000 		.4byte	0
 3231              	.LLST4:
 3232 00bf 68000000 		.4byte	.LVL14-.Ltext0
 3233 00c3 70000000 		.4byte	.LVL16-.Ltext0
 3234 00c7 0100     		.2byte	0x1
 3235 00c9 50       		.byte	0x50
 3236 00ca 70000000 		.4byte	.LVL16-.Ltext0
 3237 00ce 73000000 		.4byte	.LVL17-1-.Ltext0
 3238 00d2 0100     		.2byte	0x1
 3239 00d4 51       		.byte	0x51
 3240 00d5 73000000 		.4byte	.LVL17-1-.Ltext0
 3241 00d9 7C000000 		.4byte	.LFE4-.Ltext0
 3242 00dd 0400     		.2byte	0x4
 3243 00df F3       		.byte	0xf3
 3244 00e0 01       		.uleb128 0x1
 3245 00e1 50       		.byte	0x50
 3246 00e2 9F       		.byte	0x9f
 3247 00e3 00000000 		.4byte	0
 3248 00e7 00000000 		.4byte	0
 3249              	.LLST5:
 3250 00eb 68000000 		.4byte	.LVL14-.Ltext0
 3251 00ef 6E000000 		.4byte	.LVL15-.Ltext0
 3252 00f3 0100     		.2byte	0x1
 3253 00f5 51       		.byte	0x51
 3254 00f6 6E000000 		.4byte	.LVL15-.Ltext0
 3255 00fa 73000000 		.4byte	.LVL17-1-.Ltext0
 3256 00fe 0100     		.2byte	0x1
 3257 0100 52       		.byte	0x52
ARM GAS  C:\Users\Diogo\AppData\Local\Temp\ccJhW7HY.s 			page 63


 3258 0101 73000000 		.4byte	.LVL17-1-.Ltext0
 3259 0105 7C000000 		.4byte	.LFE4-.Ltext0
 3260 0109 0400     		.2byte	0x4
 3261 010b F3       		.byte	0xf3
 3262 010c 01       		.uleb128 0x1
 3263 010d 51       		.byte	0x51
 3264 010e 9F       		.byte	0x9f
 3265 010f 00000000 		.4byte	0
 3266 0113 00000000 		.4byte	0
 3267              	.LLST0:
 3268 0117 00000000 		.4byte	.LFB3-.Ltext0
 3269 011b 02000000 		.4byte	.LCFI0-.Ltext0
 3270 011f 0200     		.2byte	0x2
 3271 0121 7D       		.byte	0x7d
 3272 0122 00       		.sleb128 0
 3273 0123 02000000 		.4byte	.LCFI0-.Ltext0
 3274 0127 68000000 		.4byte	.LFE3-.Ltext0
 3275 012b 0200     		.2byte	0x2
 3276 012d 7D       		.byte	0x7d
 3277 012e 18       		.sleb128 24
 3278 012f 00000000 		.4byte	0
 3279 0133 00000000 		.4byte	0
 3280              	.LLST1:
 3281 0137 00000000 		.4byte	.LVL0-.Ltext0
 3282 013b 0C000000 		.4byte	.LVL2-.Ltext0
 3283 013f 0100     		.2byte	0x1
 3284 0141 50       		.byte	0x50
 3285 0142 0C000000 		.4byte	.LVL2-.Ltext0
 3286 0146 68000000 		.4byte	.LFE3-.Ltext0
 3287 014a 0400     		.2byte	0x4
 3288 014c F3       		.byte	0xf3
 3289 014d 01       		.uleb128 0x1
 3290 014e 50       		.byte	0x50
 3291 014f 9F       		.byte	0x9f
 3292 0150 00000000 		.4byte	0
 3293 0154 00000000 		.4byte	0
 3294              	.LLST2:
 3295 0158 02000000 		.4byte	.LVL1-.Ltext0
 3296 015c 0C000000 		.4byte	.LVL2-.Ltext0
 3297 0160 0200     		.2byte	0x2
 3298 0162 30       		.byte	0x30
 3299 0163 9F       		.byte	0x9f
 3300 0164 0C000000 		.4byte	.LVL2-.Ltext0
 3301 0168 20000000 		.4byte	.LVL5-.Ltext0
 3302 016c 0100     		.2byte	0x1
 3303 016e 55       		.byte	0x55
 3304 016f 20000000 		.4byte	.LVL5-.Ltext0
 3305 0173 2E000000 		.4byte	.LVL7-.Ltext0
 3306 0177 0200     		.2byte	0x2
 3307 0179 31       		.byte	0x31
 3308 017a 9F       		.byte	0x9f
 3309 017b 40000000 		.4byte	.LVL10-.Ltext0
 3310 017f 42000000 		.4byte	.LVL11-.Ltext0
 3311 0183 0200     		.2byte	0x2
 3312 0185 32       		.byte	0x32
 3313 0186 9F       		.byte	0x9f
 3314 0187 42000000 		.4byte	.LVL11-.Ltext0
ARM GAS  C:\Users\Diogo\AppData\Local\Temp\ccJhW7HY.s 			page 64


 3315 018b 68000000 		.4byte	.LFE3-.Ltext0
 3316 018f 0100     		.2byte	0x1
 3317 0191 55       		.byte	0x55
 3318 0192 00000000 		.4byte	0
 3319 0196 00000000 		.4byte	0
 3320              		.section	.debug_aranges,"",%progbits
 3321 0000 1C000000 		.4byte	0x1c
 3322 0004 0200     		.2byte	0x2
 3323 0006 00000000 		.4byte	.Ldebug_info0
 3324 000a 04       		.byte	0x4
 3325 000b 00       		.byte	0
 3326 000c 0000     		.2byte	0
 3327 000e 0000     		.2byte	0
 3328 0010 00000000 		.4byte	.Ltext0
 3329 0014 00020000 		.4byte	.Letext0-.Ltext0
 3330 0018 00000000 		.4byte	0
 3331 001c 00000000 		.4byte	0
 3332              		.section	.debug_line,"",%progbits
 3333              	.Ldebug_line0:
 3334 0000 DB020000 		.section	.debug_str,"MS",%progbits,1
 3334      02006802 
 3334      00000201 
 3334      FB0E0D00 
 3334      01010101 
 3335              	.LASF46:
 3336 0000 5F64736F 		.ascii	"_dso_handle\000"
 3336      5F68616E 
 3336      646C6500 
 3337              	.LASF151:
 3338 000c 6D616C6C 		.ascii	"malloc\000"
 3338      6F6300
 3339              	.LASF54:
 3340 0013 5F73697A 		.ascii	"_size\000"
 3340      6500
 3341              	.LASF99:
 3342 0019 5F72616E 		.ascii	"_rand48\000"
 3342      64343800 
 3343              	.LASF78:
 3344 0021 5F656D65 		.ascii	"_emergency\000"
 3344      7267656E 
 3344      637900
 3345              	.LASF5:
 3346 002c 5F5F7569 		.ascii	"__uint8_t\000"
 3346      6E74385F 
 3346      7400
 3347              	.LASF140:
 3348 0036 5F5F6572 		.ascii	"__error__\000"
 3348      726F725F 
 3348      5F00
 3349              	.LASF68:
 3350 0040 5F646174 		.ascii	"_data\000"
 3350      6100
 3351              	.LASF119:
 3352 0046 5F776372 		.ascii	"_wcrtomb_state\000"
 3352      746F6D62 
 3352      5F737461 
 3352      746500
ARM GAS  C:\Users\Diogo\AppData\Local\Temp\ccJhW7HY.s 			page 65


 3353              	.LASF120:
 3354 0055 5F776373 		.ascii	"_wcsrtombs_state\000"
 3354      72746F6D 
 3354      62735F73 
 3354      74617465 
 3354      00
 3355              	.LASF9:
 3356 0066 6C6F6E67 		.ascii	"long long unsigned int\000"
 3356      206C6F6E 
 3356      6720756E 
 3356      7369676E 
 3356      65642069 
 3357              	.LASF58:
 3358 007d 5F6C6266 		.ascii	"_lbfsize\000"
 3358      73697A65 
 3358      00
 3359              	.LASF126:
 3360 0086 5F5F6C6F 		.ascii	"__locale_t\000"
 3360      63616C65 
 3360      5F7400
 3361              	.LASF117:
 3362 0091 5F6D6272 		.ascii	"_mbrtowc_state\000"
 3362      746F7763 
 3362      5F737461 
 3362      746500
 3363              	.LASF145:
 3364 00a0 50696E6F 		.ascii	"PinoutSet\000"
 3364      75745365 
 3364      7400
 3365              	.LASF35:
 3366 00aa 5F5F746D 		.ascii	"__tm_sec\000"
 3366      5F736563 
 3366      00
 3367              	.LASF148:
 3368 00b3 53797343 		.ascii	"SysCtlDelay\000"
 3368      746C4465 
 3368      6C617900 
 3369              	.LASF8:
 3370 00bf 6C6F6E67 		.ascii	"long long int\000"
 3370      206C6F6E 
 3370      6720696E 
 3370      7400
 3371              	.LASF0:
 3372 00cd 7369676E 		.ascii	"signed char\000"
 3372      65642063 
 3372      68617200 
 3373              	.LASF64:
 3374 00d9 5F756275 		.ascii	"_ubuf\000"
 3374      6600
 3375              	.LASF53:
 3376 00df 5F626173 		.ascii	"_base\000"
 3376      6500
 3377              	.LASF37:
 3378 00e5 5F5F746D 		.ascii	"__tm_hour\000"
 3378      5F686F75 
 3378      7200
 3379              	.LASF93:
ARM GAS  C:\Users\Diogo\AppData\Local\Temp\ccJhW7HY.s 			page 66


 3380 00ef 5F5F7366 		.ascii	"__sf\000"
 3380      00
 3381              	.LASF44:
 3382 00f4 5F6F6E5F 		.ascii	"_on_exit_args\000"
 3382      65786974 
 3382      5F617267 
 3382      7300
 3383              	.LASF59:
 3384 0102 5F636F6F 		.ascii	"_cookie\000"
 3384      6B696500 
 3385              	.LASF92:
 3386 010a 5F5F7367 		.ascii	"__sglue\000"
 3386      6C756500 
 3387              	.LASF4:
 3388 0112 6C6F6E67 		.ascii	"long int\000"
 3388      20696E74 
 3388      00
 3389              	.LASF137:
 3390 011b 63726561 		.ascii	"createThreadStack\000"
 3390      74655468 
 3390      72656164 
 3390      53746163 
 3390      6B00
 3391              	.LASF15:
 3392 012d 41747472 		.ascii	"Attributes\000"
 3392      69627574 
 3392      657300
 3393              	.LASF48:
 3394 0138 5F69735F 		.ascii	"_is_cxa\000"
 3394      63786100 
 3395              	.LASF74:
 3396 0140 5F737464 		.ascii	"_stdin\000"
 3396      696E00
 3397              	.LASF149:
 3398 0147 73746172 		.ascii	"startSwitcher\000"
 3398      74537769 
 3398      74636865 
 3398      7200
 3399              	.LASF158:
 3400 0155 5F5F6275 		.ascii	"__builtin_puts\000"
 3400      696C7469 
 3400      6E5F7075 
 3400      747300
 3401              	.LASF66:
 3402 0164 5F626C6B 		.ascii	"_blksize\000"
 3402      73697A65 
 3402      00
 3403              	.LASF13:
 3404 016d 54687265 		.ascii	"ThreadStack\000"
 3404      61645374 
 3404      61636B00 
 3405              	.LASF67:
 3406 0179 5F6F6666 		.ascii	"_offset\000"
 3406      73657400 
 3407              	.LASF118:
 3408 0181 5F6D6273 		.ascii	"_mbsrtowcs_state\000"
 3408      72746F77 
ARM GAS  C:\Users\Diogo\AppData\Local\Temp\ccJhW7HY.s 			page 67


 3408      63735F73 
 3408      74617465 
 3408      00
 3409              	.LASF116:
 3410 0192 5F6D6272 		.ascii	"_mbrlen_state\000"
 3410      6C656E5F 
 3410      73746174 
 3410      6500
 3411              	.LASF150:
 3412 01a0 63726561 		.ascii	"createThread\000"
 3412      74655468 
 3412      72656164 
 3412      00
 3413              	.LASF45:
 3414 01ad 5F666E61 		.ascii	"_fnargs\000"
 3414      72677300 
 3415              	.LASF146:
 3416 01b5 55415254 		.ascii	"UARTprintf\000"
 3416      7072696E 
 3416      746600
 3417              	.LASF51:
 3418 01c0 5F666E73 		.ascii	"_fns\000"
 3418      00
 3419              	.LASF6:
 3420 01c5 5F5F7569 		.ascii	"__uint32_t\000"
 3420      6E743332 
 3420      5F7400
 3421              	.LASF32:
 3422 01d0 5F736967 		.ascii	"_sign\000"
 3422      6E00
 3423              	.LASF27:
 3424 01d6 5F666C6F 		.ascii	"_flock_t\000"
 3424      636B5F74 
 3424      00
 3425              	.LASF76:
 3426 01df 5F737464 		.ascii	"_stderr\000"
 3426      65727200 
 3427              	.LASF29:
 3428 01e7 5F426967 		.ascii	"_Bigint\000"
 3428      696E7400 
 3429              	.LASF107:
 3430 01ef 5F67616D 		.ascii	"_gamma_signgam\000"
 3430      6D615F73 
 3430      69676E67 
 3430      616D00
 3431              	.LASF60:
 3432 01fe 5F726561 		.ascii	"_read\000"
 3432      6400
 3433              	.LASF84:
 3434 0204 5F726573 		.ascii	"_result_k\000"
 3434      756C745F 
 3434      6B00
 3435              	.LASF155:
 3436 020e 68656C6C 		.ascii	"hello.c\000"
 3436      6F2E6300 
 3437              	.LASF34:
 3438 0216 5F5F746D 		.ascii	"__tm\000"
ARM GAS  C:\Users\Diogo\AppData\Local\Temp\ccJhW7HY.s 			page 68


 3438      00
 3439              	.LASF10:
 3440 021b 756E7369 		.ascii	"unsigned int\000"
 3440      676E6564 
 3440      20696E74 
 3440      00
 3441              	.LASF23:
 3442 0228 5F5F7763 		.ascii	"__wchb\000"
 3442      686200
 3443              	.LASF75:
 3444 022f 5F737464 		.ascii	"_stdout\000"
 3444      6F757400 
 3445              	.LASF87:
 3446 0237 5F637674 		.ascii	"_cvtlen\000"
 3446      6C656E00 
 3447              	.LASF7:
 3448 023f 6C6F6E67 		.ascii	"long unsigned int\000"
 3448      20756E73 
 3448      69676E65 
 3448      6420696E 
 3448      7400
 3449              	.LASF57:
 3450 0251 5F66696C 		.ascii	"_file\000"
 3450      6500
 3451              	.LASF16:
 3452 0257 54687265 		.ascii	"ThreadControlBlock\000"
 3452      6164436F 
 3452      6E74726F 
 3452      6C426C6F 
 3452      636B00
 3453              	.LASF135:
 3454 026a 675F7569 		.ascii	"g_ui32SysClock\000"
 3454      33325379 
 3454      73436C6F 
 3454      636B00
 3455              	.LASF97:
 3456 0279 5F6E696F 		.ascii	"_niobs\000"
 3456      627300
 3457              	.LASF3:
 3458 0280 73686F72 		.ascii	"short unsigned int\000"
 3458      7420756E 
 3458      7369676E 
 3458      65642069 
 3458      6E7400
 3459              	.LASF90:
 3460 0293 5F617465 		.ascii	"_atexit0\000"
 3460      78697430 
 3460      00
 3461              	.LASF114:
 3462 029c 5F736967 		.ascii	"_signal_buf\000"
 3462      6E616C5F 
 3462      62756600 
 3463              	.LASF105:
 3464 02a8 5F617363 		.ascii	"_asctime_buf\000"
 3464      74696D65 
 3464      5F627566 
 3464      00
ARM GAS  C:\Users\Diogo\AppData\Local\Temp\ccJhW7HY.s 			page 69


 3465              	.LASF83:
 3466 02b5 5F726573 		.ascii	"_result\000"
 3466      756C7400 
 3467              	.LASF22:
 3468 02bd 5F5F7763 		.ascii	"__wch\000"
 3468      6800
 3469              	.LASF130:
 3470 02c3 61637469 		.ascii	"activeThread\000"
 3470      76655468 
 3470      72656164 
 3470      00
 3471              	.LASF18:
 3472 02d0 5F4C4F43 		.ascii	"_LOCK_T\000"
 3472      4B5F5400 
 3473              	.LASF21:
 3474 02d8 77696E74 		.ascii	"wint_t\000"
 3474      5F7400
 3475              	.LASF69:
 3476 02df 5F6C6F63 		.ascii	"_lock\000"
 3476      6B00
 3477              	.LASF134:
 3478 02e5 54687265 		.ascii	"ThreadStacks\000"
 3478      61645374 
 3478      61636B73 
 3478      00
 3479              	.LASF71:
 3480 02f2 5F666C61 		.ascii	"_flags2\000"
 3480      67733200 
 3481              	.LASF138:
 3482 02fa 696E6974 		.ascii	"initThreads\000"
 3482      54687265 
 3482      61647300 
 3483              	.LASF61:
 3484 0306 5F777269 		.ascii	"_write\000"
 3484      746500
 3485              	.LASF40:
 3486 030d 5F5F746D 		.ascii	"__tm_year\000"
 3486      5F796561 
 3486      7200
 3487              	.LASF154:
 3488 0317 474E5520 		.ascii	"GNU C11 7.3.1 20180622 (release) [ARM/embedded-7-br"
 3488      43313120 
 3488      372E332E 
 3488      31203230 
 3488      31383036 
 3489 034a 616E6368 		.ascii	"anch revision 261907] -mcpu=cortex-m4 -mthumb -mapc"
 3489      20726576 
 3489      6973696F 
 3489      6E203236 
 3489      31393037 
 3490 037d 732D6672 		.ascii	"s-frame -mthumb-interwork -gdwarf-2 -O\000"
 3490      616D6520 
 3490      2D6D7468 
 3490      756D622D 
 3490      696E7465 
 3491              	.LASF157:
 3492 03a4 70757473 		.ascii	"puts\000"
ARM GAS  C:\Users\Diogo\AppData\Local\Temp\ccJhW7HY.s 			page 70


 3492      00
 3493              	.LASF123:
 3494 03a9 5F6E6D61 		.ascii	"_nmalloc\000"
 3494      6C6C6F63 
 3494      00
 3495              	.LASF131:
 3496 03b2 54687265 		.ascii	"Thread1Stack\000"
 3496      61643153 
 3496      7461636B 
 3496      00
 3497              	.LASF143:
 3498 03bf 426F6479 		.ascii	"BodyTask\000"
 3498      5461736B 
 3498      00
 3499              	.LASF17:
 3500 03c8 6C6F6E67 		.ascii	"long double\000"
 3500      20646F75 
 3500      626C6500 
 3501              	.LASF122:
 3502 03d4 5F6E6578 		.ascii	"_nextf\000"
 3502      746600
 3503              	.LASF39:
 3504 03db 5F5F746D 		.ascii	"__tm_mon\000"
 3504      5F6D6F6E 
 3504      00
 3505              	.LASF142:
 3506 03e4 75693332 		.ascii	"ui32Line\000"
 3506      4C696E65 
 3506      00
 3507              	.LASF49:
 3508 03ed 5F617465 		.ascii	"_atexit\000"
 3508      78697400 
 3509              	.LASF129:
 3510 03f5 7375626F 		.ascii	"suboptarg\000"
 3510      70746172 
 3510      6700
 3511              	.LASF81:
 3512 03ff 5F5F7364 		.ascii	"__sdidinit\000"
 3512      6964696E 
 3512      697400
 3513              	.LASF19:
 3514 040a 5F6F6666 		.ascii	"_off_t\000"
 3514      5F7400
 3515              	.LASF153:
 3516 0411 67657443 		.ascii	"getCurrentThread\000"
 3516      75727265 
 3516      6E745468 
 3516      72656164 
 3516      00
 3517              	.LASF86:
 3518 0422 5F667265 		.ascii	"_freelist\000"
 3518      656C6973 
 3518      7400
 3519              	.LASF112:
 3520 042c 5F776374 		.ascii	"_wctomb_state\000"
 3520      6F6D625F 
 3520      73746174 
ARM GAS  C:\Users\Diogo\AppData\Local\Temp\ccJhW7HY.s 			page 71


 3520      6500
 3521              	.LASF88:
 3522 043a 5F637674 		.ascii	"_cvtbuf\000"
 3522      62756600 
 3523              	.LASF1:
 3524 0442 756E7369 		.ascii	"unsigned char\000"
 3524      676E6564 
 3524      20636861 
 3524      7200
 3525              	.LASF89:
 3526 0450 5F6E6577 		.ascii	"_new\000"
 3526      00
 3527              	.LASF121:
 3528 0455 5F685F65 		.ascii	"_h_errno\000"
 3528      72726E6F 
 3528      00
 3529              	.LASF2:
 3530 045e 73686F72 		.ascii	"short int\000"
 3530      7420696E 
 3530      7400
 3531              	.LASF42:
 3532 0468 5F5F746D 		.ascii	"__tm_yday\000"
 3532      5F796461 
 3532      7900
 3533              	.LASF52:
 3534 0472 5F5F7362 		.ascii	"__sbuf\000"
 3534      756600
 3535              	.LASF98:
 3536 0479 5F696F62 		.ascii	"_iobs\000"
 3536      7300
 3537              	.LASF95:
 3538 047f 5F5F4649 		.ascii	"__FILE\000"
 3538      4C4500
 3539              	.LASF26:
 3540 0486 5F6D6273 		.ascii	"_mbstate_t\000"
 3540      74617465 
 3540      5F7400
 3541              	.LASF55:
 3542 0491 5F5F7346 		.ascii	"__sFILE\000"
 3542      494C4500 
 3543              	.LASF70:
 3544 0499 5F6D6273 		.ascii	"_mbstate\000"
 3544      74617465 
 3544      00
 3545              	.LASF108:
 3546 04a2 5F72616E 		.ascii	"_rand_next\000"
 3546      645F6E65 
 3546      787400
 3547              	.LASF110:
 3548 04ad 5F6D626C 		.ascii	"_mblen_state\000"
 3548      656E5F73 
 3548      74617465 
 3548      00
 3549              	.LASF77:
 3550 04ba 5F696E63 		.ascii	"_inc\000"
 3550      00
 3551              	.LASF50:
ARM GAS  C:\Users\Diogo\AppData\Local\Temp\ccJhW7HY.s 			page 72


 3552 04bf 5F696E64 		.ascii	"_ind\000"
 3552      00
 3553              	.LASF80:
 3554 04c4 5F6C6F63 		.ascii	"_locale\000"
 3554      616C6500 
 3555              	.LASF82:
 3556 04cc 5F5F636C 		.ascii	"__cleanup\000"
 3556      65616E75 
 3556      7000
 3557              	.LASF79:
 3558 04d6 5F756E73 		.ascii	"_unspecified_locale_info\000"
 3558      70656369 
 3558      66696564 
 3558      5F6C6F63 
 3558      616C655F 
 3559              	.LASF31:
 3560 04ef 5F6D6178 		.ascii	"_maxwds\000"
 3560      77647300 
 3561              	.LASF72:
 3562 04f7 5F726565 		.ascii	"_reent\000"
 3562      6E7400
 3563              	.LASF100:
 3564 04fe 5F736565 		.ascii	"_seed\000"
 3564      6400
 3565              	.LASF24:
 3566 0504 5F5F636F 		.ascii	"__count\000"
 3566      756E7400 
 3567              	.LASF125:
 3568 050c 5F5F6C6F 		.ascii	"__lock\000"
 3568      636B00
 3569              	.LASF12:
 3570 0513 75696E74 		.ascii	"uint32_t\000"
 3570      33325F74 
 3570      00
 3571              	.LASF62:
 3572 051c 5F736565 		.ascii	"_seek\000"
 3572      6B00
 3573              	.LASF127:
 3574 0522 5F696D70 		.ascii	"_impure_ptr\000"
 3574      7572655F 
 3574      70747200 
 3575              	.LASF20:
 3576 052e 5F66706F 		.ascii	"_fpos_t\000"
 3576      735F7400 
 3577              	.LASF73:
 3578 0536 5F657272 		.ascii	"_errno\000"
 3578      6E6F00
 3579              	.LASF94:
 3580 053d 63686172 		.ascii	"char\000"
 3580      00
 3581              	.LASF36:
 3582 0542 5F5F746D 		.ascii	"__tm_min\000"
 3582      5F6D696E 
 3582      00
 3583              	.LASF147:
 3584 054b 4C454457 		.ascii	"LEDWrite\000"
 3584      72697465 
ARM GAS  C:\Users\Diogo\AppData\Local\Temp\ccJhW7HY.s 			page 73


 3584      00
 3585              	.LASF101:
 3586 0554 5F6D756C 		.ascii	"_mult\000"
 3586      7400
 3587              	.LASF30:
 3588 055a 5F6E6578 		.ascii	"_next\000"
 3588      7400
 3589              	.LASF141:
 3590 0560 70634669 		.ascii	"pcFilename\000"
 3590      6C656E61 
 3590      6D6500
 3591              	.LASF104:
 3592 056b 5F737472 		.ascii	"_strtok_last\000"
 3592      746F6B5F 
 3592      6C617374 
 3592      00
 3593              	.LASF133:
 3594 0578 7461736B 		.ascii	"task\000"
 3594      00
 3595              	.LASF25:
 3596 057d 5F5F7661 		.ascii	"__value\000"
 3596      6C756500 
 3597              	.LASF47:
 3598 0585 5F666E74 		.ascii	"_fntypes\000"
 3598      79706573 
 3598      00
 3599              	.LASF102:
 3600 058e 5F616464 		.ascii	"_add\000"
 3600      00
 3601              	.LASF28:
 3602 0593 5F5F554C 		.ascii	"__ULong\000"
 3602      6F6E6700 
 3603              	.LASF115:
 3604 059b 5F676574 		.ascii	"_getdate_err\000"
 3604      64617465 
 3604      5F657272 
 3604      00
 3605              	.LASF132:
 3606 05a8 54687265 		.ascii	"Thread2Stack\000"
 3606      61643253 
 3606      7461636B 
 3606      00
 3607              	.LASF128:
 3608 05b5 5F676C6F 		.ascii	"_global_impure_ptr\000"
 3608      62616C5F 
 3608      696D7075 
 3608      72655F70 
 3608      747200
 3609              	.LASF103:
 3610 05c8 5F756E75 		.ascii	"_unused_rand\000"
 3610      7365645F 
 3610      72616E64 
 3610      00
 3611              	.LASF156:
 3612 05d5 443A5C55 		.ascii	"D:\\UTFPR\\SISTEMAS OPERACIONAIS\\SO-threads\000"
 3612      54465052 
 3612      5C534953 
ARM GAS  C:\Users\Diogo\AppData\Local\Temp\ccJhW7HY.s 			page 74


 3612      54454D41 
 3612      53204F50 
 3613              	.LASF144:
 3614 05ff 73746174 		.ascii	"status\000"
 3614      757300
 3615              	.LASF33:
 3616 0606 5F776473 		.ascii	"_wds\000"
 3616      00
 3617              	.LASF41:
 3618 060b 5F5F746D 		.ascii	"__tm_wday\000"
 3618      5F776461 
 3618      7900
 3619              	.LASF96:
 3620 0615 5F676C75 		.ascii	"_glue\000"
 3620      6500
 3621              	.LASF152:
 3622 061b 55415254 		.ascii	"UARTStdioConfig\000"
 3622      53746469 
 3622      6F436F6E 
 3622      66696700 
 3623              	.LASF56:
 3624 062b 5F666C61 		.ascii	"_flags\000"
 3624      677300
 3625              	.LASF11:
 3626 0632 75696E74 		.ascii	"uint8_t\000"
 3626      385F7400 
 3627              	.LASF113:
 3628 063a 5F6C3634 		.ascii	"_l64a_buf\000"
 3628      615F6275 
 3628      6600
 3629              	.LASF91:
 3630 0644 5F736967 		.ascii	"_sig_func\000"
 3630      5F66756E 
 3630      6300
 3631              	.LASF139:
 3632 064e 436F6E66 		.ascii	"ConfigureUART\000"
 3632      69677572 
 3632      65554152 
 3632      5400
 3633              	.LASF65:
 3634 065c 5F6E6275 		.ascii	"_nbuf\000"
 3634      6600
 3635              	.LASF124:
 3636 0662 5F756E75 		.ascii	"_unused\000"
 3636      73656400 
 3637              	.LASF43:
 3638 066a 5F5F746D 		.ascii	"__tm_isdst\000"
 3638      5F697364 
 3638      737400
 3639              	.LASF106:
 3640 0675 5F6C6F63 		.ascii	"_localtime_buf\000"
 3640      616C7469 
 3640      6D655F62 
 3640      756600
 3641              	.LASF63:
 3642 0684 5F636C6F 		.ascii	"_close\000"
 3642      736500
ARM GAS  C:\Users\Diogo\AppData\Local\Temp\ccJhW7HY.s 			page 75


 3643              	.LASF109:
 3644 068b 5F723438 		.ascii	"_r48\000"
 3644      00
 3645              	.LASF14:
 3646 0690 54687265 		.ascii	"ThreadFn\000"
 3646      6164466E 
 3646      00
 3647              	.LASF111:
 3648 0699 5F6D6274 		.ascii	"_mbtowc_state\000"
 3648      6F77635F 
 3648      73746174 
 3648      6500
 3649              	.LASF85:
 3650 06a7 5F703573 		.ascii	"_p5s\000"
 3650      00
 3651              	.LASF136:
 3652 06ac 6D61696E 		.ascii	"main\000"
 3652      00
 3653              	.LASF38:
 3654 06b1 5F5F746D 		.ascii	"__tm_mday\000"
 3654      5F6D6461 
 3654      7900
 3655              		.ident	"GCC: (GNU Tools for Arm Embedded Processors 7-2018-q2-update) 7.3.1 20180622 (release) [AR
ARM GAS  C:\Users\Diogo\AppData\Local\Temp\ccJhW7HY.s 			page 76


DEFINED SYMBOLS
                            *ABS*:00000000 hello.c
C:\Users\Diogo\AppData\Local\Temp\ccJhW7HY.s:15     .text:00000000 $t
C:\Users\Diogo\AppData\Local\Temp\ccJhW7HY.s:22     .text:00000000 BodyTask
C:\Users\Diogo\AppData\Local\Temp\ccJhW7HY.s:112    .text:0000005c $d
C:\Users\Diogo\AppData\Local\Temp\ccJhW7HY.s:118    .text:00000068 $t
C:\Users\Diogo\AppData\Local\Temp\ccJhW7HY.s:125    .text:00000068 __error__
C:\Users\Diogo\AppData\Local\Temp\ccJhW7HY.s:151    .text:00000078 $d
C:\Users\Diogo\AppData\Local\Temp\ccJhW7HY.s:155    .text:0000007c $t
C:\Users\Diogo\AppData\Local\Temp\ccJhW7HY.s:162    .text:0000007c ConfigureUART
C:\Users\Diogo\AppData\Local\Temp\ccJhW7HY.s:225    .text:000000cc $d
                            *COM*:00000004 g_ui32SysClock
C:\Users\Diogo\AppData\Local\Temp\ccJhW7HY.s:232    .text:000000dc $t
C:\Users\Diogo\AppData\Local\Temp\ccJhW7HY.s:239    .text:000000dc createThreadStack
C:\Users\Diogo\AppData\Local\Temp\ccJhW7HY.s:266    .text:000000e8 initThreads
C:\Users\Diogo\AppData\Local\Temp\ccJhW7HY.s:318    .text:00000120 $d
                            *COM*:00001400 ThreadStacks
C:\Users\Diogo\AppData\Local\Temp\ccJhW7HY.s:325    .text:00000130 $t
C:\Users\Diogo\AppData\Local\Temp\ccJhW7HY.s:332    .text:00000130 main
C:\Users\Diogo\AppData\Local\Temp\ccJhW7HY.s:449    .text:000001d4 $d
                            *COM*:00000150 task
                            *COM*:00000100 Thread2Stack
                            *COM*:00000100 Thread1Stack
C:\Users\Diogo\AppData\Local\Temp\ccJhW7HY.s:474    .bss:00000000 activeThread
C:\Users\Diogo\AppData\Local\Temp\ccJhW7HY.s:470    .bss:00000000 $d
C:\Users\Diogo\AppData\Local\Temp\ccJhW7HY.s:477    .rodata.str1.4:00000000 $d

UNDEFINED SYMBOLS
getCurrentThread
UARTprintf
UARTStdioConfig
malloc
puts
createThread
PinoutSet
LEDWrite
SysCtlDelay
startSwitcher
