ARM GAS  C:\Users\Diogo\AppData\Local\Temp\ccz982d4.s 			page 1


   1              		.cpu cortex-m4
   2              		.eabi_attribute 20, 1
   3              		.eabi_attribute 21, 1
   4              		.eabi_attribute 23, 3
   5              		.eabi_attribute 24, 1
   6              		.eabi_attribute 25, 1
   7              		.eabi_attribute 26, 1
   8              		.eabi_attribute 30, 1
   9              		.eabi_attribute 34, 1
  10              		.eabi_attribute 18, 4
  11              		.file	"hello.c"
  12              		.text
  13              	.Ltext0:
  14              		.cfi_sections	.debug_frame
  15              		.align	1
  16              		.global	BodyTask
  17              		.syntax unified
  18              		.thumb
  19              		.thumb_func
  20              		.fpu softvfp
  21              		.type	BodyTask, %function
  22              	BodyTask:
  23              	.LFB3:
  24              		.file 1 "Threads/pingpong-tasks2.c"
   1:Threads/pingpong-tasks2.c **** // PingPongOS - PingPong Operating System
   2:Threads/pingpong-tasks2.c **** // Prof. Carlos A. Maziero, DINF UFPR
   3:Threads/pingpong-tasks2.c **** // Versão 1.1 -- Julho de 2016
   4:Threads/pingpong-tasks2.c **** 
   5:Threads/pingpong-tasks2.c **** // Teste da gestão básica de tarefas
   6:Threads/pingpong-tasks2.c **** 
   7:Threads/pingpong-tasks2.c **** #include <stdio.h>
   8:Threads/pingpong-tasks2.c **** #include <stdlib.h>
   9:Threads/pingpong-tasks2.c **** #include <stdint.h>
  10:Threads/pingpong-tasks2.c **** #include "thread.h"
  11:Threads/pingpong-tasks2.c **** 
  12:Threads/pingpong-tasks2.c **** #define MAXTASK 20
  13:Threads/pingpong-tasks2.c **** 
  14:Threads/pingpong-tasks2.c **** uint32_t activeThread = 0;
  15:Threads/pingpong-tasks2.c **** 
  16:Threads/pingpong-tasks2.c **** // corpo das threads
  17:Threads/pingpong-tasks2.c **** void BodyTask(void* arg)
  18:Threads/pingpong-tasks2.c **** {
  25              		.loc 1 18 0
  26              		.cfi_startproc
  27              		@ Volatile: function does not return.
  28              		@ args = 0, pretend = 0, frame = 0
  29              		@ frame_needed = 0, uses_anonymous_args = 0
  30              	.LVL0:
  31 0000 08B5     		push	{r3, lr}
  32              	.LCFI0:
  33              		.cfi_def_cfa_offset 8
  34              		.cfi_offset 3, -8
  35              		.cfi_offset 14, -4
  19:Threads/pingpong-tasks2.c **** 
  20:Threads/pingpong-tasks2.c ****   UARTprintf("Iniciei  tarefa %lu\n", getCurrentThread());
  36              		.loc 1 20 0
  37 0002 FFF7FEFF 		bl	getCurrentThread
ARM GAS  C:\Users\Diogo\AppData\Local\Temp\ccz982d4.s 			page 2


  38              	.LVL1:
  39 0006 0146     		mov	r1, r0
  40 0008 0848     		ldr	r0, .L5
  41 000a FFF7FEFF 		bl	UARTprintf
  42              	.LVL2:
  21:Threads/pingpong-tasks2.c ****   activeThread = getCurrentThread();
  43              		.loc 1 21 0
  44 000e FFF7FEFF 		bl	getCurrentThread
  45              	.LVL3:
  46 0012 074B     		ldr	r3, .L5+4
  47 0014 1860     		str	r0, [r3]
  22:Threads/pingpong-tasks2.c ****   while (activeThread <= MAXTASK)
  48              		.loc 1 22 0
  49 0016 1428     		cmp	r0, #20
  50 0018 00D8     		bhi	.L2
  51              	.L3:
  52 001a FEE7     		b	.L3
  53              	.L2:
  23:Threads/pingpong-tasks2.c ****   {
  24:Threads/pingpong-tasks2.c ****   }
  25:Threads/pingpong-tasks2.c ****   //while(id != activeThread) {}
  26:Threads/pingpong-tasks2.c **** 
  27:Threads/pingpong-tasks2.c ****   //activeThread++;
  28:Threads/pingpong-tasks2.c ****   // passa o controle para a proxima tarefa
  29:Threads/pingpong-tasks2.c ****   // while(currentThread != task[])
  30:Threads/pingpong-tasks2.c ****   // next = (task_id() < MAXTASK) ? task_id() + 1 : 1;
  31:Threads/pingpong-tasks2.c ****   // task_switch(&task[next]);
  32:Threads/pingpong-tasks2.c **** 
  33:Threads/pingpong-tasks2.c ****   UARTprintf("Encerrei tarefa %lu\n", getCurrentThread());
  54              		.loc 1 33 0
  55 001c FFF7FEFF 		bl	getCurrentThread
  56              	.LVL4:
  57 0020 0146     		mov	r1, r0
  58 0022 0448     		ldr	r0, .L5+8
  59 0024 FFF7FEFF 		bl	UARTprintf
  60              	.LVL5:
  61              	.L4:
  62 0028 FEE7     		b	.L4
  63              	.L6:
  64 002a 00BF     		.align	2
  65              	.L5:
  66 002c 00000000 		.word	.LC0
  67 0030 00000000 		.word	.LANCHOR0
  68 0034 18000000 		.word	.LC1
  69              		.cfi_endproc
  70              	.LFE3:
  71              		.size	BodyTask, .-BodyTask
  72              		.align	1
  73              		.global	__error__
  74              		.syntax unified
  75              		.thumb
  76              		.thumb_func
  77              		.fpu softvfp
  78              		.type	__error__, %function
  79              	__error__:
  80              	.LFB4:
  81              		.file 2 "hello.c"
ARM GAS  C:\Users\Diogo\AppData\Local\Temp\ccz982d4.s 			page 3


   1:hello.c       **** //*****************************************************************************
   2:hello.c       **** //
   3:hello.c       **** // hello.c - Simple hello world example.
   4:hello.c       **** //
   5:hello.c       **** // Copyright (c) 2013-2014 Texas Instruments Incorporated.  All rights reserved.
   6:hello.c       **** // Software License Agreement
   7:hello.c       **** //
   8:hello.c       **** // Texas Instruments (TI) is supplying this software for use solely and
   9:hello.c       **** // exclusively on TI's microcontroller products. The software is owned by
  10:hello.c       **** // TI and/or its suppliers, and is protected under applicable copyright
  11:hello.c       **** // laws. You may not combine this software with "viral" open-source
  12:hello.c       **** // software in order to form a larger program.
  13:hello.c       **** //
  14:hello.c       **** // THIS SOFTWARE IS PROVIDED "AS IS" AND WITH ALL FAULTS.
  15:hello.c       **** // NO WARRANTIES, WHETHER EXPRESS, IMPLIED OR STATUTORY, INCLUDING, BUT
  16:hello.c       **** // NOT LIMITED TO, IMPLIED WARRANTIES OF MERCHANTABILITY AND FITNESS FOR
  17:hello.c       **** // A PARTICULAR PURPOSE APPLY TO THIS SOFTWARE. TI SHALL NOT, UNDER ANY
  18:hello.c       **** // CIRCUMSTANCES, BE LIABLE FOR SPECIAL, INCIDENTAL, OR CONSEQUENTIAL
  19:hello.c       **** // DAMAGES, FOR ANY REASON WHATSOEVER.
  20:hello.c       **** //
  21:hello.c       **** // This is part of revision 2.1.0.12573 of the EK-TM4C1294XL Firmware Package.
  22:hello.c       **** //
  23:hello.c       **** //*****************************************************************************
  24:hello.c       **** 
  25:hello.c       **** #include <stdint.h>
  26:hello.c       **** #include <stdbool.h>
  27:hello.c       **** #include "hw_memmap.h"
  28:hello.c       **** #include "hw_types.h"
  29:hello.c       **** #include "driverlib/gpio.h"
  30:hello.c       **** #include "drivers/pinout.h"
  31:hello.c       **** #include "driverlib/pin_map.h"
  32:hello.c       **** #include "driverlib/rom.h"
  33:hello.c       **** #include "driverlib/rom_map.h"
  34:hello.c       **** #include "driverlib/sysctl.h"
  35:hello.c       **** #include "driverlib/uart.h"
  36:hello.c       **** #include "utils/uartstdio.h"
  37:hello.c       **** #include "Threads/thread.h"
  38:hello.c       **** #include "Threads/pingpong-tasks1.h"
  39:hello.c       **** #include "Threads/pingpong-tasks2.c"
  40:hello.c       **** #include "debug.h"
  41:hello.c       **** 
  42:hello.c       **** #include <stdlib.h>
  43:hello.c       **** 
  44:hello.c       **** int testafila(void);
  45:hello.c       **** #define STACK_SIZE 64
  46:hello.c       **** #define MAXTASK 20
  47:hello.c       **** 
  48:hello.c       **** uint32_t *createThreadStack(void);
  49:hello.c       **** 
  50:hello.c       **** uint32_t Thread1Stack[STACK_SIZE];
  51:hello.c       **** uint32_t Thread2Stack[STACK_SIZE];
  52:hello.c       **** //uint32_t Thread3Stack[STACK_SIZE];
  53:hello.c       **** 
  54:hello.c       **** ThreadControlBlock task[MAXTASK + 1];
  55:hello.c       **** uint32_t ThreadStacks[MAXTASK][STACK_SIZE];
  56:hello.c       **** 
  57:hello.c       **** //*****************************************************************************
ARM GAS  C:\Users\Diogo\AppData\Local\Temp\ccz982d4.s 			page 4


  58:hello.c       **** //
  59:hello.c       **** //! \addtogroup example_list
  60:hello.c       **** //! <h1>Hello World (hello)</h1>
  61:hello.c       **** //!
  62:hello.c       **** //! A very simple ``hello world'' example.  It simply displays ``Hello World!''
  63:hello.c       **** //! on the UART and is a starting point for more complicated applications.
  64:hello.c       **** //!
  65:hello.c       **** //! Open a terminal with 115,200 8-N-1 to see the output for this demo.
  66:hello.c       **** //
  67:hello.c       **** //*****************************************************************************
  68:hello.c       **** 
  69:hello.c       **** //*****************************************************************************
  70:hello.c       **** //
  71:hello.c       **** // System clock rate in Hz.
  72:hello.c       **** //
  73:hello.c       **** //*****************************************************************************
  74:hello.c       **** uint32_t g_ui32SysClock;
  75:hello.c       **** 
  76:hello.c       **** //*****************************************************************************
  77:hello.c       **** //
  78:hello.c       **** // The error routine that is called if the driver library encounters an error.
  79:hello.c       **** //
  80:hello.c       **** //*****************************************************************************
  81:hello.c       **** #ifdef DEBUG
  82:hello.c       **** void __error__(char *pcFilename, uint32_t ui32Line)
  83:hello.c       **** {
  82              		.loc 2 83 0
  83              		.cfi_startproc
  84              		@ args = 0, pretend = 0, frame = 0
  85              		@ frame_needed = 0, uses_anonymous_args = 0
  86              	.LVL6:
  87 0038 08B5     		push	{r3, lr}
  88              	.LCFI1:
  89              		.cfi_def_cfa_offset 8
  90              		.cfi_offset 3, -8
  91              		.cfi_offset 14, -4
  84:hello.c       ****   UARTprintf("%s %d\n", pcFilename, ui32Line);
  92              		.loc 2 84 0
  93 003a 0A46     		mov	r2, r1
  94 003c 0146     		mov	r1, r0
  95              	.LVL7:
  96 003e 0248     		ldr	r0, .L8
  97              	.LVL8:
  98 0040 FFF7FEFF 		bl	UARTprintf
  99              	.LVL9:
  85:hello.c       **** }
 100              		.loc 2 85 0
 101 0044 08BD     		pop	{r3, pc}
 102              	.L9:
 103 0046 00BF     		.align	2
 104              	.L8:
 105 0048 30000000 		.word	.LC2
 106              		.cfi_endproc
 107              	.LFE4:
 108              		.size	__error__, .-__error__
 109              		.align	1
 110              		.global	ConfigureUART
ARM GAS  C:\Users\Diogo\AppData\Local\Temp\ccz982d4.s 			page 5


 111              		.syntax unified
 112              		.thumb
 113              		.thumb_func
 114              		.fpu softvfp
 115              		.type	ConfigureUART, %function
 116              	ConfigureUART:
 117              	.LFB5:
  86:hello.c       **** #endif
  87:hello.c       **** 
  88:hello.c       **** //*****************************************************************************
  89:hello.c       **** //
  90:hello.c       **** // Configure the UART and its pins.  This must be called before UARTprintf().
  91:hello.c       **** //
  92:hello.c       **** //*****************************************************************************
  93:hello.c       **** void ConfigureUART(void)
  94:hello.c       **** {
 118              		.loc 2 94 0
 119              		.cfi_startproc
 120              		@ args = 0, pretend = 0, frame = 0
 121              		@ frame_needed = 0, uses_anonymous_args = 0
 122 004c 10B5     		push	{r4, lr}
 123              	.LCFI2:
 124              		.cfi_def_cfa_offset 8
 125              		.cfi_offset 4, -8
 126              		.cfi_offset 14, -4
  95:hello.c       ****   //
  96:hello.c       ****   // Enable the GPIO Peripheral used by the UART.
  97:hello.c       ****   //
  98:hello.c       ****   ROM_SysCtlPeripheralEnable(SYSCTL_PERIPH_GPIOA);
 127              		.loc 2 98 0
 128 004e 134C     		ldr	r4, .L11
 129 0050 2368     		ldr	r3, [r4]
 130 0052 9B69     		ldr	r3, [r3, #24]
 131 0054 1248     		ldr	r0, .L11+4
 132 0056 9847     		blx	r3
 133              	.LVL10:
  99:hello.c       **** 
 100:hello.c       ****   //
 101:hello.c       ****   // Enable UART0
 102:hello.c       ****   //
 103:hello.c       ****   ROM_SysCtlPeripheralEnable(SYSCTL_PERIPH_UART0);
 134              		.loc 2 103 0
 135 0058 2368     		ldr	r3, [r4]
 136 005a 9B69     		ldr	r3, [r3, #24]
 137 005c 1148     		ldr	r0, .L11+8
 138 005e 9847     		blx	r3
 139              	.LVL11:
 104:hello.c       **** 
 105:hello.c       ****   //
 106:hello.c       ****   // Configure GPIO Pins for UART mode.
 107:hello.c       ****   //
 108:hello.c       ****   ROM_GPIOPinConfigure(GPIO_PA0_U0RX);
 140              		.loc 2 108 0
 141 0060 243C     		subs	r4, r4, #36
 142 0062 2368     		ldr	r3, [r4]
 143 0064 9B6E     		ldr	r3, [r3, #104]
 144 0066 0120     		movs	r0, #1
ARM GAS  C:\Users\Diogo\AppData\Local\Temp\ccz982d4.s 			page 6


 145 0068 9847     		blx	r3
 146              	.LVL12:
 109:hello.c       ****   ROM_GPIOPinConfigure(GPIO_PA1_U0TX);
 147              		.loc 2 109 0
 148 006a 2368     		ldr	r3, [r4]
 149 006c 9B6E     		ldr	r3, [r3, #104]
 150 006e 40F20140 		movw	r0, #1025
 151 0072 9847     		blx	r3
 152              	.LVL13:
 110:hello.c       ****   ROM_GPIOPinTypeUART(GPIO_PORTA_BASE, GPIO_PIN_0 | GPIO_PIN_1);
 153              		.loc 2 110 0
 154 0074 2368     		ldr	r3, [r4]
 155 0076 5B6D     		ldr	r3, [r3, #84]
 156 0078 0321     		movs	r1, #3
 157 007a 4FF04020 		mov	r0, #1073758208
 158 007e 9847     		blx	r3
 159              	.LVL14:
 111:hello.c       ****   ROM_GPIOPinTypeUART(GPIO_PORTA_BASE, GPIO_PIN_0 | GPIO_PIN_2);
 160              		.loc 2 111 0
 161 0080 2368     		ldr	r3, [r4]
 162 0082 5B6D     		ldr	r3, [r3, #84]
 163 0084 0521     		movs	r1, #5
 164 0086 4FF04020 		mov	r0, #1073758208
 165 008a 9847     		blx	r3
 166              	.LVL15:
 112:hello.c       **** 
 113:hello.c       ****   //
 114:hello.c       ****   // Initialize the UART for console I/O.
 115:hello.c       ****   //
 116:hello.c       ****   UARTStdioConfig(0, 115200, g_ui32SysClock);
 167              		.loc 2 116 0
 168 008c 064B     		ldr	r3, .L11+12
 169 008e 1A68     		ldr	r2, [r3]
 170 0090 4FF4E131 		mov	r1, #115200
 171 0094 0020     		movs	r0, #0
 172 0096 FFF7FEFF 		bl	UARTStdioConfig
 173              	.LVL16:
 117:hello.c       **** }
 174              		.loc 2 117 0
 175 009a 10BD     		pop	{r4, pc}
 176              	.L12:
 177              		.align	2
 178              	.L11:
 179 009c 44000001 		.word	16777284
 180 00a0 000800F0 		.word	-268433408
 181 00a4 001800F0 		.word	-268429312
 182 00a8 00000000 		.word	g_ui32SysClock
 183              		.cfi_endproc
 184              	.LFE5:
 185              		.size	ConfigureUART, .-ConfigureUART
 186              		.align	1
 187              		.global	createThreadStack
 188              		.syntax unified
 189              		.thumb
 190              		.thumb_func
 191              		.fpu softvfp
 192              		.type	createThreadStack, %function
ARM GAS  C:\Users\Diogo\AppData\Local\Temp\ccz982d4.s 			page 7


 193              	createThreadStack:
 194              	.LFB6:
 118:hello.c       **** 
 119:hello.c       **** uint32_t *createThreadStack(void)
 120:hello.c       **** {
 195              		.loc 2 120 0
 196              		.cfi_startproc
 197              		@ args = 0, pretend = 0, frame = 0
 198              		@ frame_needed = 0, uses_anonymous_args = 0
 199 00ac 08B5     		push	{r3, lr}
 200              	.LCFI3:
 201              		.cfi_def_cfa_offset 8
 202              		.cfi_offset 3, -8
 203              		.cfi_offset 14, -4
 121:hello.c       ****   uint32_t *aux;
 122:hello.c       ****   aux = malloc(STACK_SIZE * sizeof(uint32_t));
 204              		.loc 2 122 0
 205 00ae 4FF48070 		mov	r0, #256
 206 00b2 FFF7FEFF 		bl	malloc
 207              	.LVL17:
 123:hello.c       ****   return aux;
 124:hello.c       **** }
 208              		.loc 2 124 0
 209 00b6 08BD     		pop	{r3, pc}
 210              		.cfi_endproc
 211              	.LFE6:
 212              		.size	createThreadStack, .-createThreadStack
 213              		.align	1
 214              		.global	initThreads
 215              		.syntax unified
 216              		.thumb
 217              		.thumb_func
 218              		.fpu softvfp
 219              		.type	initThreads, %function
 220              	initThreads:
 221              	.LFB7:
 125:hello.c       **** 
 126:hello.c       **** void initThreads(void)
 127:hello.c       **** {
 222              		.loc 2 127 0
 223              		.cfi_startproc
 224              		@ args = 0, pretend = 0, frame = 0
 225              		@ frame_needed = 0, uses_anonymous_args = 0
 226 00b8 2DE9F041 		push	{r4, r5, r6, r7, r8, lr}
 227              	.LCFI4:
 228              		.cfi_def_cfa_offset 24
 229              		.cfi_offset 4, -24
 230              		.cfi_offset 5, -20
 231              		.cfi_offset 6, -16
 232              		.cfi_offset 7, -12
 233              		.cfi_offset 8, -8
 234              		.cfi_offset 14, -4
 128:hello.c       ****   int i;
 129:hello.c       ****   printf("Inicializando Tarefas\n");
 235              		.loc 2 129 0
 236 00bc 0C48     		ldr	r0, .L17
 237 00be FFF7FEFF 		bl	puts
ARM GAS  C:\Users\Diogo\AppData\Local\Temp\ccz982d4.s 			page 8


 238              	.LVL18:
 239 00c2 0C4D     		ldr	r5, .L17+4
 130:hello.c       **** 
 131:hello.c       ****   for (i = 0; i <= MAXTASK; i++)
 240              		.loc 2 131 0
 241 00c4 0024     		movs	r4, #0
 132:hello.c       ****   {
 133:hello.c       ****     UARTprintf("Criando Tarefa %i\n", i);
 242              		.loc 2 133 0
 243 00c6 DFF83480 		ldr	r8, .L17+12
 134:hello.c       ****   createThread(BodyTask, ThreadStacks[i], STACK_SIZE);
 244              		.loc 2 134 0
 245 00ca 0B4F     		ldr	r7, .L17+8
 246 00cc 4026     		movs	r6, #64
 247              	.LVL19:
 248              	.L15:
 133:hello.c       ****   createThread(BodyTask, ThreadStacks[i], STACK_SIZE);
 249              		.loc 2 133 0 discriminator 3
 250 00ce 2146     		mov	r1, r4
 251 00d0 4046     		mov	r0, r8
 252 00d2 FFF7FEFF 		bl	UARTprintf
 253              	.LVL20:
 254              		.loc 2 134 0 discriminator 3
 255 00d6 3246     		mov	r2, r6
 256 00d8 2946     		mov	r1, r5
 257 00da 3846     		mov	r0, r7
 258 00dc FFF7FEFF 		bl	createThread
 259              	.LVL21:
 131:hello.c       ****   {
 260              		.loc 2 131 0 discriminator 3
 261 00e0 0134     		adds	r4, r4, #1
 262              	.LVL22:
 263 00e2 05F58075 		add	r5, r5, #256
 264 00e6 152C     		cmp	r4, #21
 265 00e8 F1D1     		bne	.L15
 135:hello.c       ****   }
 136:hello.c       **** }
 266              		.loc 2 136 0
 267 00ea BDE8F081 		pop	{r4, r5, r6, r7, r8, pc}
 268              	.LVL23:
 269              	.L18:
 270 00ee 00BF     		.align	2
 271              	.L17:
 272 00f0 38000000 		.word	.LC3
 273 00f4 00000000 		.word	ThreadStacks
 274 00f8 00000000 		.word	BodyTask
 275 00fc 50000000 		.word	.LC4
 276              		.cfi_endproc
 277              	.LFE7:
 278              		.size	initThreads, .-initThreads
 279              		.align	1
 280              		.global	main
 281              		.syntax unified
 282              		.thumb
 283              		.thumb_func
 284              		.fpu softvfp
 285              		.type	main, %function
ARM GAS  C:\Users\Diogo\AppData\Local\Temp\ccz982d4.s 			page 9


 286              	main:
 287              	.LFB8:
 137:hello.c       **** 
 138:hello.c       **** 
 139:hello.c       **** //*****************************************************************************
 140:hello.c       **** //
 141:hello.c       **** // Print "Hello World!" to the UART on the Intelligent UART Module.
 142:hello.c       **** //
 143:hello.c       **** //*****************************************************************************
 144:hello.c       **** int main(void)
 145:hello.c       **** {
 288              		.loc 2 145 0
 289              		.cfi_startproc
 290              		@ args = 0, pretend = 0, frame = 0
 291              		@ frame_needed = 0, uses_anonymous_args = 0
 292 0100 70B5     		push	{r4, r5, r6, lr}
 293              	.LCFI5:
 294              		.cfi_def_cfa_offset 16
 295              		.cfi_offset 4, -16
 296              		.cfi_offset 5, -12
 297              		.cfi_offset 6, -8
 298              		.cfi_offset 14, -4
 146:hello.c       ****   // Run from the PLL at 120 MHz.
 147:hello.c       ****   //
 148:hello.c       ****   g_ui32SysClock = MAP_SysCtlClockFreqSet((SYSCTL_XTAL_25MHZ |
 299              		.loc 2 148 0
 300 0102 284B     		ldr	r3, .L20
 301 0104 1B68     		ldr	r3, [r3]
 302 0106 D3F8C030 		ldr	r3, [r3, #192]
 303 010a 2749     		ldr	r1, .L20+4
 304 010c 2748     		ldr	r0, .L20+8
 305 010e 9847     		blx	r3
 306              	.LVL24:
 307 0110 274C     		ldr	r4, .L20+12
 308 0112 2060     		str	r0, [r4]
 149:hello.c       ****                                            SYSCTL_OSC_MAIN | SYSCTL_USE_PLL |
 150:hello.c       ****                                            SYSCTL_CFG_VCO_480),
 151:hello.c       ****                                           120000000);
 152:hello.c       **** 
 153:hello.c       ****   //
 154:hello.c       ****   // Configure the device pins.
 155:hello.c       ****   //
 156:hello.c       ****   PinoutSet(false, false);
 309              		.loc 2 156 0
 310 0114 0021     		movs	r1, #0
 311 0116 0846     		mov	r0, r1
 312 0118 FFF7FEFF 		bl	PinoutSet
 313              	.LVL25:
 157:hello.c       **** 
 158:hello.c       ****   //
 159:hello.c       ****   // Enable the GPIO pins for the LED D1 (PN1).
 160:hello.c       ****   //
 161:hello.c       ****   ROM_GPIOPinTypeGPIOOutput(GPIO_PORTN_BASE, GPIO_PIN_1);
 314              		.loc 2 161 0
 315 011c 254D     		ldr	r5, .L20+16
 316 011e 264E     		ldr	r6, .L20+20
 317 0120 3368     		ldr	r3, [r6]
ARM GAS  C:\Users\Diogo\AppData\Local\Temp\ccz982d4.s 			page 10


 318 0122 DB6B     		ldr	r3, [r3, #60]
 319 0124 0221     		movs	r1, #2
 320 0126 2846     		mov	r0, r5
 321 0128 9847     		blx	r3
 322              	.LVL26:
 162:hello.c       ****   ROM_GPIOPinTypeGPIOOutput(GPIO_PORTN_BASE, GPIO_PIN_2);
 323              		.loc 2 162 0
 324 012a 3368     		ldr	r3, [r6]
 325 012c DB6B     		ldr	r3, [r3, #60]
 326 012e 0421     		movs	r1, #4
 327 0130 2846     		mov	r0, r5
 328 0132 9847     		blx	r3
 329              	.LVL27:
 163:hello.c       **** 
 164:hello.c       ****   //
 165:hello.c       ****   // Initialize the UART.
 166:hello.c       ****   //
 167:hello.c       ****   ConfigureUART();
 330              		.loc 2 167 0
 331 0134 FFF7FEFF 		bl	ConfigureUART
 332              	.LVL28:
 168:hello.c       **** 
 169:hello.c       ****   //
 170:hello.c       ****   // Hello!
 171:hello.c       ****   //
 172:hello.c       ****   UARTprintf("\n\n\n\n\n\n\n\n\n\n\n");
 333              		.loc 2 172 0
 334 0138 204D     		ldr	r5, .L20+24
 335 013a 2846     		mov	r0, r5
 336 013c FFF7FEFF 		bl	UARTprintf
 337              	.LVL29:
 173:hello.c       ****   UARTprintf("\n\n\n\n\n\n\n\n\n\n\n");
 338              		.loc 2 173 0
 339 0140 2846     		mov	r0, r5
 340 0142 FFF7FEFF 		bl	UARTprintf
 341              	.LVL30:
 174:hello.c       ****   UARTprintf("\n\n\n\n\n\n\n\n\n\n\n");
 342              		.loc 2 174 0
 343 0146 2846     		mov	r0, r5
 344 0148 FFF7FEFF 		bl	UARTprintf
 345              	.LVL31:
 175:hello.c       ****   UARTprintf("Hello, world  TIVA CCCC !\n");
 346              		.loc 2 175 0
 347 014c 1C48     		ldr	r0, .L20+28
 348 014e FFF7FEFF 		bl	UARTprintf
 349              	.LVL32:
 176:hello.c       **** 
 177:hello.c       ****   UARTprintf("Ligando o LED\n");
 350              		.loc 2 177 0
 351 0152 1C48     		ldr	r0, .L20+32
 352 0154 FFF7FEFF 		bl	UARTprintf
 353              	.LVL33:
 178:hello.c       ****   //
 179:hello.c       ****   // Turn on D1.
 180:hello.c       ****   //
 181:hello.c       ****   LEDWrite(CLP_D1, 1);
 354              		.loc 2 181 0
ARM GAS  C:\Users\Diogo\AppData\Local\Temp\ccz982d4.s 			page 11


 355 0158 0121     		movs	r1, #1
 356 015a 0846     		mov	r0, r1
 357 015c FFF7FEFF 		bl	LEDWrite
 358              	.LVL34:
 182:hello.c       ****   LEDWrite(CLP_D2, 0);
 359              		.loc 2 182 0
 360 0160 0021     		movs	r1, #0
 361 0162 0220     		movs	r0, #2
 362 0164 FFF7FEFF 		bl	LEDWrite
 363              	.LVL35:
 183:hello.c       **** 
 184:hello.c       ****   //
 185:hello.c       ****   // Delay for a bit.
 186:hello.c       ****   //
 187:hello.c       ****   SysCtlDelay(g_ui32SysClock / 10 / 3);
 364              		.loc 2 187 0
 365 0168 2068     		ldr	r0, [r4]
 366 016a 174D     		ldr	r5, .L20+36
 367 016c A5FB0030 		umull	r3, r0, r5, r0
 368 0170 0009     		lsrs	r0, r0, #4
 369 0172 FFF7FEFF 		bl	SysCtlDelay
 370              	.LVL36:
 188:hello.c       **** 
 189:hello.c       ****   //
 190:hello.c       ****   UARTprintf("Desligando o LED\n");
 371              		.loc 2 190 0
 372 0176 1548     		ldr	r0, .L20+40
 373 0178 FFF7FEFF 		bl	UARTprintf
 374              	.LVL37:
 191:hello.c       ****   //
 192:hello.c       ****   LEDWrite(CLP_D1, 0);
 375              		.loc 2 192 0
 376 017c 0021     		movs	r1, #0
 377 017e 0120     		movs	r0, #1
 378 0180 FFF7FEFF 		bl	LEDWrite
 379              	.LVL38:
 193:hello.c       ****   LEDWrite(CLP_D2, 1);
 380              		.loc 2 193 0
 381 0184 0121     		movs	r1, #1
 382 0186 0220     		movs	r0, #2
 383 0188 FFF7FEFF 		bl	LEDWrite
 384              	.LVL39:
 194:hello.c       ****   //
 195:hello.c       ****   // Delay for a bit.
 196:hello.c       ****   //
 197:hello.c       ****   SysCtlDelay(g_ui32SysClock / 10 / 3);
 385              		.loc 2 197 0
 386 018c 2068     		ldr	r0, [r4]
 387 018e A5FB0030 		umull	r3, r0, r5, r0
 388 0192 0009     		lsrs	r0, r0, #4
 389 0194 FFF7FEFF 		bl	SysCtlDelay
 390              	.LVL40:
 198:hello.c       ****   initThreads();
 391              		.loc 2 198 0
 392 0198 FFF7FEFF 		bl	initThreads
 393              	.LVL41:
 199:hello.c       ****   startSwitcher(); // start the thread switching (this does not return)
ARM GAS  C:\Users\Diogo\AppData\Local\Temp\ccz982d4.s 			page 12


 394              		.loc 2 199 0
 395 019c FFF7FEFF 		bl	startSwitcher
 396              	.LVL42:
 200:hello.c       **** }
 397              		.loc 2 200 0
 398 01a0 0020     		movs	r0, #0
 399 01a2 70BD     		pop	{r4, r5, r6, pc}
 400              	.L21:
 401              		.align	2
 402              	.L20:
 403 01a4 44000001 		.word	16777284
 404 01a8 000E2707 		.word	120000000
 405 01ac 800600F1 		.word	-251656576
 406 01b0 00000000 		.word	g_ui32SysClock
 407 01b4 00400640 		.word	1074151424
 408 01b8 20000001 		.word	16777248
 409 01bc 64000000 		.word	.LC5
 410 01c0 70000000 		.word	.LC6
 411 01c4 8C000000 		.word	.LC7
 412 01c8 89888888 		.word	-2004318071
 413 01cc 9C000000 		.word	.LC8
 414              		.cfi_endproc
 415              	.LFE8:
 416              		.size	main, .-main
 417              		.comm	g_ui32SysClock,4,4
 418              		.comm	ThreadStacks,5120,4
 419              		.comm	task,336,4
 420              		.comm	Thread2Stack,256,4
 421              		.comm	Thread1Stack,256,4
 422              		.global	activeThread
 423              		.bss
 424              		.align	2
 425              		.set	.LANCHOR0,. + 0
 426              		.type	activeThread, %object
 427              		.size	activeThread, 4
 428              	activeThread:
 429 0000 00000000 		.space	4
 430              		.section	.rodata.str1.4,"aMS",%progbits,1
 431              		.align	2
 432              	.LC0:
 433 0000 496E6963 		.ascii	"Iniciei  tarefa %lu\012\000"
 433      69656920 
 433      20746172 
 433      65666120 
 433      256C750A 
 434 0015 000000   		.space	3
 435              	.LC1:
 436 0018 456E6365 		.ascii	"Encerrei tarefa %lu\012\000"
 436      72726569 
 436      20746172 
 436      65666120 
 436      256C750A 
 437 002d 000000   		.space	3
 438              	.LC2:
 439 0030 25732025 		.ascii	"%s %d\012\000"
 439      640A00
 440 0037 00       		.space	1
ARM GAS  C:\Users\Diogo\AppData\Local\Temp\ccz982d4.s 			page 13


 441              	.LC3:
 442 0038 496E6963 		.ascii	"Inicializando Tarefas\000"
 442      69616C69 
 442      7A616E64 
 442      6F205461 
 442      72656661 
 443 004e 0000     		.space	2
 444              	.LC4:
 445 0050 43726961 		.ascii	"Criando Tarefa %i\012\000"
 445      6E646F20 
 445      54617265 
 445      66612025 
 445      690A00
 446 0063 00       		.space	1
 447              	.LC5:
 448 0064 0A0A0A0A 		.ascii	"\012\012\012\012\012\012\012\012\012\012\012\000"
 448      0A0A0A0A 
 448      0A0A0A00 
 449              	.LC6:
 450 0070 48656C6C 		.ascii	"Hello, world  TIVA CCCC !\012\000"
 450      6F2C2077 
 450      6F726C64 
 450      20205449 
 450      56412043 
 451 008b 00       		.space	1
 452              	.LC7:
 453 008c 4C696761 		.ascii	"Ligando o LED\012\000"
 453      6E646F20 
 453      6F204C45 
 453      440A00
 454 009b 00       		.space	1
 455              	.LC8:
 456 009c 4465736C 		.ascii	"Desligando o LED\012\000"
 456      6967616E 
 456      646F206F 
 456      204C4544 
 456      0A00
 457              		.text
 458              	.Letext0:
 459              		.file 3 "c:\\program files (x86)\\gnu tools arm embedded\\7 2018-q2-update\\arm-none-eabi\\include
 460              		.file 4 "c:\\program files (x86)\\gnu tools arm embedded\\7 2018-q2-update\\arm-none-eabi\\include
 461              		.file 5 "Threads/thread.h"
 462              		.file 6 "c:\\program files (x86)\\gnu tools arm embedded\\7 2018-q2-update\\arm-none-eabi\\include
 463              		.file 7 "c:\\program files (x86)\\gnu tools arm embedded\\7 2018-q2-update\\arm-none-eabi\\include
 464              		.file 8 "c:\\program files (x86)\\gnu tools arm embedded\\7 2018-q2-update\\lib\\gcc\\arm-none-eab
 465              		.file 9 "c:\\program files (x86)\\gnu tools arm embedded\\7 2018-q2-update\\arm-none-eabi\\include
 466              		.file 10 "c:\\program files (x86)\\gnu tools arm embedded\\7 2018-q2-update\\arm-none-eabi\\includ
 467              		.file 11 "drivers/pinout.h"
 468              		.file 12 "./inc/utils/uartstdio.h"
 469              		.file 13 "./inc/driverlib/sysctl.h"
 470              		.file 14 "<built-in>"
 471              		.section	.debug_info,"",%progbits
 472              	.Ldebug_info0:
 473 0000 D00E0000 		.4byte	0xed0
 474 0004 0200     		.2byte	0x2
 475 0006 00000000 		.4byte	.Ldebug_abbrev0
 476 000a 04       		.byte	0x4
ARM GAS  C:\Users\Diogo\AppData\Local\Temp\ccz982d4.s 			page 14


 477 000b 01       		.uleb128 0x1
 478 000c 0D030000 		.4byte	.LASF151
 479 0010 0C       		.byte	0xc
 480 0011 04020000 		.4byte	.LASF152
 481 0015 C2050000 		.4byte	.LASF153
 482 0019 00000000 		.4byte	.Ltext0
 483 001d D0010000 		.4byte	.Letext0
 484 0021 00000000 		.4byte	.Ldebug_line0
 485 0025 02       		.uleb128 0x2
 486 0026 01       		.byte	0x1
 487 0027 06       		.byte	0x6
 488 0028 C3000000 		.4byte	.LASF0
 489 002c 02       		.uleb128 0x2
 490 002d 01       		.byte	0x1
 491 002e 08       		.byte	0x8
 492 002f 2F040000 		.4byte	.LASF1
 493 0033 02       		.uleb128 0x2
 494 0034 02       		.byte	0x2
 495 0035 05       		.byte	0x5
 496 0036 4B040000 		.4byte	.LASF2
 497 003a 02       		.uleb128 0x2
 498 003b 02       		.byte	0x2
 499 003c 07       		.byte	0x7
 500 003d 76020000 		.4byte	.LASF3
 501 0041 02       		.uleb128 0x2
 502 0042 04       		.byte	0x4
 503 0043 05       		.byte	0x5
 504 0044 08010000 		.4byte	.LASF4
 505 0048 03       		.uleb128 0x3
 506 0049 BB010000 		.4byte	.LASF9
 507 004d 03       		.byte	0x3
 508 004e 4F       		.byte	0x4f
 509 004f 53000000 		.4byte	0x53
 510 0053 02       		.uleb128 0x2
 511 0054 04       		.byte	0x4
 512 0055 07       		.byte	0x7
 513 0056 35020000 		.4byte	.LASF5
 514 005a 02       		.uleb128 0x2
 515 005b 08       		.byte	0x8
 516 005c 05       		.byte	0x5
 517 005d B5000000 		.4byte	.LASF6
 518 0061 02       		.uleb128 0x2
 519 0062 08       		.byte	0x8
 520 0063 07       		.byte	0x7
 521 0064 5C000000 		.4byte	.LASF7
 522 0068 04       		.uleb128 0x4
 523 0069 04       		.byte	0x4
 524 006a 05       		.byte	0x5
 525 006b 696E7400 		.ascii	"int\000"
 526 006f 02       		.uleb128 0x2
 527 0070 04       		.byte	0x4
 528 0071 07       		.byte	0x7
 529 0072 11020000 		.4byte	.LASF8
 530 0076 03       		.uleb128 0x3
 531 0077 00050000 		.4byte	.LASF10
 532 007b 04       		.byte	0x4
 533 007c 30       		.byte	0x30
ARM GAS  C:\Users\Diogo\AppData\Local\Temp\ccz982d4.s 			page 15


 534 007d 48000000 		.4byte	0x48
 535 0081 05       		.uleb128 0x5
 536 0082 04       		.byte	0x4
 537 0083 06       		.uleb128 0x6
 538 0084 4D020000 		.4byte	.LASF14
 539 0088 10       		.byte	0x10
 540 0089 05       		.byte	0x5
 541 008a 09       		.byte	0x9
 542 008b C7000000 		.4byte	0xc7
 543 008f 07       		.uleb128 0x7
 544 0090 63010000 		.4byte	.LASF11
 545 0094 05       		.byte	0x5
 546 0095 0A       		.byte	0xa
 547 0096 C7000000 		.4byte	0xc7
 548 009a 02       		.byte	0x2
 549 009b 23       		.byte	0x23
 550 009c 00       		.uleb128 0
 551 009d 07       		.uleb128 0x7
 552 009e 77060000 		.4byte	.LASF12
 553 00a2 05       		.byte	0x5
 554 00a3 0B       		.byte	0xb
 555 00a4 D4000000 		.4byte	0xd4
 556 00a8 02       		.byte	0x2
 557 00a9 23       		.byte	0x23
 558 00aa 04       		.uleb128 0x4
 559 00ab 07       		.uleb128 0x7
 560 00ac 23010000 		.4byte	.LASF13
 561 00b0 05       		.byte	0x5
 562 00b1 0C       		.byte	0xc
 563 00b2 76000000 		.4byte	0x76
 564 00b6 02       		.byte	0x2
 565 00b7 23       		.byte	0x23
 566 00b8 08       		.uleb128 0x8
 567 00b9 08       		.uleb128 0x8
 568 00ba 696400   		.ascii	"id\000"
 569 00bd 05       		.byte	0x5
 570 00be 0D       		.byte	0xd
 571 00bf 76000000 		.4byte	0x76
 572 00c3 02       		.byte	0x2
 573 00c4 23       		.byte	0x23
 574 00c5 0C       		.uleb128 0xc
 575 00c6 00       		.byte	0
 576 00c7 09       		.uleb128 0x9
 577 00c8 04       		.byte	0x4
 578 00c9 76000000 		.4byte	0x76
 579 00cd 0A       		.uleb128 0xa
 580 00ce D4000000 		.4byte	0xd4
 581 00d2 0B       		.uleb128 0xb
 582 00d3 00       		.byte	0
 583 00d4 09       		.uleb128 0x9
 584 00d5 04       		.byte	0x4
 585 00d6 CD000000 		.4byte	0xcd
 586 00da 03       		.uleb128 0x3
 587 00db 4D020000 		.4byte	.LASF14
 588 00df 05       		.byte	0x5
 589 00e0 0E       		.byte	0xe
 590 00e1 83000000 		.4byte	0x83
ARM GAS  C:\Users\Diogo\AppData\Local\Temp\ccz982d4.s 			page 16


 591 00e5 02       		.uleb128 0x2
 592 00e6 08       		.byte	0x8
 593 00e7 04       		.byte	0x4
 594 00e8 B5030000 		.4byte	.LASF15
 595 00ec 03       		.uleb128 0x3
 596 00ed C6020000 		.4byte	.LASF16
 597 00f1 06       		.byte	0x6
 598 00f2 22       		.byte	0x22
 599 00f3 F7000000 		.4byte	0xf7
 600 00f7 09       		.uleb128 0x9
 601 00f8 04       		.byte	0x4
 602 00f9 FD000000 		.4byte	0xfd
 603 00fd 0C       		.uleb128 0xc
 604 00fe F9040000 		.4byte	.LASF123
 605 0102 01       		.byte	0x1
 606 0103 03       		.uleb128 0x3
 607 0104 F7030000 		.4byte	.LASF17
 608 0108 07       		.byte	0x7
 609 0109 2C       		.byte	0x2c
 610 010a 41000000 		.4byte	0x41
 611 010e 03       		.uleb128 0x3
 612 010f 1B050000 		.4byte	.LASF18
 613 0113 07       		.byte	0x7
 614 0114 72       		.byte	0x72
 615 0115 41000000 		.4byte	0x41
 616 0119 0D       		.uleb128 0xd
 617 011a CE020000 		.4byte	.LASF19
 618 011e 08       		.byte	0x8
 619 011f 6501     		.2byte	0x165
 620 0121 6F000000 		.4byte	0x6f
 621 0125 0E       		.uleb128 0xe
 622 0126 04       		.byte	0x4
 623 0127 07       		.byte	0x7
 624 0128 A6       		.byte	0xa6
 625 0129 44010000 		.4byte	0x144
 626 012d 0F       		.uleb128 0xf
 627 012e B3020000 		.4byte	.LASF20
 628 0132 07       		.byte	0x7
 629 0133 A8       		.byte	0xa8
 630 0134 19010000 		.4byte	0x119
 631 0138 0F       		.uleb128 0xf
 632 0139 1E020000 		.4byte	.LASF21
 633 013d 07       		.byte	0x7
 634 013e A9       		.byte	0xa9
 635 013f 44010000 		.4byte	0x144
 636 0143 00       		.byte	0
 637 0144 10       		.uleb128 0x10
 638 0145 2C000000 		.4byte	0x2c
 639 0149 54010000 		.4byte	0x154
 640 014d 11       		.uleb128 0x11
 641 014e 6F000000 		.4byte	0x6f
 642 0152 03       		.byte	0x3
 643 0153 00       		.byte	0
 644 0154 12       		.uleb128 0x12
 645 0155 08       		.byte	0x8
 646 0156 07       		.byte	0x7
 647 0157 A3       		.byte	0xa3
ARM GAS  C:\Users\Diogo\AppData\Local\Temp\ccz982d4.s 			page 17


 648 0158 79010000 		.4byte	0x179
 649 015c 07       		.uleb128 0x7
 650 015d F1040000 		.4byte	.LASF22
 651 0161 07       		.byte	0x7
 652 0162 A5       		.byte	0xa5
 653 0163 68000000 		.4byte	0x68
 654 0167 02       		.byte	0x2
 655 0168 23       		.byte	0x23
 656 0169 00       		.uleb128 0
 657 016a 07       		.uleb128 0x7
 658 016b 6A050000 		.4byte	.LASF23
 659 016f 07       		.byte	0x7
 660 0170 AA       		.byte	0xaa
 661 0171 25010000 		.4byte	0x125
 662 0175 02       		.byte	0x2
 663 0176 23       		.byte	0x23
 664 0177 04       		.uleb128 0x4
 665 0178 00       		.byte	0
 666 0179 03       		.uleb128 0x3
 667 017a 73040000 		.4byte	.LASF24
 668 017e 07       		.byte	0x7
 669 017f AB       		.byte	0xab
 670 0180 54010000 		.4byte	0x154
 671 0184 03       		.uleb128 0x3
 672 0185 CC010000 		.4byte	.LASF25
 673 0189 07       		.byte	0x7
 674 018a AF       		.byte	0xaf
 675 018b EC000000 		.4byte	0xec
 676 018f 03       		.uleb128 0x3
 677 0190 80050000 		.4byte	.LASF26
 678 0194 09       		.byte	0x9
 679 0195 16       		.byte	0x16
 680 0196 53000000 		.4byte	0x53
 681 019a 06       		.uleb128 0x6
 682 019b DD010000 		.4byte	.LASF27
 683 019f 18       		.byte	0x18
 684 01a0 09       		.byte	0x9
 685 01a1 2F       		.byte	0x2f
 686 01a2 F9010000 		.4byte	0x1f9
 687 01a6 07       		.uleb128 0x7
 688 01a7 47050000 		.4byte	.LASF28
 689 01ab 09       		.byte	0x9
 690 01ac 31       		.byte	0x31
 691 01ad F9010000 		.4byte	0x1f9
 692 01b1 02       		.byte	0x2
 693 01b2 23       		.byte	0x23
 694 01b3 00       		.uleb128 0
 695 01b4 08       		.uleb128 0x8
 696 01b5 5F6B00   		.ascii	"_k\000"
 697 01b8 09       		.byte	0x9
 698 01b9 32       		.byte	0x32
 699 01ba 68000000 		.4byte	0x68
 700 01be 02       		.byte	0x2
 701 01bf 23       		.byte	0x23
 702 01c0 04       		.uleb128 0x4
 703 01c1 07       		.uleb128 0x7
 704 01c2 DC040000 		.4byte	.LASF29
ARM GAS  C:\Users\Diogo\AppData\Local\Temp\ccz982d4.s 			page 18


 705 01c6 09       		.byte	0x9
 706 01c7 32       		.byte	0x32
 707 01c8 68000000 		.4byte	0x68
 708 01cc 02       		.byte	0x2
 709 01cd 23       		.byte	0x23
 710 01ce 08       		.uleb128 0x8
 711 01cf 07       		.uleb128 0x7
 712 01d0 C6010000 		.4byte	.LASF30
 713 01d4 09       		.byte	0x9
 714 01d5 32       		.byte	0x32
 715 01d6 68000000 		.4byte	0x68
 716 01da 02       		.byte	0x2
 717 01db 23       		.byte	0x23
 718 01dc 0C       		.uleb128 0xc
 719 01dd 07       		.uleb128 0x7
 720 01de EC050000 		.4byte	.LASF31
 721 01e2 09       		.byte	0x9
 722 01e3 32       		.byte	0x32
 723 01e4 68000000 		.4byte	0x68
 724 01e8 02       		.byte	0x2
 725 01e9 23       		.byte	0x23
 726 01ea 10       		.uleb128 0x10
 727 01eb 08       		.uleb128 0x8
 728 01ec 5F7800   		.ascii	"_x\000"
 729 01ef 09       		.byte	0x9
 730 01f0 33       		.byte	0x33
 731 01f1 FF010000 		.4byte	0x1ff
 732 01f5 02       		.byte	0x2
 733 01f6 23       		.byte	0x23
 734 01f7 14       		.uleb128 0x14
 735 01f8 00       		.byte	0
 736 01f9 09       		.uleb128 0x9
 737 01fa 04       		.byte	0x4
 738 01fb 9A010000 		.4byte	0x19a
 739 01ff 10       		.uleb128 0x10
 740 0200 8F010000 		.4byte	0x18f
 741 0204 0F020000 		.4byte	0x20f
 742 0208 11       		.uleb128 0x11
 743 0209 6F000000 		.4byte	0x6f
 744 020d 00       		.byte	0
 745 020e 00       		.byte	0
 746 020f 06       		.uleb128 0x6
 747 0210 0C020000 		.4byte	.LASF32
 748 0214 24       		.byte	0x24
 749 0215 09       		.byte	0x9
 750 0216 37       		.byte	0x37
 751 0217 9A020000 		.4byte	0x29a
 752 021b 07       		.uleb128 0x7
 753 021c A0000000 		.4byte	.LASF33
 754 0220 09       		.byte	0x9
 755 0221 39       		.byte	0x39
 756 0222 68000000 		.4byte	0x68
 757 0226 02       		.byte	0x2
 758 0227 23       		.byte	0x23
 759 0228 00       		.uleb128 0
 760 0229 07       		.uleb128 0x7
 761 022a 2F050000 		.4byte	.LASF34
ARM GAS  C:\Users\Diogo\AppData\Local\Temp\ccz982d4.s 			page 19


 762 022e 09       		.byte	0x9
 763 022f 3A       		.byte	0x3a
 764 0230 68000000 		.4byte	0x68
 765 0234 02       		.byte	0x2
 766 0235 23       		.byte	0x23
 767 0236 04       		.uleb128 0x4
 768 0237 07       		.uleb128 0x7
 769 0238 DB000000 		.4byte	.LASF35
 770 023c 09       		.byte	0x9
 771 023d 3B       		.byte	0x3b
 772 023e 68000000 		.4byte	0x68
 773 0242 02       		.byte	0x2
 774 0243 23       		.byte	0x23
 775 0244 08       		.uleb128 0x8
 776 0245 07       		.uleb128 0x7
 777 0246 98060000 		.4byte	.LASF36
 778 024a 09       		.byte	0x9
 779 024b 3C       		.byte	0x3c
 780 024c 68000000 		.4byte	0x68
 781 0250 02       		.byte	0x2
 782 0251 23       		.byte	0x23
 783 0252 0C       		.uleb128 0xc
 784 0253 07       		.uleb128 0x7
 785 0254 C8030000 		.4byte	.LASF37
 786 0258 09       		.byte	0x9
 787 0259 3D       		.byte	0x3d
 788 025a 68000000 		.4byte	0x68
 789 025e 02       		.byte	0x2
 790 025f 23       		.byte	0x23
 791 0260 10       		.uleb128 0x10
 792 0261 07       		.uleb128 0x7
 793 0262 03030000 		.4byte	.LASF38
 794 0266 09       		.byte	0x9
 795 0267 3E       		.byte	0x3e
 796 0268 68000000 		.4byte	0x68
 797 026c 02       		.byte	0x2
 798 026d 23       		.byte	0x23
 799 026e 14       		.uleb128 0x14
 800 026f 07       		.uleb128 0x7
 801 0270 F1050000 		.4byte	.LASF39
 802 0274 09       		.byte	0x9
 803 0275 3F       		.byte	0x3f
 804 0276 68000000 		.4byte	0x68
 805 027a 02       		.byte	0x2
 806 027b 23       		.byte	0x23
 807 027c 18       		.uleb128 0x18
 808 027d 07       		.uleb128 0x7
 809 027e 55040000 		.4byte	.LASF40
 810 0282 09       		.byte	0x9
 811 0283 40       		.byte	0x40
 812 0284 68000000 		.4byte	0x68
 813 0288 02       		.byte	0x2
 814 0289 23       		.byte	0x23
 815 028a 1C       		.uleb128 0x1c
 816 028b 07       		.uleb128 0x7
 817 028c 51060000 		.4byte	.LASF41
 818 0290 09       		.byte	0x9
ARM GAS  C:\Users\Diogo\AppData\Local\Temp\ccz982d4.s 			page 20


 819 0291 41       		.byte	0x41
 820 0292 68000000 		.4byte	0x68
 821 0296 02       		.byte	0x2
 822 0297 23       		.byte	0x23
 823 0298 20       		.uleb128 0x20
 824 0299 00       		.byte	0
 825 029a 13       		.uleb128 0x13
 826 029b EA000000 		.4byte	.LASF42
 827 029f 0801     		.2byte	0x108
 828 02a1 09       		.byte	0x9
 829 02a2 4A       		.byte	0x4a
 830 02a3 E3020000 		.4byte	0x2e3
 831 02a7 07       		.uleb128 0x7
 832 02a8 A3010000 		.4byte	.LASF43
 833 02ac 09       		.byte	0x9
 834 02ad 4B       		.byte	0x4b
 835 02ae E3020000 		.4byte	0x2e3
 836 02b2 02       		.byte	0x2
 837 02b3 23       		.byte	0x23
 838 02b4 00       		.uleb128 0
 839 02b5 07       		.uleb128 0x7
 840 02b6 00000000 		.4byte	.LASF44
 841 02ba 09       		.byte	0x9
 842 02bb 4C       		.byte	0x4c
 843 02bc E3020000 		.4byte	0x2e3
 844 02c0 03       		.byte	0x3
 845 02c1 23       		.byte	0x23
 846 02c2 8001     		.uleb128 0x80
 847 02c4 07       		.uleb128 0x7
 848 02c5 72050000 		.4byte	.LASF45
 849 02c9 09       		.byte	0x9
 850 02ca 4E       		.byte	0x4e
 851 02cb 8F010000 		.4byte	0x18f
 852 02cf 03       		.byte	0x3
 853 02d0 23       		.byte	0x23
 854 02d1 8002     		.uleb128 0x100
 855 02d3 07       		.uleb128 0x7
 856 02d4 2E010000 		.4byte	.LASF46
 857 02d8 09       		.byte	0x9
 858 02d9 51       		.byte	0x51
 859 02da 8F010000 		.4byte	0x18f
 860 02de 03       		.byte	0x3
 861 02df 23       		.byte	0x23
 862 02e0 8402     		.uleb128 0x104
 863 02e2 00       		.byte	0
 864 02e3 10       		.uleb128 0x10
 865 02e4 81000000 		.4byte	0x81
 866 02e8 F3020000 		.4byte	0x2f3
 867 02ec 11       		.uleb128 0x11
 868 02ed 6F000000 		.4byte	0x6f
 869 02f1 1F       		.byte	0x1f
 870 02f2 00       		.byte	0
 871 02f3 13       		.uleb128 0x13
 872 02f4 DA030000 		.4byte	.LASF47
 873 02f8 9001     		.2byte	0x190
 874 02fa 09       		.byte	0x9
 875 02fb 5D       		.byte	0x5d
ARM GAS  C:\Users\Diogo\AppData\Local\Temp\ccz982d4.s 			page 21


 876 02fc 3A030000 		.4byte	0x33a
 877 0300 07       		.uleb128 0x7
 878 0301 47050000 		.4byte	.LASF28
 879 0305 09       		.byte	0x9
 880 0306 5E       		.byte	0x5e
 881 0307 3A030000 		.4byte	0x33a
 882 030b 02       		.byte	0x2
 883 030c 23       		.byte	0x23
 884 030d 00       		.uleb128 0
 885 030e 07       		.uleb128 0x7
 886 030f AC040000 		.4byte	.LASF48
 887 0313 09       		.byte	0x9
 888 0314 5F       		.byte	0x5f
 889 0315 68000000 		.4byte	0x68
 890 0319 02       		.byte	0x2
 891 031a 23       		.byte	0x23
 892 031b 04       		.uleb128 0x4
 893 031c 07       		.uleb128 0x7
 894 031d B6010000 		.4byte	.LASF49
 895 0321 09       		.byte	0x9
 896 0322 61       		.byte	0x61
 897 0323 40030000 		.4byte	0x340
 898 0327 02       		.byte	0x2
 899 0328 23       		.byte	0x23
 900 0329 08       		.uleb128 0x8
 901 032a 07       		.uleb128 0x7
 902 032b EA000000 		.4byte	.LASF42
 903 032f 09       		.byte	0x9
 904 0330 62       		.byte	0x62
 905 0331 9A020000 		.4byte	0x29a
 906 0335 03       		.byte	0x3
 907 0336 23       		.byte	0x23
 908 0337 8801     		.uleb128 0x88
 909 0339 00       		.byte	0
 910 033a 09       		.uleb128 0x9
 911 033b 04       		.byte	0x4
 912 033c F3020000 		.4byte	0x2f3
 913 0340 10       		.uleb128 0x10
 914 0341 50030000 		.4byte	0x350
 915 0345 50030000 		.4byte	0x350
 916 0349 11       		.uleb128 0x11
 917 034a 6F000000 		.4byte	0x6f
 918 034e 1F       		.byte	0x1f
 919 034f 00       		.byte	0
 920 0350 09       		.uleb128 0x9
 921 0351 04       		.byte	0x4
 922 0352 56030000 		.4byte	0x356
 923 0356 14       		.uleb128 0x14
 924 0357 01       		.byte	0x1
 925 0358 06       		.uleb128 0x6
 926 0359 5F040000 		.4byte	.LASF50
 927 035d 08       		.byte	0x8
 928 035e 09       		.byte	0x9
 929 035f 75       		.byte	0x75
 930 0360 81030000 		.4byte	0x381
 931 0364 07       		.uleb128 0x7
 932 0365 D5000000 		.4byte	.LASF51
ARM GAS  C:\Users\Diogo\AppData\Local\Temp\ccz982d4.s 			page 22


 933 0369 09       		.byte	0x9
 934 036a 76       		.byte	0x76
 935 036b 81030000 		.4byte	0x381
 936 036f 02       		.byte	0x2
 937 0370 23       		.byte	0x23
 938 0371 00       		.uleb128 0
 939 0372 07       		.uleb128 0x7
 940 0373 13000000 		.4byte	.LASF52
 941 0377 09       		.byte	0x9
 942 0378 77       		.byte	0x77
 943 0379 68000000 		.4byte	0x68
 944 037d 02       		.byte	0x2
 945 037e 23       		.byte	0x23
 946 037f 04       		.uleb128 0x4
 947 0380 00       		.byte	0
 948 0381 09       		.uleb128 0x9
 949 0382 04       		.byte	0x4
 950 0383 2C000000 		.4byte	0x2c
 951 0387 06       		.uleb128 0x6
 952 0388 7E040000 		.4byte	.LASF53
 953 038c 68       		.byte	0x68
 954 038d 09       		.byte	0x9
 955 038e B5       		.byte	0xb5
 956 038f E1040000 		.4byte	0x4e1
 957 0393 08       		.uleb128 0x8
 958 0394 5F7000   		.ascii	"_p\000"
 959 0397 09       		.byte	0x9
 960 0398 B6       		.byte	0xb6
 961 0399 81030000 		.4byte	0x381
 962 039d 02       		.byte	0x2
 963 039e 23       		.byte	0x23
 964 039f 00       		.uleb128 0
 965 03a0 08       		.uleb128 0x8
 966 03a1 5F7200   		.ascii	"_r\000"
 967 03a4 09       		.byte	0x9
 968 03a5 B7       		.byte	0xb7
 969 03a6 68000000 		.4byte	0x68
 970 03aa 02       		.byte	0x2
 971 03ab 23       		.byte	0x23
 972 03ac 04       		.uleb128 0x4
 973 03ad 08       		.uleb128 0x8
 974 03ae 5F7700   		.ascii	"_w\000"
 975 03b1 09       		.byte	0x9
 976 03b2 B8       		.byte	0xb8
 977 03b3 68000000 		.4byte	0x68
 978 03b7 02       		.byte	0x2
 979 03b8 23       		.byte	0x23
 980 03b9 08       		.uleb128 0x8
 981 03ba 07       		.uleb128 0x7
 982 03bb 11060000 		.4byte	.LASF54
 983 03bf 09       		.byte	0x9
 984 03c0 B9       		.byte	0xb9
 985 03c1 33000000 		.4byte	0x33
 986 03c5 02       		.byte	0x2
 987 03c6 23       		.byte	0x23
 988 03c7 0C       		.uleb128 0xc
 989 03c8 07       		.uleb128 0x7
ARM GAS  C:\Users\Diogo\AppData\Local\Temp\ccz982d4.s 			page 23


 990 03c9 47020000 		.4byte	.LASF55
 991 03cd 09       		.byte	0x9
 992 03ce BA       		.byte	0xba
 993 03cf 33000000 		.4byte	0x33
 994 03d3 02       		.byte	0x2
 995 03d4 23       		.byte	0x23
 996 03d5 0E       		.uleb128 0xe
 997 03d6 08       		.uleb128 0x8
 998 03d7 5F626600 		.ascii	"_bf\000"
 999 03db 09       		.byte	0x9
 1000 03dc BB       		.byte	0xbb
 1001 03dd 58030000 		.4byte	0x358
 1002 03e1 02       		.byte	0x2
 1003 03e2 23       		.byte	0x23
 1004 03e3 10       		.uleb128 0x10
 1005 03e4 07       		.uleb128 0x7
 1006 03e5 73000000 		.4byte	.LASF56
 1007 03e9 09       		.byte	0x9
 1008 03ea BC       		.byte	0xbc
 1009 03eb 68000000 		.4byte	0x68
 1010 03ef 02       		.byte	0x2
 1011 03f0 23       		.byte	0x23
 1012 03f1 18       		.uleb128 0x18
 1013 03f2 07       		.uleb128 0x7
 1014 03f3 F8000000 		.4byte	.LASF57
 1015 03f7 09       		.byte	0x9
 1016 03f8 C3       		.byte	0xc3
 1017 03f9 81000000 		.4byte	0x81
 1018 03fd 02       		.byte	0x2
 1019 03fe 23       		.byte	0x23
 1020 03ff 1C       		.uleb128 0x1c
 1021 0400 07       		.uleb128 0x7
 1022 0401 F4010000 		.4byte	.LASF58
 1023 0405 09       		.byte	0x9
 1024 0406 C5       		.byte	0xc5
 1025 0407 7B060000 		.4byte	0x67b
 1026 040b 02       		.byte	0x2
 1027 040c 23       		.byte	0x23
 1028 040d 20       		.uleb128 0x20
 1029 040e 07       		.uleb128 0x7
 1030 040f FC020000 		.4byte	.LASF59
 1031 0413 09       		.byte	0x9
 1032 0414 C7       		.byte	0xc7
 1033 0415 A6060000 		.4byte	0x6a6
 1034 0419 02       		.byte	0x2
 1035 041a 23       		.byte	0x23
 1036 041b 24       		.uleb128 0x24
 1037 041c 07       		.uleb128 0x7
 1038 041d 09050000 		.4byte	.LASF60
 1039 0421 09       		.byte	0x9
 1040 0422 CA       		.byte	0xca
 1041 0423 CB060000 		.4byte	0x6cb
 1042 0427 02       		.byte	0x2
 1043 0428 23       		.byte	0x23
 1044 0429 28       		.uleb128 0x28
 1045 042a 07       		.uleb128 0x7
 1046 042b 6B060000 		.4byte	.LASF61
ARM GAS  C:\Users\Diogo\AppData\Local\Temp\ccz982d4.s 			page 24


 1047 042f 09       		.byte	0x9
 1048 0430 CB       		.byte	0xcb
 1049 0431 E6060000 		.4byte	0x6e6
 1050 0435 02       		.byte	0x2
 1051 0436 23       		.byte	0x23
 1052 0437 2C       		.uleb128 0x2c
 1053 0438 08       		.uleb128 0x8
 1054 0439 5F756200 		.ascii	"_ub\000"
 1055 043d 09       		.byte	0x9
 1056 043e CE       		.byte	0xce
 1057 043f 58030000 		.4byte	0x358
 1058 0443 02       		.byte	0x2
 1059 0444 23       		.byte	0x23
 1060 0445 30       		.uleb128 0x30
 1061 0446 08       		.uleb128 0x8
 1062 0447 5F757000 		.ascii	"_up\000"
 1063 044b 09       		.byte	0x9
 1064 044c CF       		.byte	0xcf
 1065 044d 81030000 		.4byte	0x381
 1066 0451 02       		.byte	0x2
 1067 0452 23       		.byte	0x23
 1068 0453 38       		.uleb128 0x38
 1069 0454 08       		.uleb128 0x8
 1070 0455 5F757200 		.ascii	"_ur\000"
 1071 0459 09       		.byte	0x9
 1072 045a D0       		.byte	0xd0
 1073 045b 68000000 		.4byte	0x68
 1074 045f 02       		.byte	0x2
 1075 0460 23       		.byte	0x23
 1076 0461 3C       		.uleb128 0x3c
 1077 0462 07       		.uleb128 0x7
 1078 0463 CF000000 		.4byte	.LASF62
 1079 0467 09       		.byte	0x9
 1080 0468 D3       		.byte	0xd3
 1081 0469 EC060000 		.4byte	0x6ec
 1082 046d 02       		.byte	0x2
 1083 046e 23       		.byte	0x23
 1084 046f 40       		.uleb128 0x40
 1085 0470 07       		.uleb128 0x7
 1086 0471 43060000 		.4byte	.LASF63
 1087 0475 09       		.byte	0x9
 1088 0476 D4       		.byte	0xd4
 1089 0477 FC060000 		.4byte	0x6fc
 1090 047b 02       		.byte	0x2
 1091 047c 23       		.byte	0x23
 1092 047d 43       		.uleb128 0x43
 1093 047e 08       		.uleb128 0x8
 1094 047f 5F6C6200 		.ascii	"_lb\000"
 1095 0483 09       		.byte	0x9
 1096 0484 D7       		.byte	0xd7
 1097 0485 58030000 		.4byte	0x358
 1098 0489 02       		.byte	0x2
 1099 048a 23       		.byte	0x23
 1100 048b 44       		.uleb128 0x44
 1101 048c 07       		.uleb128 0x7
 1102 048d 5A010000 		.4byte	.LASF64
 1103 0491 09       		.byte	0x9
ARM GAS  C:\Users\Diogo\AppData\Local\Temp\ccz982d4.s 			page 25


 1104 0492 DA       		.byte	0xda
 1105 0493 68000000 		.4byte	0x68
 1106 0497 02       		.byte	0x2
 1107 0498 23       		.byte	0x23
 1108 0499 4C       		.uleb128 0x4c
 1109 049a 07       		.uleb128 0x7
 1110 049b 6F010000 		.4byte	.LASF65
 1111 049f 09       		.byte	0x9
 1112 04a0 DB       		.byte	0xdb
 1113 04a1 03010000 		.4byte	0x103
 1114 04a5 02       		.byte	0x2
 1115 04a6 23       		.byte	0x23
 1116 04a7 50       		.uleb128 0x50
 1117 04a8 07       		.uleb128 0x7
 1118 04a9 36000000 		.4byte	.LASF66
 1119 04ad 09       		.byte	0x9
 1120 04ae DE       		.byte	0xde
 1121 04af 00050000 		.4byte	0x500
 1122 04b3 02       		.byte	0x2
 1123 04b4 23       		.byte	0x23
 1124 04b5 54       		.uleb128 0x54
 1125 04b6 07       		.uleb128 0x7
 1126 04b7 D5020000 		.4byte	.LASF67
 1127 04bb 09       		.byte	0x9
 1128 04bc E2       		.byte	0xe2
 1129 04bd 84010000 		.4byte	0x184
 1130 04c1 02       		.byte	0x2
 1131 04c2 23       		.byte	0x23
 1132 04c3 58       		.uleb128 0x58
 1133 04c4 07       		.uleb128 0x7
 1134 04c5 86040000 		.4byte	.LASF68
 1135 04c9 09       		.byte	0x9
 1136 04ca E4       		.byte	0xe4
 1137 04cb 79010000 		.4byte	0x179
 1138 04cf 02       		.byte	0x2
 1139 04d0 23       		.byte	0x23
 1140 04d1 5C       		.uleb128 0x5c
 1141 04d2 07       		.uleb128 0x7
 1142 04d3 E8020000 		.4byte	.LASF69
 1143 04d7 09       		.byte	0x9
 1144 04d8 E5       		.byte	0xe5
 1145 04d9 68000000 		.4byte	0x68
 1146 04dd 02       		.byte	0x2
 1147 04de 23       		.byte	0x23
 1148 04df 64       		.uleb128 0x64
 1149 04e0 00       		.byte	0
 1150 04e1 15       		.uleb128 0x15
 1151 04e2 01       		.byte	0x1
 1152 04e3 68000000 		.4byte	0x68
 1153 04e7 00050000 		.4byte	0x500
 1154 04eb 16       		.uleb128 0x16
 1155 04ec 00050000 		.4byte	0x500
 1156 04f0 16       		.uleb128 0x16
 1157 04f1 81000000 		.4byte	0x81
 1158 04f5 16       		.uleb128 0x16
 1159 04f6 69060000 		.4byte	0x669
 1160 04fa 16       		.uleb128 0x16
ARM GAS  C:\Users\Diogo\AppData\Local\Temp\ccz982d4.s 			page 26


 1161 04fb 68000000 		.4byte	0x68
 1162 04ff 00       		.byte	0
 1163 0500 09       		.uleb128 0x9
 1164 0501 04       		.byte	0x4
 1165 0502 0B050000 		.4byte	0x50b
 1166 0506 17       		.uleb128 0x17
 1167 0507 00050000 		.4byte	0x500
 1168 050b 18       		.uleb128 0x18
 1169 050c E4040000 		.4byte	.LASF70
 1170 0510 2804     		.2byte	0x428
 1171 0512 09       		.byte	0x9
 1172 0513 6002     		.2byte	0x260
 1173 0515 69060000 		.4byte	0x669
 1174 0519 19       		.uleb128 0x19
 1175 051a 23050000 		.4byte	.LASF71
 1176 051e 09       		.byte	0x9
 1177 051f 6202     		.2byte	0x262
 1178 0521 68000000 		.4byte	0x68
 1179 0525 02       		.byte	0x2
 1180 0526 23       		.byte	0x23
 1181 0527 00       		.uleb128 0
 1182 0528 19       		.uleb128 0x19
 1183 0529 36010000 		.4byte	.LASF72
 1184 052d 09       		.byte	0x9
 1185 052e 6702     		.2byte	0x267
 1186 0530 59070000 		.4byte	0x759
 1187 0534 02       		.byte	0x2
 1188 0535 23       		.byte	0x23
 1189 0536 04       		.uleb128 0x4
 1190 0537 19       		.uleb128 0x19
 1191 0538 25020000 		.4byte	.LASF73
 1192 053c 09       		.byte	0x9
 1193 053d 6702     		.2byte	0x267
 1194 053f 59070000 		.4byte	0x759
 1195 0543 02       		.byte	0x2
 1196 0544 23       		.byte	0x23
 1197 0545 08       		.uleb128 0x8
 1198 0546 19       		.uleb128 0x19
 1199 0547 D5010000 		.4byte	.LASF74
 1200 054b 09       		.byte	0x9
 1201 054c 6702     		.2byte	0x267
 1202 054e 59070000 		.4byte	0x759
 1203 0552 02       		.byte	0x2
 1204 0553 23       		.byte	0x23
 1205 0554 0C       		.uleb128 0xc
 1206 0555 19       		.uleb128 0x19
 1207 0556 A7040000 		.4byte	.LASF75
 1208 055a 09       		.byte	0x9
 1209 055b 6902     		.2byte	0x269
 1210 055d 68000000 		.4byte	0x68
 1211 0561 02       		.byte	0x2
 1212 0562 23       		.byte	0x23
 1213 0563 10       		.uleb128 0x10
 1214 0564 19       		.uleb128 0x19
 1215 0565 21000000 		.4byte	.LASF76
 1216 0569 09       		.byte	0x9
 1217 056a 6A02     		.2byte	0x26a
ARM GAS  C:\Users\Diogo\AppData\Local\Temp\ccz982d4.s 			page 27


 1218 056c 74090000 		.4byte	0x974
 1219 0570 02       		.byte	0x2
 1220 0571 23       		.byte	0x23
 1221 0572 14       		.uleb128 0x14
 1222 0573 19       		.uleb128 0x19
 1223 0574 C3040000 		.4byte	.LASF77
 1224 0578 09       		.byte	0x9
 1225 0579 6D02     		.2byte	0x26d
 1226 057b 68000000 		.4byte	0x68
 1227 057f 02       		.byte	0x2
 1228 0580 23       		.byte	0x23
 1229 0581 30       		.uleb128 0x30
 1230 0582 19       		.uleb128 0x19
 1231 0583 B1040000 		.4byte	.LASF78
 1232 0587 09       		.byte	0x9
 1233 0588 6E02     		.2byte	0x26e
 1234 058a 8A090000 		.4byte	0x98a
 1235 058e 02       		.byte	0x2
 1236 058f 23       		.byte	0x23
 1237 0590 34       		.uleb128 0x34
 1238 0591 19       		.uleb128 0x19
 1239 0592 EC030000 		.4byte	.LASF79
 1240 0596 09       		.byte	0x9
 1241 0597 7002     		.2byte	0x270
 1242 0599 68000000 		.4byte	0x68
 1243 059d 02       		.byte	0x2
 1244 059e 23       		.byte	0x23
 1245 059f 38       		.uleb128 0x38
 1246 05a0 19       		.uleb128 0x19
 1247 05a1 B9040000 		.4byte	.LASF80
 1248 05a5 09       		.byte	0x9
 1249 05a6 7202     		.2byte	0x272
 1250 05a8 9C090000 		.4byte	0x99c
 1251 05ac 02       		.byte	0x2
 1252 05ad 23       		.byte	0x23
 1253 05ae 3C       		.uleb128 0x3c
 1254 05af 19       		.uleb128 0x19
 1255 05b0 AB020000 		.4byte	.LASF81
 1256 05b4 09       		.byte	0x9
 1257 05b5 7502     		.2byte	0x275
 1258 05b7 F9010000 		.4byte	0x1f9
 1259 05bb 02       		.byte	0x2
 1260 05bc 23       		.byte	0x23
 1261 05bd 40       		.uleb128 0x40
 1262 05be 19       		.uleb128 0x19
 1263 05bf FA010000 		.4byte	.LASF82
 1264 05c3 09       		.byte	0x9
 1265 05c4 7602     		.2byte	0x276
 1266 05c6 68000000 		.4byte	0x68
 1267 05ca 02       		.byte	0x2
 1268 05cb 23       		.byte	0x23
 1269 05cc 44       		.uleb128 0x44
 1270 05cd 19       		.uleb128 0x19
 1271 05ce 8E060000 		.4byte	.LASF83
 1272 05d2 09       		.byte	0x9
 1273 05d3 7702     		.2byte	0x277
 1274 05d5 F9010000 		.4byte	0x1f9
ARM GAS  C:\Users\Diogo\AppData\Local\Temp\ccz982d4.s 			page 28


 1275 05d9 02       		.byte	0x2
 1276 05da 23       		.byte	0x23
 1277 05db 48       		.uleb128 0x48
 1278 05dc 19       		.uleb128 0x19
 1279 05dd 0F040000 		.4byte	.LASF84
 1280 05e1 09       		.byte	0x9
 1281 05e2 7802     		.2byte	0x278
 1282 05e4 A2090000 		.4byte	0x9a2
 1283 05e8 02       		.byte	0x2
 1284 05e9 23       		.byte	0x23
 1285 05ea 4C       		.uleb128 0x4c
 1286 05eb 19       		.uleb128 0x19
 1287 05ec 2D020000 		.4byte	.LASF85
 1288 05f0 09       		.byte	0x9
 1289 05f1 7B02     		.2byte	0x27b
 1290 05f3 68000000 		.4byte	0x68
 1291 05f7 02       		.byte	0x2
 1292 05f8 23       		.byte	0x23
 1293 05f9 50       		.uleb128 0x50
 1294 05fa 19       		.uleb128 0x19
 1295 05fb 27040000 		.4byte	.LASF86
 1296 05ff 09       		.byte	0x9
 1297 0600 7C02     		.2byte	0x27c
 1298 0602 69060000 		.4byte	0x669
 1299 0606 02       		.byte	0x2
 1300 0607 23       		.byte	0x23
 1301 0608 54       		.uleb128 0x54
 1302 0609 19       		.uleb128 0x19
 1303 060a 3D040000 		.4byte	.LASF87
 1304 060e 09       		.byte	0x9
 1305 060f 9F02     		.2byte	0x29f
 1306 0611 52090000 		.4byte	0x952
 1307 0615 02       		.byte	0x2
 1308 0616 23       		.byte	0x23
 1309 0617 58       		.uleb128 0x58
 1310 0618 19       		.uleb128 0x19
 1311 0619 DA030000 		.4byte	.LASF47
 1312 061d 09       		.byte	0x9
 1313 061e A302     		.2byte	0x2a3
 1314 0620 3A030000 		.4byte	0x33a
 1315 0624 03       		.byte	0x3
 1316 0625 23       		.byte	0x23
 1317 0626 C802     		.uleb128 0x148
 1318 0628 19       		.uleb128 0x19
 1319 0629 89020000 		.4byte	.LASF88
 1320 062d 09       		.byte	0x9
 1321 062e A402     		.2byte	0x2a4
 1322 0630 F3020000 		.4byte	0x2f3
 1323 0634 03       		.byte	0x3
 1324 0635 23       		.byte	0x23
 1325 0636 CC02     		.uleb128 0x14c
 1326 0638 19       		.uleb128 0x19
 1327 0639 2B060000 		.4byte	.LASF89
 1328 063d 09       		.byte	0x9
 1329 063e A802     		.2byte	0x2a8
 1330 0640 B4090000 		.4byte	0x9b4
 1331 0644 03       		.byte	0x3
ARM GAS  C:\Users\Diogo\AppData\Local\Temp\ccz982d4.s 			page 29


 1332 0645 23       		.byte	0x23
 1333 0646 DC05     		.uleb128 0x2dc
 1334 0648 19       		.uleb128 0x19
 1335 0649 00010000 		.4byte	.LASF90
 1336 064d 09       		.byte	0x9
 1337 064e AD02     		.2byte	0x2ad
 1338 0650 18070000 		.4byte	0x718
 1339 0654 03       		.byte	0x3
 1340 0655 23       		.byte	0x23
 1341 0656 E005     		.uleb128 0x2e0
 1342 0658 19       		.uleb128 0x19
 1343 0659 E5000000 		.4byte	.LASF91
 1344 065d 09       		.byte	0x9
 1345 065e AF02     		.2byte	0x2af
 1346 0660 C0090000 		.4byte	0x9c0
 1347 0664 03       		.byte	0x3
 1348 0665 23       		.byte	0x23
 1349 0666 EC05     		.uleb128 0x2ec
 1350 0668 00       		.byte	0
 1351 0669 09       		.uleb128 0x9
 1352 066a 04       		.byte	0x4
 1353 066b 6F060000 		.4byte	0x66f
 1354 066f 02       		.uleb128 0x2
 1355 0670 01       		.byte	0x1
 1356 0671 08       		.byte	0x8
 1357 0672 2A050000 		.4byte	.LASF92
 1358 0676 17       		.uleb128 0x17
 1359 0677 6F060000 		.4byte	0x66f
 1360 067b 09       		.uleb128 0x9
 1361 067c 04       		.byte	0x4
 1362 067d E1040000 		.4byte	0x4e1
 1363 0681 15       		.uleb128 0x15
 1364 0682 01       		.byte	0x1
 1365 0683 68000000 		.4byte	0x68
 1366 0687 A0060000 		.4byte	0x6a0
 1367 068b 16       		.uleb128 0x16
 1368 068c 00050000 		.4byte	0x500
 1369 0690 16       		.uleb128 0x16
 1370 0691 81000000 		.4byte	0x81
 1371 0695 16       		.uleb128 0x16
 1372 0696 A0060000 		.4byte	0x6a0
 1373 069a 16       		.uleb128 0x16
 1374 069b 68000000 		.4byte	0x68
 1375 069f 00       		.byte	0
 1376 06a0 09       		.uleb128 0x9
 1377 06a1 04       		.byte	0x4
 1378 06a2 76060000 		.4byte	0x676
 1379 06a6 09       		.uleb128 0x9
 1380 06a7 04       		.byte	0x4
 1381 06a8 81060000 		.4byte	0x681
 1382 06ac 15       		.uleb128 0x15
 1383 06ad 01       		.byte	0x1
 1384 06ae 0E010000 		.4byte	0x10e
 1385 06b2 CB060000 		.4byte	0x6cb
 1386 06b6 16       		.uleb128 0x16
 1387 06b7 00050000 		.4byte	0x500
 1388 06bb 16       		.uleb128 0x16
ARM GAS  C:\Users\Diogo\AppData\Local\Temp\ccz982d4.s 			page 30


 1389 06bc 81000000 		.4byte	0x81
 1390 06c0 16       		.uleb128 0x16
 1391 06c1 0E010000 		.4byte	0x10e
 1392 06c5 16       		.uleb128 0x16
 1393 06c6 68000000 		.4byte	0x68
 1394 06ca 00       		.byte	0
 1395 06cb 09       		.uleb128 0x9
 1396 06cc 04       		.byte	0x4
 1397 06cd AC060000 		.4byte	0x6ac
 1398 06d1 15       		.uleb128 0x15
 1399 06d2 01       		.byte	0x1
 1400 06d3 68000000 		.4byte	0x68
 1401 06d7 E6060000 		.4byte	0x6e6
 1402 06db 16       		.uleb128 0x16
 1403 06dc 00050000 		.4byte	0x500
 1404 06e0 16       		.uleb128 0x16
 1405 06e1 81000000 		.4byte	0x81
 1406 06e5 00       		.byte	0
 1407 06e6 09       		.uleb128 0x9
 1408 06e7 04       		.byte	0x4
 1409 06e8 D1060000 		.4byte	0x6d1
 1410 06ec 10       		.uleb128 0x10
 1411 06ed 2C000000 		.4byte	0x2c
 1412 06f1 FC060000 		.4byte	0x6fc
 1413 06f5 11       		.uleb128 0x11
 1414 06f6 6F000000 		.4byte	0x6f
 1415 06fa 02       		.byte	0x2
 1416 06fb 00       		.byte	0
 1417 06fc 10       		.uleb128 0x10
 1418 06fd 2C000000 		.4byte	0x2c
 1419 0701 0C070000 		.4byte	0x70c
 1420 0705 11       		.uleb128 0x11
 1421 0706 6F000000 		.4byte	0x6f
 1422 070a 00       		.byte	0
 1423 070b 00       		.byte	0
 1424 070c 0D       		.uleb128 0xd
 1425 070d 6C040000 		.4byte	.LASF93
 1426 0711 09       		.byte	0x9
 1427 0712 1F01     		.2byte	0x11f
 1428 0714 87030000 		.4byte	0x387
 1429 0718 1A       		.uleb128 0x1a
 1430 0719 FB050000 		.4byte	.LASF94
 1431 071d 0C       		.byte	0xc
 1432 071e 09       		.byte	0x9
 1433 071f 2301     		.2byte	0x123
 1434 0721 53070000 		.4byte	0x753
 1435 0725 19       		.uleb128 0x19
 1436 0726 47050000 		.4byte	.LASF28
 1437 072a 09       		.byte	0x9
 1438 072b 2501     		.2byte	0x125
 1439 072d 53070000 		.4byte	0x753
 1440 0731 02       		.byte	0x2
 1441 0732 23       		.byte	0x23
 1442 0733 00       		.uleb128 0
 1443 0734 19       		.uleb128 0x19
 1444 0735 6F020000 		.4byte	.LASF95
 1445 0739 09       		.byte	0x9
ARM GAS  C:\Users\Diogo\AppData\Local\Temp\ccz982d4.s 			page 31


 1446 073a 2601     		.2byte	0x126
 1447 073c 68000000 		.4byte	0x68
 1448 0740 02       		.byte	0x2
 1449 0741 23       		.byte	0x23
 1450 0742 04       		.uleb128 0x4
 1451 0743 19       		.uleb128 0x19
 1452 0744 66040000 		.4byte	.LASF96
 1453 0748 09       		.byte	0x9
 1454 0749 2701     		.2byte	0x127
 1455 074b 59070000 		.4byte	0x759
 1456 074f 02       		.byte	0x2
 1457 0750 23       		.byte	0x23
 1458 0751 08       		.uleb128 0x8
 1459 0752 00       		.byte	0
 1460 0753 09       		.uleb128 0x9
 1461 0754 04       		.byte	0x4
 1462 0755 18070000 		.4byte	0x718
 1463 0759 09       		.uleb128 0x9
 1464 075a 04       		.byte	0x4
 1465 075b 0C070000 		.4byte	0x70c
 1466 075f 1A       		.uleb128 0x1a
 1467 0760 19000000 		.4byte	.LASF97
 1468 0764 0E       		.byte	0xe
 1469 0765 09       		.byte	0x9
 1470 0766 3F01     		.2byte	0x13f
 1471 0768 9A070000 		.4byte	0x79a
 1472 076c 19       		.uleb128 0x19
 1473 076d EB040000 		.4byte	.LASF98
 1474 0771 09       		.byte	0x9
 1475 0772 4001     		.2byte	0x140
 1476 0774 9A070000 		.4byte	0x79a
 1477 0778 02       		.byte	0x2
 1478 0779 23       		.byte	0x23
 1479 077a 00       		.uleb128 0
 1480 077b 19       		.uleb128 0x19
 1481 077c 41050000 		.4byte	.LASF99
 1482 0780 09       		.byte	0x9
 1483 0781 4101     		.2byte	0x141
 1484 0783 9A070000 		.4byte	0x79a
 1485 0787 02       		.byte	0x2
 1486 0788 23       		.byte	0x23
 1487 0789 06       		.uleb128 0x6
 1488 078a 19       		.uleb128 0x19
 1489 078b 7B050000 		.4byte	.LASF100
 1490 078f 09       		.byte	0x9
 1491 0790 4201     		.2byte	0x142
 1492 0792 3A000000 		.4byte	0x3a
 1493 0796 02       		.byte	0x2
 1494 0797 23       		.byte	0x23
 1495 0798 0C       		.uleb128 0xc
 1496 0799 00       		.byte	0
 1497 079a 10       		.uleb128 0x10
 1498 079b 3A000000 		.4byte	0x3a
 1499 079f AA070000 		.4byte	0x7aa
 1500 07a3 11       		.uleb128 0x11
 1501 07a4 6F000000 		.4byte	0x6f
 1502 07a8 02       		.byte	0x2
ARM GAS  C:\Users\Diogo\AppData\Local\Temp\ccz982d4.s 			page 32


 1503 07a9 00       		.byte	0
 1504 07aa 1B       		.uleb128 0x1b
 1505 07ab D0       		.byte	0xd0
 1506 07ac 09       		.byte	0x9
 1507 07ad 8002     		.2byte	0x280
 1508 07af DA080000 		.4byte	0x8da
 1509 07b3 19       		.uleb128 0x19
 1510 07b4 B5050000 		.4byte	.LASF101
 1511 07b8 09       		.byte	0x9
 1512 07b9 8202     		.2byte	0x282
 1513 07bb 6F000000 		.4byte	0x6f
 1514 07bf 02       		.byte	0x2
 1515 07c0 23       		.byte	0x23
 1516 07c1 00       		.uleb128 0
 1517 07c2 19       		.uleb128 0x19
 1518 07c3 58050000 		.4byte	.LASF102
 1519 07c7 09       		.byte	0x9
 1520 07c8 8302     		.2byte	0x283
 1521 07ca 69060000 		.4byte	0x669
 1522 07ce 02       		.byte	0x2
 1523 07cf 23       		.byte	0x23
 1524 07d0 04       		.uleb128 0x4
 1525 07d1 19       		.uleb128 0x19
 1526 07d2 9E020000 		.4byte	.LASF103
 1527 07d6 09       		.byte	0x9
 1528 07d7 8402     		.2byte	0x284
 1529 07d9 DA080000 		.4byte	0x8da
 1530 07dd 02       		.byte	0x2
 1531 07de 23       		.byte	0x23
 1532 07df 08       		.uleb128 0x8
 1533 07e0 19       		.uleb128 0x19
 1534 07e1 5C060000 		.4byte	.LASF104
 1535 07e5 09       		.byte	0x9
 1536 07e6 8502     		.2byte	0x285
 1537 07e8 0F020000 		.4byte	0x20f
 1538 07ec 02       		.byte	0x2
 1539 07ed 23       		.byte	0x23
 1540 07ee 24       		.uleb128 0x24
 1541 07ef 19       		.uleb128 0x19
 1542 07f0 E5010000 		.4byte	.LASF105
 1543 07f4 09       		.byte	0x9
 1544 07f5 8602     		.2byte	0x286
 1545 07f7 68000000 		.4byte	0x68
 1546 07fb 02       		.byte	0x2
 1547 07fc 23       		.byte	0x23
 1548 07fd 48       		.uleb128 0x48
 1549 07fe 19       		.uleb128 0x19
 1550 07ff 8F040000 		.4byte	.LASF106
 1551 0803 09       		.byte	0x9
 1552 0804 8702     		.2byte	0x287
 1553 0806 61000000 		.4byte	0x61
 1554 080a 02       		.byte	0x2
 1555 080b 23       		.byte	0x23
 1556 080c 50       		.uleb128 0x50
 1557 080d 19       		.uleb128 0x19
 1558 080e 72060000 		.4byte	.LASF107
 1559 0812 09       		.byte	0x9
ARM GAS  C:\Users\Diogo\AppData\Local\Temp\ccz982d4.s 			page 33


 1560 0813 8802     		.2byte	0x288
 1561 0815 5F070000 		.4byte	0x75f
 1562 0819 02       		.byte	0x2
 1563 081a 23       		.byte	0x23
 1564 081b 58       		.uleb128 0x58
 1565 081c 19       		.uleb128 0x19
 1566 081d 9A040000 		.4byte	.LASF108
 1567 0821 09       		.byte	0x9
 1568 0822 8902     		.2byte	0x289
 1569 0824 79010000 		.4byte	0x179
 1570 0828 02       		.byte	0x2
 1571 0829 23       		.byte	0x23
 1572 082a 68       		.uleb128 0x68
 1573 082b 19       		.uleb128 0x19
 1574 082c 80060000 		.4byte	.LASF109
 1575 0830 09       		.byte	0x9
 1576 0831 8A02     		.2byte	0x28a
 1577 0833 79010000 		.4byte	0x179
 1578 0837 02       		.byte	0x2
 1579 0838 23       		.byte	0x23
 1580 0839 70       		.uleb128 0x70
 1581 083a 19       		.uleb128 0x19
 1582 083b 19040000 		.4byte	.LASF110
 1583 083f 09       		.byte	0x9
 1584 0840 8B02     		.2byte	0x28b
 1585 0842 79010000 		.4byte	0x179
 1586 0846 02       		.byte	0x2
 1587 0847 23       		.byte	0x23
 1588 0848 78       		.uleb128 0x78
 1589 0849 19       		.uleb128 0x19
 1590 084a 21060000 		.4byte	.LASF111
 1591 084e 09       		.byte	0x9
 1592 084f 8C02     		.2byte	0x28c
 1593 0851 EA080000 		.4byte	0x8ea
 1594 0855 03       		.byte	0x3
 1595 0856 23       		.byte	0x23
 1596 0857 8001     		.uleb128 0x80
 1597 0859 19       		.uleb128 0x19
 1598 085a 92020000 		.4byte	.LASF112
 1599 085e 09       		.byte	0x9
 1600 085f 8D02     		.2byte	0x28d
 1601 0861 FA080000 		.4byte	0x8fa
 1602 0865 03       		.byte	0x3
 1603 0866 23       		.byte	0x23
 1604 0867 8801     		.uleb128 0x88
 1605 0869 19       		.uleb128 0x19
 1606 086a 88050000 		.4byte	.LASF113
 1607 086e 09       		.byte	0x9
 1608 086f 8E02     		.2byte	0x28e
 1609 0871 68000000 		.4byte	0x68
 1610 0875 03       		.byte	0x3
 1611 0876 23       		.byte	0x23
 1612 0877 A001     		.uleb128 0xa0
 1613 0879 19       		.uleb128 0x19
 1614 087a 88010000 		.4byte	.LASF114
 1615 087e 09       		.byte	0x9
 1616 087f 8F02     		.2byte	0x28f
ARM GAS  C:\Users\Diogo\AppData\Local\Temp\ccz982d4.s 			page 34


 1617 0881 79010000 		.4byte	0x179
 1618 0885 03       		.byte	0x3
 1619 0886 23       		.byte	0x23
 1620 0887 A401     		.uleb128 0xa4
 1621 0889 19       		.uleb128 0x19
 1622 088a 87000000 		.4byte	.LASF115
 1623 088e 09       		.byte	0x9
 1624 088f 9002     		.2byte	0x290
 1625 0891 79010000 		.4byte	0x179
 1626 0895 03       		.byte	0x3
 1627 0896 23       		.byte	0x23
 1628 0897 AC01     		.uleb128 0xac
 1629 0899 19       		.uleb128 0x19
 1630 089a 77010000 		.4byte	.LASF116
 1631 089e 09       		.byte	0x9
 1632 089f 9102     		.2byte	0x291
 1633 08a1 79010000 		.4byte	0x179
 1634 08a5 03       		.byte	0x3
 1635 08a6 23       		.byte	0x23
 1636 08a7 B401     		.uleb128 0xb4
 1637 08a9 19       		.uleb128 0x19
 1638 08aa 3C000000 		.4byte	.LASF117
 1639 08ae 09       		.byte	0x9
 1640 08af 9202     		.2byte	0x292
 1641 08b1 79010000 		.4byte	0x179
 1642 08b5 03       		.byte	0x3
 1643 08b6 23       		.byte	0x23
 1644 08b7 BC01     		.uleb128 0xbc
 1645 08b9 19       		.uleb128 0x19
 1646 08ba 4B000000 		.4byte	.LASF118
 1647 08be 09       		.byte	0x9
 1648 08bf 9302     		.2byte	0x293
 1649 08c1 79010000 		.4byte	0x179
 1650 08c5 03       		.byte	0x3
 1651 08c6 23       		.byte	0x23
 1652 08c7 C401     		.uleb128 0xc4
 1653 08c9 19       		.uleb128 0x19
 1654 08ca 42040000 		.4byte	.LASF119
 1655 08ce 09       		.byte	0x9
 1656 08cf 9402     		.2byte	0x294
 1657 08d1 68000000 		.4byte	0x68
 1658 08d5 03       		.byte	0x3
 1659 08d6 23       		.byte	0x23
 1660 08d7 CC01     		.uleb128 0xcc
 1661 08d9 00       		.byte	0
 1662 08da 10       		.uleb128 0x10
 1663 08db 6F060000 		.4byte	0x66f
 1664 08df EA080000 		.4byte	0x8ea
 1665 08e3 11       		.uleb128 0x11
 1666 08e4 6F000000 		.4byte	0x6f
 1667 08e8 19       		.byte	0x19
 1668 08e9 00       		.byte	0
 1669 08ea 10       		.uleb128 0x10
 1670 08eb 6F060000 		.4byte	0x66f
 1671 08ef FA080000 		.4byte	0x8fa
 1672 08f3 11       		.uleb128 0x11
 1673 08f4 6F000000 		.4byte	0x6f
ARM GAS  C:\Users\Diogo\AppData\Local\Temp\ccz982d4.s 			page 35


 1674 08f8 07       		.byte	0x7
 1675 08f9 00       		.byte	0
 1676 08fa 10       		.uleb128 0x10
 1677 08fb 6F060000 		.4byte	0x66f
 1678 08ff 0A090000 		.4byte	0x90a
 1679 0903 11       		.uleb128 0x11
 1680 0904 6F000000 		.4byte	0x6f
 1681 0908 17       		.byte	0x17
 1682 0909 00       		.byte	0
 1683 090a 1B       		.uleb128 0x1b
 1684 090b F0       		.byte	0xf0
 1685 090c 09       		.byte	0x9
 1686 090d 9902     		.2byte	0x299
 1687 090f 32090000 		.4byte	0x932
 1688 0913 19       		.uleb128 0x19
 1689 0914 C1030000 		.4byte	.LASF120
 1690 0918 09       		.byte	0x9
 1691 0919 9C02     		.2byte	0x29c
 1692 091b 32090000 		.4byte	0x932
 1693 091f 02       		.byte	0x2
 1694 0920 23       		.byte	0x23
 1695 0921 00       		.uleb128 0
 1696 0922 19       		.uleb128 0x19
 1697 0923 18060000 		.4byte	.LASF121
 1698 0927 09       		.byte	0x9
 1699 0928 9D02     		.2byte	0x29d
 1700 092a 42090000 		.4byte	0x942
 1701 092e 02       		.byte	0x2
 1702 092f 23       		.byte	0x23
 1703 0930 78       		.uleb128 0x78
 1704 0931 00       		.byte	0
 1705 0932 10       		.uleb128 0x10
 1706 0933 81030000 		.4byte	0x381
 1707 0937 42090000 		.4byte	0x942
 1708 093b 11       		.uleb128 0x11
 1709 093c 6F000000 		.4byte	0x6f
 1710 0940 1D       		.byte	0x1d
 1711 0941 00       		.byte	0
 1712 0942 10       		.uleb128 0x10
 1713 0943 6F000000 		.4byte	0x6f
 1714 0947 52090000 		.4byte	0x952
 1715 094b 11       		.uleb128 0x11
 1716 094c 6F000000 		.4byte	0x6f
 1717 0950 1D       		.byte	0x1d
 1718 0951 00       		.byte	0
 1719 0952 1C       		.uleb128 0x1c
 1720 0953 F0       		.byte	0xf0
 1721 0954 09       		.byte	0x9
 1722 0955 7E02     		.2byte	0x27e
 1723 0957 74090000 		.4byte	0x974
 1724 095b 1D       		.uleb128 0x1d
 1725 095c E4040000 		.4byte	.LASF70
 1726 0960 09       		.byte	0x9
 1727 0961 9502     		.2byte	0x295
 1728 0963 AA070000 		.4byte	0x7aa
 1729 0967 1D       		.uleb128 0x1d
 1730 0968 49060000 		.4byte	.LASF122
ARM GAS  C:\Users\Diogo\AppData\Local\Temp\ccz982d4.s 			page 36


 1731 096c 09       		.byte	0x9
 1732 096d 9E02     		.2byte	0x29e
 1733 096f 0A090000 		.4byte	0x90a
 1734 0973 00       		.byte	0
 1735 0974 10       		.uleb128 0x10
 1736 0975 6F060000 		.4byte	0x66f
 1737 0979 84090000 		.4byte	0x984
 1738 097d 11       		.uleb128 0x11
 1739 097e 6F000000 		.4byte	0x6f
 1740 0982 18       		.byte	0x18
 1741 0983 00       		.byte	0
 1742 0984 0C       		.uleb128 0xc
 1743 0985 7C000000 		.4byte	.LASF124
 1744 0989 01       		.byte	0x1
 1745 098a 09       		.uleb128 0x9
 1746 098b 04       		.byte	0x4
 1747 098c 84090000 		.4byte	0x984
 1748 0990 1E       		.uleb128 0x1e
 1749 0991 01       		.byte	0x1
 1750 0992 9C090000 		.4byte	0x99c
 1751 0996 16       		.uleb128 0x16
 1752 0997 00050000 		.4byte	0x500
 1753 099b 00       		.byte	0
 1754 099c 09       		.uleb128 0x9
 1755 099d 04       		.byte	0x4
 1756 099e 90090000 		.4byte	0x990
 1757 09a2 09       		.uleb128 0x9
 1758 09a3 04       		.byte	0x4
 1759 09a4 F9010000 		.4byte	0x1f9
 1760 09a8 1E       		.uleb128 0x1e
 1761 09a9 01       		.byte	0x1
 1762 09aa B4090000 		.4byte	0x9b4
 1763 09ae 16       		.uleb128 0x16
 1764 09af 68000000 		.4byte	0x68
 1765 09b3 00       		.byte	0
 1766 09b4 09       		.uleb128 0x9
 1767 09b5 04       		.byte	0x4
 1768 09b6 BA090000 		.4byte	0x9ba
 1769 09ba 09       		.uleb128 0x9
 1770 09bb 04       		.byte	0x4
 1771 09bc A8090000 		.4byte	0x9a8
 1772 09c0 10       		.uleb128 0x10
 1773 09c1 0C070000 		.4byte	0x70c
 1774 09c5 D0090000 		.4byte	0x9d0
 1775 09c9 11       		.uleb128 0x11
 1776 09ca 6F000000 		.4byte	0x6f
 1777 09ce 02       		.byte	0x2
 1778 09cf 00       		.byte	0
 1779 09d0 1F       		.uleb128 0x1f
 1780 09d1 0F050000 		.4byte	.LASF125
 1781 09d5 09       		.byte	0x9
 1782 09d6 2E03     		.2byte	0x32e
 1783 09d8 00050000 		.4byte	0x500
 1784 09dc 01       		.byte	0x1
 1785 09dd 01       		.byte	0x1
 1786 09de 1F       		.uleb128 0x1f
 1787 09df A2050000 		.4byte	.LASF126
ARM GAS  C:\Users\Diogo\AppData\Local\Temp\ccz982d4.s 			page 37


 1788 09e3 09       		.byte	0x9
 1789 09e4 2F03     		.2byte	0x32f
 1790 09e6 06050000 		.4byte	0x506
 1791 09ea 01       		.byte	0x1
 1792 09eb 01       		.byte	0x1
 1793 09ec 20       		.uleb128 0x20
 1794 09ed E2030000 		.4byte	.LASF127
 1795 09f1 0A       		.byte	0xa
 1796 09f2 63       		.byte	0x63
 1797 09f3 69060000 		.4byte	0x669
 1798 09f7 01       		.byte	0x1
 1799 09f8 01       		.byte	0x1
 1800 09f9 21       		.uleb128 0x21
 1801 09fa B9020000 		.4byte	.LASF128
 1802 09fe 01       		.byte	0x1
 1803 09ff 0E       		.byte	0xe
 1804 0a00 76000000 		.4byte	0x76
 1805 0a04 01       		.byte	0x1
 1806 0a05 05       		.byte	0x5
 1807 0a06 03       		.byte	0x3
 1808 0a07 00000000 		.4byte	activeThread
 1809 0a0b 10       		.uleb128 0x10
 1810 0a0c 76000000 		.4byte	0x76
 1811 0a10 1B0A0000 		.4byte	0xa1b
 1812 0a14 11       		.uleb128 0x11
 1813 0a15 6F000000 		.4byte	0x6f
 1814 0a19 3F       		.byte	0x3f
 1815 0a1a 00       		.byte	0
 1816 0a1b 21       		.uleb128 0x21
 1817 0a1c 9F030000 		.4byte	.LASF129
 1818 0a20 02       		.byte	0x2
 1819 0a21 32       		.byte	0x32
 1820 0a22 0B0A0000 		.4byte	0xa0b
 1821 0a26 01       		.byte	0x1
 1822 0a27 05       		.byte	0x5
 1823 0a28 03       		.byte	0x3
 1824 0a29 00000000 		.4byte	Thread1Stack
 1825 0a2d 21       		.uleb128 0x21
 1826 0a2e 95050000 		.4byte	.LASF130
 1827 0a32 02       		.byte	0x2
 1828 0a33 33       		.byte	0x33
 1829 0a34 0B0A0000 		.4byte	0xa0b
 1830 0a38 01       		.byte	0x1
 1831 0a39 05       		.byte	0x5
 1832 0a3a 03       		.byte	0x3
 1833 0a3b 00000000 		.4byte	Thread2Stack
 1834 0a3f 10       		.uleb128 0x10
 1835 0a40 DA000000 		.4byte	0xda
 1836 0a44 4F0A0000 		.4byte	0xa4f
 1837 0a48 11       		.uleb128 0x11
 1838 0a49 6F000000 		.4byte	0x6f
 1839 0a4d 14       		.byte	0x14
 1840 0a4e 00       		.byte	0
 1841 0a4f 21       		.uleb128 0x21
 1842 0a50 65050000 		.4byte	.LASF131
 1843 0a54 02       		.byte	0x2
 1844 0a55 36       		.byte	0x36
ARM GAS  C:\Users\Diogo\AppData\Local\Temp\ccz982d4.s 			page 38


 1845 0a56 3F0A0000 		.4byte	0xa3f
 1846 0a5a 01       		.byte	0x1
 1847 0a5b 05       		.byte	0x5
 1848 0a5c 03       		.byte	0x3
 1849 0a5d 00000000 		.4byte	task
 1850 0a61 10       		.uleb128 0x10
 1851 0a62 76000000 		.4byte	0x76
 1852 0a66 770A0000 		.4byte	0xa77
 1853 0a6a 11       		.uleb128 0x11
 1854 0a6b 6F000000 		.4byte	0x6f
 1855 0a6f 13       		.byte	0x13
 1856 0a70 11       		.uleb128 0x11
 1857 0a71 6F000000 		.4byte	0x6f
 1858 0a75 3F       		.byte	0x3f
 1859 0a76 00       		.byte	0
 1860 0a77 21       		.uleb128 0x21
 1861 0a78 DB020000 		.4byte	.LASF132
 1862 0a7c 02       		.byte	0x2
 1863 0a7d 37       		.byte	0x37
 1864 0a7e 610A0000 		.4byte	0xa61
 1865 0a82 01       		.byte	0x1
 1866 0a83 05       		.byte	0x5
 1867 0a84 03       		.byte	0x3
 1868 0a85 00000000 		.4byte	ThreadStacks
 1869 0a89 21       		.uleb128 0x21
 1870 0a8a 60020000 		.4byte	.LASF133
 1871 0a8e 02       		.byte	0x2
 1872 0a8f 4A       		.byte	0x4a
 1873 0a90 76000000 		.4byte	0x76
 1874 0a94 01       		.byte	0x1
 1875 0a95 05       		.byte	0x5
 1876 0a96 03       		.byte	0x3
 1877 0a97 00000000 		.4byte	g_ui32SysClock
 1878 0a9b 22       		.uleb128 0x22
 1879 0a9c 01       		.byte	0x1
 1880 0a9d 93060000 		.4byte	.LASF134
 1881 0aa1 02       		.byte	0x2
 1882 0aa2 90       		.byte	0x90
 1883 0aa3 01       		.byte	0x1
 1884 0aa4 68000000 		.4byte	0x68
 1885 0aa8 00010000 		.4byte	.LFB8
 1886 0aac D0010000 		.4byte	.LFE8
 1887 0ab0 00000000 		.4byte	.LLST9
 1888 0ab4 01       		.byte	0x1
 1889 0ab5 270C0000 		.4byte	0xc27
 1890 0ab9 23       		.uleb128 0x23
 1891 0aba 10010000 		.4byte	.LVL24
 1892 0abe D60A0000 		.4byte	0xad6
 1893 0ac2 24       		.uleb128 0x24
 1894 0ac3 01       		.byte	0x1
 1895 0ac4 50       		.byte	0x50
 1896 0ac5 06       		.byte	0x6
 1897 0ac6 11       		.byte	0x11
 1898 0ac7 808D8088 		.sleb128 -251656576
 1898      7F
 1899 0acc 24       		.uleb128 0x24
 1900 0acd 01       		.byte	0x1
ARM GAS  C:\Users\Diogo\AppData\Local\Temp\ccz982d4.s 			page 39


 1901 0ace 51       		.byte	0x51
 1902 0acf 05       		.byte	0x5
 1903 0ad0 0C       		.byte	0xc
 1904 0ad1 000E2707 		.4byte	0x7270e00
 1905 0ad5 00       		.byte	0
 1906 0ad6 25       		.uleb128 0x25
 1907 0ad7 1C010000 		.4byte	.LVL25
 1908 0adb 4C0E0000 		.4byte	0xe4c
 1909 0adf EE0A0000 		.4byte	0xaee
 1910 0ae3 24       		.uleb128 0x24
 1911 0ae4 01       		.byte	0x1
 1912 0ae5 50       		.byte	0x50
 1913 0ae6 01       		.byte	0x1
 1914 0ae7 30       		.byte	0x30
 1915 0ae8 24       		.uleb128 0x24
 1916 0ae9 01       		.byte	0x1
 1917 0aea 51       		.byte	0x51
 1918 0aeb 01       		.byte	0x1
 1919 0aec 30       		.byte	0x30
 1920 0aed 00       		.byte	0
 1921 0aee 23       		.uleb128 0x23
 1922 0aef 2A010000 		.4byte	.LVL26
 1923 0af3 030B0000 		.4byte	0xb03
 1924 0af7 24       		.uleb128 0x24
 1925 0af8 01       		.byte	0x1
 1926 0af9 50       		.byte	0x50
 1927 0afa 02       		.byte	0x2
 1928 0afb 75       		.byte	0x75
 1929 0afc 00       		.sleb128 0
 1930 0afd 24       		.uleb128 0x24
 1931 0afe 01       		.byte	0x1
 1932 0aff 51       		.byte	0x51
 1933 0b00 01       		.byte	0x1
 1934 0b01 32       		.byte	0x32
 1935 0b02 00       		.byte	0
 1936 0b03 23       		.uleb128 0x23
 1937 0b04 34010000 		.4byte	.LVL27
 1938 0b08 180B0000 		.4byte	0xb18
 1939 0b0c 24       		.uleb128 0x24
 1940 0b0d 01       		.byte	0x1
 1941 0b0e 50       		.byte	0x50
 1942 0b0f 02       		.byte	0x2
 1943 0b10 75       		.byte	0x75
 1944 0b11 00       		.sleb128 0
 1945 0b12 24       		.uleb128 0x24
 1946 0b13 01       		.byte	0x1
 1947 0b14 51       		.byte	0x51
 1948 0b15 01       		.byte	0x1
 1949 0b16 34       		.byte	0x34
 1950 0b17 00       		.byte	0
 1951 0b18 26       		.uleb128 0x26
 1952 0b19 38010000 		.4byte	.LVL28
 1953 0b1d D90C0000 		.4byte	0xcd9
 1954 0b21 25       		.uleb128 0x25
 1955 0b22 40010000 		.4byte	.LVL29
 1956 0b26 590E0000 		.4byte	0xe59
 1957 0b2a 350B0000 		.4byte	0xb35
ARM GAS  C:\Users\Diogo\AppData\Local\Temp\ccz982d4.s 			page 40


 1958 0b2e 24       		.uleb128 0x24
 1959 0b2f 01       		.byte	0x1
 1960 0b30 50       		.byte	0x50
 1961 0b31 02       		.byte	0x2
 1962 0b32 75       		.byte	0x75
 1963 0b33 00       		.sleb128 0
 1964 0b34 00       		.byte	0
 1965 0b35 25       		.uleb128 0x25
 1966 0b36 46010000 		.4byte	.LVL30
 1967 0b3a 590E0000 		.4byte	0xe59
 1968 0b3e 490B0000 		.4byte	0xb49
 1969 0b42 24       		.uleb128 0x24
 1970 0b43 01       		.byte	0x1
 1971 0b44 50       		.byte	0x50
 1972 0b45 02       		.byte	0x2
 1973 0b46 75       		.byte	0x75
 1974 0b47 00       		.sleb128 0
 1975 0b48 00       		.byte	0
 1976 0b49 25       		.uleb128 0x25
 1977 0b4a 4C010000 		.4byte	.LVL31
 1978 0b4e 590E0000 		.4byte	0xe59
 1979 0b52 5D0B0000 		.4byte	0xb5d
 1980 0b56 24       		.uleb128 0x24
 1981 0b57 01       		.byte	0x1
 1982 0b58 50       		.byte	0x50
 1983 0b59 02       		.byte	0x2
 1984 0b5a 75       		.byte	0x75
 1985 0b5b 00       		.sleb128 0
 1986 0b5c 00       		.byte	0
 1987 0b5d 25       		.uleb128 0x25
 1988 0b5e 52010000 		.4byte	.LVL32
 1989 0b62 590E0000 		.4byte	0xe59
 1990 0b66 740B0000 		.4byte	0xb74
 1991 0b6a 24       		.uleb128 0x24
 1992 0b6b 01       		.byte	0x1
 1993 0b6c 50       		.byte	0x50
 1994 0b6d 05       		.byte	0x5
 1995 0b6e 03       		.byte	0x3
 1996 0b6f 70000000 		.4byte	.LC6
 1997 0b73 00       		.byte	0
 1998 0b74 25       		.uleb128 0x25
 1999 0b75 58010000 		.4byte	.LVL33
 2000 0b79 590E0000 		.4byte	0xe59
 2001 0b7d 8B0B0000 		.4byte	0xb8b
 2002 0b81 24       		.uleb128 0x24
 2003 0b82 01       		.byte	0x1
 2004 0b83 50       		.byte	0x50
 2005 0b84 05       		.byte	0x5
 2006 0b85 03       		.byte	0x3
 2007 0b86 8C000000 		.4byte	.LC7
 2008 0b8a 00       		.byte	0
 2009 0b8b 25       		.uleb128 0x25
 2010 0b8c 60010000 		.4byte	.LVL34
 2011 0b90 660E0000 		.4byte	0xe66
 2012 0b94 A30B0000 		.4byte	0xba3
 2013 0b98 24       		.uleb128 0x24
 2014 0b99 01       		.byte	0x1
ARM GAS  C:\Users\Diogo\AppData\Local\Temp\ccz982d4.s 			page 41


 2015 0b9a 50       		.byte	0x50
 2016 0b9b 01       		.byte	0x1
 2017 0b9c 31       		.byte	0x31
 2018 0b9d 24       		.uleb128 0x24
 2019 0b9e 01       		.byte	0x1
 2020 0b9f 51       		.byte	0x51
 2021 0ba0 01       		.byte	0x1
 2022 0ba1 31       		.byte	0x31
 2023 0ba2 00       		.byte	0
 2024 0ba3 25       		.uleb128 0x25
 2025 0ba4 68010000 		.4byte	.LVL35
 2026 0ba8 660E0000 		.4byte	0xe66
 2027 0bac BB0B0000 		.4byte	0xbbb
 2028 0bb0 24       		.uleb128 0x24
 2029 0bb1 01       		.byte	0x1
 2030 0bb2 50       		.byte	0x50
 2031 0bb3 01       		.byte	0x1
 2032 0bb4 32       		.byte	0x32
 2033 0bb5 24       		.uleb128 0x24
 2034 0bb6 01       		.byte	0x1
 2035 0bb7 51       		.byte	0x51
 2036 0bb8 01       		.byte	0x1
 2037 0bb9 30       		.byte	0x30
 2038 0bba 00       		.byte	0
 2039 0bbb 26       		.uleb128 0x26
 2040 0bbc 76010000 		.4byte	.LVL36
 2041 0bc0 730E0000 		.4byte	0xe73
 2042 0bc4 25       		.uleb128 0x25
 2043 0bc5 7C010000 		.4byte	.LVL37
 2044 0bc9 590E0000 		.4byte	0xe59
 2045 0bcd DB0B0000 		.4byte	0xbdb
 2046 0bd1 24       		.uleb128 0x24
 2047 0bd2 01       		.byte	0x1
 2048 0bd3 50       		.byte	0x50
 2049 0bd4 05       		.byte	0x5
 2050 0bd5 03       		.byte	0x3
 2051 0bd6 9C000000 		.4byte	.LC8
 2052 0bda 00       		.byte	0
 2053 0bdb 25       		.uleb128 0x25
 2054 0bdc 84010000 		.4byte	.LVL38
 2055 0be0 660E0000 		.4byte	0xe66
 2056 0be4 F30B0000 		.4byte	0xbf3
 2057 0be8 24       		.uleb128 0x24
 2058 0be9 01       		.byte	0x1
 2059 0bea 50       		.byte	0x50
 2060 0beb 01       		.byte	0x1
 2061 0bec 31       		.byte	0x31
 2062 0bed 24       		.uleb128 0x24
 2063 0bee 01       		.byte	0x1
 2064 0bef 51       		.byte	0x51
 2065 0bf0 01       		.byte	0x1
 2066 0bf1 30       		.byte	0x30
 2067 0bf2 00       		.byte	0
 2068 0bf3 25       		.uleb128 0x25
 2069 0bf4 8C010000 		.4byte	.LVL39
 2070 0bf8 660E0000 		.4byte	0xe66
 2071 0bfc 0B0C0000 		.4byte	0xc0b
ARM GAS  C:\Users\Diogo\AppData\Local\Temp\ccz982d4.s 			page 42


 2072 0c00 24       		.uleb128 0x24
 2073 0c01 01       		.byte	0x1
 2074 0c02 50       		.byte	0x50
 2075 0c03 01       		.byte	0x1
 2076 0c04 32       		.byte	0x32
 2077 0c05 24       		.uleb128 0x24
 2078 0c06 01       		.byte	0x1
 2079 0c07 51       		.byte	0x51
 2080 0c08 01       		.byte	0x1
 2081 0c09 31       		.byte	0x31
 2082 0c0a 00       		.byte	0
 2083 0c0b 26       		.uleb128 0x26
 2084 0c0c 98010000 		.4byte	.LVL40
 2085 0c10 730E0000 		.4byte	0xe73
 2086 0c14 26       		.uleb128 0x26
 2087 0c15 9C010000 		.4byte	.LVL41
 2088 0c19 270C0000 		.4byte	0xc27
 2089 0c1d 26       		.uleb128 0x26
 2090 0c1e A0010000 		.4byte	.LVL42
 2091 0c22 810E0000 		.4byte	0xe81
 2092 0c26 00       		.byte	0
 2093 0c27 27       		.uleb128 0x27
 2094 0c28 01       		.byte	0x1
 2095 0c29 F0020000 		.4byte	.LASF136
 2096 0c2d 02       		.byte	0x2
 2097 0c2e 7E       		.byte	0x7e
 2098 0c2f 01       		.byte	0x1
 2099 0c30 B8000000 		.4byte	.LFB7
 2100 0c34 00010000 		.4byte	.LFE7
 2101 0c38 20000000 		.4byte	.LLST7
 2102 0c3c 01       		.byte	0x1
 2103 0c3d 9C0C0000 		.4byte	0xc9c
 2104 0c41 28       		.uleb128 0x28
 2105 0c42 6900     		.ascii	"i\000"
 2106 0c44 02       		.byte	0x2
 2107 0c45 80       		.byte	0x80
 2108 0c46 68000000 		.4byte	0x68
 2109 0c4a 40000000 		.4byte	.LLST8
 2110 0c4e 25       		.uleb128 0x25
 2111 0c4f C2000000 		.4byte	.LVL18
 2112 0c53 8E0E0000 		.4byte	0xe8e
 2113 0c57 650C0000 		.4byte	0xc65
 2114 0c5b 24       		.uleb128 0x24
 2115 0c5c 01       		.byte	0x1
 2116 0c5d 50       		.byte	0x50
 2117 0c5e 05       		.byte	0x5
 2118 0c5f 03       		.byte	0x3
 2119 0c60 38000000 		.4byte	.LC3
 2120 0c64 00       		.byte	0
 2121 0c65 25       		.uleb128 0x25
 2122 0c66 D6000000 		.4byte	.LVL20
 2123 0c6a 590E0000 		.4byte	0xe59
 2124 0c6e 7F0C0000 		.4byte	0xc7f
 2125 0c72 24       		.uleb128 0x24
 2126 0c73 01       		.byte	0x1
 2127 0c74 50       		.byte	0x50
 2128 0c75 02       		.byte	0x2
ARM GAS  C:\Users\Diogo\AppData\Local\Temp\ccz982d4.s 			page 43


 2129 0c76 78       		.byte	0x78
 2130 0c77 00       		.sleb128 0
 2131 0c78 24       		.uleb128 0x24
 2132 0c79 01       		.byte	0x1
 2133 0c7a 51       		.byte	0x51
 2134 0c7b 02       		.byte	0x2
 2135 0c7c 74       		.byte	0x74
 2136 0c7d 00       		.sleb128 0
 2137 0c7e 00       		.byte	0
 2138 0c7f 29       		.uleb128 0x29
 2139 0c80 E0000000 		.4byte	.LVL21
 2140 0c84 9F0E0000 		.4byte	0xe9f
 2141 0c88 24       		.uleb128 0x24
 2142 0c89 01       		.byte	0x1
 2143 0c8a 50       		.byte	0x50
 2144 0c8b 02       		.byte	0x2
 2145 0c8c 77       		.byte	0x77
 2146 0c8d 00       		.sleb128 0
 2147 0c8e 24       		.uleb128 0x24
 2148 0c8f 01       		.byte	0x1
 2149 0c90 51       		.byte	0x51
 2150 0c91 02       		.byte	0x2
 2151 0c92 75       		.byte	0x75
 2152 0c93 00       		.sleb128 0
 2153 0c94 24       		.uleb128 0x24
 2154 0c95 01       		.byte	0x1
 2155 0c96 52       		.byte	0x52
 2156 0c97 02       		.byte	0x2
 2157 0c98 76       		.byte	0x76
 2158 0c99 00       		.sleb128 0
 2159 0c9a 00       		.byte	0
 2160 0c9b 00       		.byte	0
 2161 0c9c 22       		.uleb128 0x22
 2162 0c9d 01       		.byte	0x1
 2163 0c9e 11010000 		.4byte	.LASF135
 2164 0ca2 02       		.byte	0x2
 2165 0ca3 77       		.byte	0x77
 2166 0ca4 01       		.byte	0x1
 2167 0ca5 C7000000 		.4byte	0xc7
 2168 0ca9 AC000000 		.4byte	.LFB6
 2169 0cad B8000000 		.4byte	.LFE6
 2170 0cb1 5F000000 		.4byte	.LLST6
 2171 0cb5 01       		.byte	0x1
 2172 0cb6 D90C0000 		.4byte	0xcd9
 2173 0cba 2A       		.uleb128 0x2a
 2174 0cbb 61757800 		.ascii	"aux\000"
 2175 0cbf 02       		.byte	0x2
 2176 0cc0 79       		.byte	0x79
 2177 0cc1 C7000000 		.4byte	0xc7
 2178 0cc5 01       		.byte	0x1
 2179 0cc6 50       		.byte	0x50
 2180 0cc7 29       		.uleb128 0x29
 2181 0cc8 B6000000 		.4byte	.LVL17
 2182 0ccc AC0E0000 		.4byte	0xeac
 2183 0cd0 24       		.uleb128 0x24
 2184 0cd1 01       		.byte	0x1
 2185 0cd2 50       		.byte	0x50
ARM GAS  C:\Users\Diogo\AppData\Local\Temp\ccz982d4.s 			page 44


 2186 0cd3 03       		.byte	0x3
 2187 0cd4 0A       		.byte	0xa
 2188 0cd5 0001     		.2byte	0x100
 2189 0cd7 00       		.byte	0
 2190 0cd8 00       		.byte	0
 2191 0cd9 27       		.uleb128 0x27
 2192 0cda 01       		.byte	0x1
 2193 0cdb 35060000 		.4byte	.LASF137
 2194 0cdf 02       		.byte	0x2
 2195 0ce0 5D       		.byte	0x5d
 2196 0ce1 01       		.byte	0x1
 2197 0ce2 4C000000 		.4byte	.LFB5
 2198 0ce6 AC000000 		.4byte	.LFE5
 2199 0cea 7F000000 		.4byte	.LLST5
 2200 0cee 01       		.byte	0x1
 2201 0cef 830D0000 		.4byte	0xd83
 2202 0cf3 23       		.uleb128 0x23
 2203 0cf4 58000000 		.4byte	.LVL10
 2204 0cf8 070D0000 		.4byte	0xd07
 2205 0cfc 24       		.uleb128 0x24
 2206 0cfd 01       		.byte	0x1
 2207 0cfe 50       		.byte	0x50
 2208 0cff 06       		.byte	0x6
 2209 0d00 11       		.byte	0x11
 2210 0d01 80908080 		.sleb128 -268433408
 2210      7F
 2211 0d06 00       		.byte	0
 2212 0d07 23       		.uleb128 0x23
 2213 0d08 60000000 		.4byte	.LVL11
 2214 0d0c 1B0D0000 		.4byte	0xd1b
 2215 0d10 24       		.uleb128 0x24
 2216 0d11 01       		.byte	0x1
 2217 0d12 50       		.byte	0x50
 2218 0d13 06       		.byte	0x6
 2219 0d14 11       		.byte	0x11
 2220 0d15 80B08080 		.sleb128 -268429312
 2220      7F
 2221 0d1a 00       		.byte	0
 2222 0d1b 23       		.uleb128 0x23
 2223 0d1c 6A000000 		.4byte	.LVL12
 2224 0d20 2A0D0000 		.4byte	0xd2a
 2225 0d24 24       		.uleb128 0x24
 2226 0d25 01       		.byte	0x1
 2227 0d26 50       		.byte	0x50
 2228 0d27 01       		.byte	0x1
 2229 0d28 31       		.byte	0x31
 2230 0d29 00       		.byte	0
 2231 0d2a 23       		.uleb128 0x23
 2232 0d2b 74000000 		.4byte	.LVL13
 2233 0d2f 3B0D0000 		.4byte	0xd3b
 2234 0d33 24       		.uleb128 0x24
 2235 0d34 01       		.byte	0x1
 2236 0d35 50       		.byte	0x50
 2237 0d36 03       		.byte	0x3
 2238 0d37 0A       		.byte	0xa
 2239 0d38 0104     		.2byte	0x401
 2240 0d3a 00       		.byte	0
ARM GAS  C:\Users\Diogo\AppData\Local\Temp\ccz982d4.s 			page 45


 2241 0d3b 23       		.uleb128 0x23
 2242 0d3c 80000000 		.4byte	.LVL14
 2243 0d40 530D0000 		.4byte	0xd53
 2244 0d44 24       		.uleb128 0x24
 2245 0d45 01       		.byte	0x1
 2246 0d46 50       		.byte	0x50
 2247 0d47 05       		.byte	0x5
 2248 0d48 0C       		.byte	0xc
 2249 0d49 00400040 		.4byte	0x40004000
 2250 0d4d 24       		.uleb128 0x24
 2251 0d4e 01       		.byte	0x1
 2252 0d4f 51       		.byte	0x51
 2253 0d50 01       		.byte	0x1
 2254 0d51 33       		.byte	0x33
 2255 0d52 00       		.byte	0
 2256 0d53 23       		.uleb128 0x23
 2257 0d54 8C000000 		.4byte	.LVL15
 2258 0d58 6B0D0000 		.4byte	0xd6b
 2259 0d5c 24       		.uleb128 0x24
 2260 0d5d 01       		.byte	0x1
 2261 0d5e 50       		.byte	0x50
 2262 0d5f 05       		.byte	0x5
 2263 0d60 0C       		.byte	0xc
 2264 0d61 00400040 		.4byte	0x40004000
 2265 0d65 24       		.uleb128 0x24
 2266 0d66 01       		.byte	0x1
 2267 0d67 51       		.byte	0x51
 2268 0d68 01       		.byte	0x1
 2269 0d69 35       		.byte	0x35
 2270 0d6a 00       		.byte	0
 2271 0d6b 29       		.uleb128 0x29
 2272 0d6c 9A000000 		.4byte	.LVL16
 2273 0d70 B90E0000 		.4byte	0xeb9
 2274 0d74 24       		.uleb128 0x24
 2275 0d75 01       		.byte	0x1
 2276 0d76 50       		.byte	0x50
 2277 0d77 01       		.byte	0x1
 2278 0d78 30       		.byte	0x30
 2279 0d79 24       		.uleb128 0x24
 2280 0d7a 01       		.byte	0x1
 2281 0d7b 51       		.byte	0x51
 2282 0d7c 04       		.byte	0x4
 2283 0d7d 08       		.byte	0x8
 2284 0d7e E1       		.byte	0xe1
 2285 0d7f 39       		.byte	0x39
 2286 0d80 24       		.byte	0x24
 2287 0d81 00       		.byte	0
 2288 0d82 00       		.byte	0
 2289 0d83 27       		.uleb128 0x27
 2290 0d84 01       		.byte	0x1
 2291 0d85 2C000000 		.4byte	.LASF138
 2292 0d89 02       		.byte	0x2
 2293 0d8a 52       		.byte	0x52
 2294 0d8b 01       		.byte	0x1
 2295 0d8c 38000000 		.4byte	.LFB4
 2296 0d90 4C000000 		.4byte	.LFE4
 2297 0d94 9F000000 		.4byte	.LLST2
ARM GAS  C:\Users\Diogo\AppData\Local\Temp\ccz982d4.s 			page 46


 2298 0d98 01       		.byte	0x1
 2299 0d99 DD0D0000 		.4byte	0xddd
 2300 0d9d 2B       		.uleb128 0x2b
 2301 0d9e 4D050000 		.4byte	.LASF139
 2302 0da2 02       		.byte	0x2
 2303 0da3 52       		.byte	0x52
 2304 0da4 69060000 		.4byte	0x669
 2305 0da8 BF000000 		.4byte	.LLST3
 2306 0dac 2B       		.uleb128 0x2b
 2307 0dad D1030000 		.4byte	.LASF140
 2308 0db1 02       		.byte	0x2
 2309 0db2 52       		.byte	0x52
 2310 0db3 76000000 		.4byte	0x76
 2311 0db7 EB000000 		.4byte	.LLST4
 2312 0dbb 29       		.uleb128 0x29
 2313 0dbc 44000000 		.4byte	.LVL9
 2314 0dc0 590E0000 		.4byte	0xe59
 2315 0dc4 24       		.uleb128 0x24
 2316 0dc5 01       		.byte	0x1
 2317 0dc6 50       		.byte	0x50
 2318 0dc7 05       		.byte	0x5
 2319 0dc8 03       		.byte	0x3
 2320 0dc9 30000000 		.4byte	.LC2
 2321 0dcd 24       		.uleb128 0x24
 2322 0dce 01       		.byte	0x1
 2323 0dcf 51       		.byte	0x51
 2324 0dd0 03       		.byte	0x3
 2325 0dd1 F3       		.byte	0xf3
 2326 0dd2 01       		.uleb128 0x1
 2327 0dd3 50       		.byte	0x50
 2328 0dd4 24       		.uleb128 0x24
 2329 0dd5 01       		.byte	0x1
 2330 0dd6 52       		.byte	0x52
 2331 0dd7 03       		.byte	0x3
 2332 0dd8 F3       		.byte	0xf3
 2333 0dd9 01       		.uleb128 0x1
 2334 0dda 51       		.byte	0x51
 2335 0ddb 00       		.byte	0
 2336 0ddc 00       		.byte	0
 2337 0ddd 27       		.uleb128 0x27
 2338 0dde 01       		.byte	0x1
 2339 0ddf AC030000 		.4byte	.LASF141
 2340 0de3 01       		.byte	0x1
 2341 0de4 11       		.byte	0x11
 2342 0de5 01       		.byte	0x1
 2343 0de6 00000000 		.4byte	.LFB3
 2344 0dea 38000000 		.4byte	.LFE3
 2345 0dee 17010000 		.4byte	.LLST0
 2346 0df2 01       		.byte	0x1
 2347 0df3 4C0E0000 		.4byte	0xe4c
 2348 0df7 2C       		.uleb128 0x2c
 2349 0df8 61726700 		.ascii	"arg\000"
 2350 0dfc 01       		.byte	0x1
 2351 0dfd 11       		.byte	0x11
 2352 0dfe 81000000 		.4byte	0x81
 2353 0e02 37010000 		.4byte	.LLST1
 2354 0e06 26       		.uleb128 0x26
ARM GAS  C:\Users\Diogo\AppData\Local\Temp\ccz982d4.s 			page 47


 2355 0e07 06000000 		.4byte	.LVL1
 2356 0e0b C60E0000 		.4byte	0xec6
 2357 0e0f 25       		.uleb128 0x25
 2358 0e10 0E000000 		.4byte	.LVL2
 2359 0e14 590E0000 		.4byte	0xe59
 2360 0e18 260E0000 		.4byte	0xe26
 2361 0e1c 24       		.uleb128 0x24
 2362 0e1d 01       		.byte	0x1
 2363 0e1e 50       		.byte	0x50
 2364 0e1f 05       		.byte	0x5
 2365 0e20 03       		.byte	0x3
 2366 0e21 00000000 		.4byte	.LC0
 2367 0e25 00       		.byte	0
 2368 0e26 26       		.uleb128 0x26
 2369 0e27 12000000 		.4byte	.LVL3
 2370 0e2b C60E0000 		.4byte	0xec6
 2371 0e2f 26       		.uleb128 0x26
 2372 0e30 20000000 		.4byte	.LVL4
 2373 0e34 C60E0000 		.4byte	0xec6
 2374 0e38 29       		.uleb128 0x29
 2375 0e39 28000000 		.4byte	.LVL5
 2376 0e3d 590E0000 		.4byte	0xe59
 2377 0e41 24       		.uleb128 0x24
 2378 0e42 01       		.byte	0x1
 2379 0e43 50       		.byte	0x50
 2380 0e44 05       		.byte	0x5
 2381 0e45 03       		.byte	0x3
 2382 0e46 18000000 		.4byte	.LC1
 2383 0e4a 00       		.byte	0
 2384 0e4b 00       		.byte	0
 2385 0e4c 2D       		.uleb128 0x2d
 2386 0e4d 01       		.byte	0x1
 2387 0e4e 01       		.byte	0x1
 2388 0e4f 96000000 		.4byte	.LASF142
 2389 0e53 96000000 		.4byte	.LASF142
 2390 0e57 0B       		.byte	0xb
 2391 0e58 43       		.byte	0x43
 2392 0e59 2D       		.uleb128 0x2d
 2393 0e5a 01       		.byte	0x1
 2394 0e5b 01       		.byte	0x1
 2395 0e5c AB010000 		.4byte	.LASF143
 2396 0e60 AB010000 		.4byte	.LASF143
 2397 0e64 0C       		.byte	0xc
 2398 0e65 41       		.byte	0x41
 2399 0e66 2D       		.uleb128 0x2d
 2400 0e67 01       		.byte	0x1
 2401 0e68 01       		.byte	0x1
 2402 0e69 38050000 		.4byte	.LASF144
 2403 0e6d 38050000 		.4byte	.LASF144
 2404 0e71 0B       		.byte	0xb
 2405 0e72 44       		.byte	0x44
 2406 0e73 2E       		.uleb128 0x2e
 2407 0e74 01       		.byte	0x1
 2408 0e75 01       		.byte	0x1
 2409 0e76 A9000000 		.4byte	.LASF145
 2410 0e7a A9000000 		.4byte	.LASF145
 2411 0e7e 0D       		.byte	0xd
ARM GAS  C:\Users\Diogo\AppData\Local\Temp\ccz982d4.s 			page 48


 2412 0e7f 6802     		.2byte	0x268
 2413 0e81 2D       		.uleb128 0x2d
 2414 0e82 01       		.byte	0x1
 2415 0e83 01       		.byte	0x1
 2416 0e84 3D010000 		.4byte	.LASF146
 2417 0e88 3D010000 		.4byte	.LASF146
 2418 0e8c 05       		.byte	0x5
 2419 0e8d 12       		.byte	0x12
 2420 0e8e 2F       		.uleb128 0x2f
 2421 0e8f 01       		.byte	0x1
 2422 0e90 01       		.byte	0x1
 2423 0e91 9A030000 		.4byte	.LASF154
 2424 0e95 4B010000 		.4byte	.LASF155
 2425 0e99 0E       		.byte	0xe
 2426 0e9a 00       		.byte	0
 2427 0e9b 9A030000 		.4byte	.LASF154
 2428 0e9f 2D       		.uleb128 0x2d
 2429 0ea0 01       		.byte	0x1
 2430 0ea1 01       		.byte	0x1
 2431 0ea2 96010000 		.4byte	.LASF147
 2432 0ea6 96010000 		.4byte	.LASF147
 2433 0eaa 05       		.byte	0x5
 2434 0eab 10       		.byte	0x10
 2435 0eac 2D       		.uleb128 0x2d
 2436 0ead 01       		.byte	0x1
 2437 0eae 01       		.byte	0x1
 2438 0eaf 0C000000 		.4byte	.LASF148
 2439 0eb3 0C000000 		.4byte	.LASF148
 2440 0eb7 0A       		.byte	0xa
 2441 0eb8 68       		.byte	0x68
 2442 0eb9 2D       		.uleb128 0x2d
 2443 0eba 01       		.byte	0x1
 2444 0ebb 01       		.byte	0x1
 2445 0ebc 01060000 		.4byte	.LASF149
 2446 0ec0 01060000 		.4byte	.LASF149
 2447 0ec4 0C       		.byte	0xc
 2448 0ec5 3D       		.byte	0x3d
 2449 0ec6 2D       		.uleb128 0x2d
 2450 0ec7 01       		.byte	0x1
 2451 0ec8 01       		.byte	0x1
 2452 0ec9 FE030000 		.4byte	.LASF150
 2453 0ecd FE030000 		.4byte	.LASF150
 2454 0ed1 05       		.byte	0x5
 2455 0ed2 11       		.byte	0x11
 2456 0ed3 00       		.byte	0
 2457              		.section	.debug_abbrev,"",%progbits
 2458              	.Ldebug_abbrev0:
 2459 0000 01       		.uleb128 0x1
 2460 0001 11       		.uleb128 0x11
 2461 0002 01       		.byte	0x1
 2462 0003 25       		.uleb128 0x25
 2463 0004 0E       		.uleb128 0xe
 2464 0005 13       		.uleb128 0x13
 2465 0006 0B       		.uleb128 0xb
 2466 0007 03       		.uleb128 0x3
 2467 0008 0E       		.uleb128 0xe
 2468 0009 1B       		.uleb128 0x1b
ARM GAS  C:\Users\Diogo\AppData\Local\Temp\ccz982d4.s 			page 49


 2469 000a 0E       		.uleb128 0xe
 2470 000b 11       		.uleb128 0x11
 2471 000c 01       		.uleb128 0x1
 2472 000d 12       		.uleb128 0x12
 2473 000e 01       		.uleb128 0x1
 2474 000f 10       		.uleb128 0x10
 2475 0010 06       		.uleb128 0x6
 2476 0011 00       		.byte	0
 2477 0012 00       		.byte	0
 2478 0013 02       		.uleb128 0x2
 2479 0014 24       		.uleb128 0x24
 2480 0015 00       		.byte	0
 2481 0016 0B       		.uleb128 0xb
 2482 0017 0B       		.uleb128 0xb
 2483 0018 3E       		.uleb128 0x3e
 2484 0019 0B       		.uleb128 0xb
 2485 001a 03       		.uleb128 0x3
 2486 001b 0E       		.uleb128 0xe
 2487 001c 00       		.byte	0
 2488 001d 00       		.byte	0
 2489 001e 03       		.uleb128 0x3
 2490 001f 16       		.uleb128 0x16
 2491 0020 00       		.byte	0
 2492 0021 03       		.uleb128 0x3
 2493 0022 0E       		.uleb128 0xe
 2494 0023 3A       		.uleb128 0x3a
 2495 0024 0B       		.uleb128 0xb
 2496 0025 3B       		.uleb128 0x3b
 2497 0026 0B       		.uleb128 0xb
 2498 0027 49       		.uleb128 0x49
 2499 0028 13       		.uleb128 0x13
 2500 0029 00       		.byte	0
 2501 002a 00       		.byte	0
 2502 002b 04       		.uleb128 0x4
 2503 002c 24       		.uleb128 0x24
 2504 002d 00       		.byte	0
 2505 002e 0B       		.uleb128 0xb
 2506 002f 0B       		.uleb128 0xb
 2507 0030 3E       		.uleb128 0x3e
 2508 0031 0B       		.uleb128 0xb
 2509 0032 03       		.uleb128 0x3
 2510 0033 08       		.uleb128 0x8
 2511 0034 00       		.byte	0
 2512 0035 00       		.byte	0
 2513 0036 05       		.uleb128 0x5
 2514 0037 0F       		.uleb128 0xf
 2515 0038 00       		.byte	0
 2516 0039 0B       		.uleb128 0xb
 2517 003a 0B       		.uleb128 0xb
 2518 003b 00       		.byte	0
 2519 003c 00       		.byte	0
 2520 003d 06       		.uleb128 0x6
 2521 003e 13       		.uleb128 0x13
 2522 003f 01       		.byte	0x1
 2523 0040 03       		.uleb128 0x3
 2524 0041 0E       		.uleb128 0xe
 2525 0042 0B       		.uleb128 0xb
ARM GAS  C:\Users\Diogo\AppData\Local\Temp\ccz982d4.s 			page 50


 2526 0043 0B       		.uleb128 0xb
 2527 0044 3A       		.uleb128 0x3a
 2528 0045 0B       		.uleb128 0xb
 2529 0046 3B       		.uleb128 0x3b
 2530 0047 0B       		.uleb128 0xb
 2531 0048 01       		.uleb128 0x1
 2532 0049 13       		.uleb128 0x13
 2533 004a 00       		.byte	0
 2534 004b 00       		.byte	0
 2535 004c 07       		.uleb128 0x7
 2536 004d 0D       		.uleb128 0xd
 2537 004e 00       		.byte	0
 2538 004f 03       		.uleb128 0x3
 2539 0050 0E       		.uleb128 0xe
 2540 0051 3A       		.uleb128 0x3a
 2541 0052 0B       		.uleb128 0xb
 2542 0053 3B       		.uleb128 0x3b
 2543 0054 0B       		.uleb128 0xb
 2544 0055 49       		.uleb128 0x49
 2545 0056 13       		.uleb128 0x13
 2546 0057 38       		.uleb128 0x38
 2547 0058 0A       		.uleb128 0xa
 2548 0059 00       		.byte	0
 2549 005a 00       		.byte	0
 2550 005b 08       		.uleb128 0x8
 2551 005c 0D       		.uleb128 0xd
 2552 005d 00       		.byte	0
 2553 005e 03       		.uleb128 0x3
 2554 005f 08       		.uleb128 0x8
 2555 0060 3A       		.uleb128 0x3a
 2556 0061 0B       		.uleb128 0xb
 2557 0062 3B       		.uleb128 0x3b
 2558 0063 0B       		.uleb128 0xb
 2559 0064 49       		.uleb128 0x49
 2560 0065 13       		.uleb128 0x13
 2561 0066 38       		.uleb128 0x38
 2562 0067 0A       		.uleb128 0xa
 2563 0068 00       		.byte	0
 2564 0069 00       		.byte	0
 2565 006a 09       		.uleb128 0x9
 2566 006b 0F       		.uleb128 0xf
 2567 006c 00       		.byte	0
 2568 006d 0B       		.uleb128 0xb
 2569 006e 0B       		.uleb128 0xb
 2570 006f 49       		.uleb128 0x49
 2571 0070 13       		.uleb128 0x13
 2572 0071 00       		.byte	0
 2573 0072 00       		.byte	0
 2574 0073 0A       		.uleb128 0xa
 2575 0074 15       		.uleb128 0x15
 2576 0075 01       		.byte	0x1
 2577 0076 01       		.uleb128 0x1
 2578 0077 13       		.uleb128 0x13
 2579 0078 00       		.byte	0
 2580 0079 00       		.byte	0
 2581 007a 0B       		.uleb128 0xb
 2582 007b 18       		.uleb128 0x18
ARM GAS  C:\Users\Diogo\AppData\Local\Temp\ccz982d4.s 			page 51


 2583 007c 00       		.byte	0
 2584 007d 00       		.byte	0
 2585 007e 00       		.byte	0
 2586 007f 0C       		.uleb128 0xc
 2587 0080 13       		.uleb128 0x13
 2588 0081 00       		.byte	0
 2589 0082 03       		.uleb128 0x3
 2590 0083 0E       		.uleb128 0xe
 2591 0084 3C       		.uleb128 0x3c
 2592 0085 0C       		.uleb128 0xc
 2593 0086 00       		.byte	0
 2594 0087 00       		.byte	0
 2595 0088 0D       		.uleb128 0xd
 2596 0089 16       		.uleb128 0x16
 2597 008a 00       		.byte	0
 2598 008b 03       		.uleb128 0x3
 2599 008c 0E       		.uleb128 0xe
 2600 008d 3A       		.uleb128 0x3a
 2601 008e 0B       		.uleb128 0xb
 2602 008f 3B       		.uleb128 0x3b
 2603 0090 05       		.uleb128 0x5
 2604 0091 49       		.uleb128 0x49
 2605 0092 13       		.uleb128 0x13
 2606 0093 00       		.byte	0
 2607 0094 00       		.byte	0
 2608 0095 0E       		.uleb128 0xe
 2609 0096 17       		.uleb128 0x17
 2610 0097 01       		.byte	0x1
 2611 0098 0B       		.uleb128 0xb
 2612 0099 0B       		.uleb128 0xb
 2613 009a 3A       		.uleb128 0x3a
 2614 009b 0B       		.uleb128 0xb
 2615 009c 3B       		.uleb128 0x3b
 2616 009d 0B       		.uleb128 0xb
 2617 009e 01       		.uleb128 0x1
 2618 009f 13       		.uleb128 0x13
 2619 00a0 00       		.byte	0
 2620 00a1 00       		.byte	0
 2621 00a2 0F       		.uleb128 0xf
 2622 00a3 0D       		.uleb128 0xd
 2623 00a4 00       		.byte	0
 2624 00a5 03       		.uleb128 0x3
 2625 00a6 0E       		.uleb128 0xe
 2626 00a7 3A       		.uleb128 0x3a
 2627 00a8 0B       		.uleb128 0xb
 2628 00a9 3B       		.uleb128 0x3b
 2629 00aa 0B       		.uleb128 0xb
 2630 00ab 49       		.uleb128 0x49
 2631 00ac 13       		.uleb128 0x13
 2632 00ad 00       		.byte	0
 2633 00ae 00       		.byte	0
 2634 00af 10       		.uleb128 0x10
 2635 00b0 01       		.uleb128 0x1
 2636 00b1 01       		.byte	0x1
 2637 00b2 49       		.uleb128 0x49
 2638 00b3 13       		.uleb128 0x13
 2639 00b4 01       		.uleb128 0x1
ARM GAS  C:\Users\Diogo\AppData\Local\Temp\ccz982d4.s 			page 52


 2640 00b5 13       		.uleb128 0x13
 2641 00b6 00       		.byte	0
 2642 00b7 00       		.byte	0
 2643 00b8 11       		.uleb128 0x11
 2644 00b9 21       		.uleb128 0x21
 2645 00ba 00       		.byte	0
 2646 00bb 49       		.uleb128 0x49
 2647 00bc 13       		.uleb128 0x13
 2648 00bd 2F       		.uleb128 0x2f
 2649 00be 0B       		.uleb128 0xb
 2650 00bf 00       		.byte	0
 2651 00c0 00       		.byte	0
 2652 00c1 12       		.uleb128 0x12
 2653 00c2 13       		.uleb128 0x13
 2654 00c3 01       		.byte	0x1
 2655 00c4 0B       		.uleb128 0xb
 2656 00c5 0B       		.uleb128 0xb
 2657 00c6 3A       		.uleb128 0x3a
 2658 00c7 0B       		.uleb128 0xb
 2659 00c8 3B       		.uleb128 0x3b
 2660 00c9 0B       		.uleb128 0xb
 2661 00ca 01       		.uleb128 0x1
 2662 00cb 13       		.uleb128 0x13
 2663 00cc 00       		.byte	0
 2664 00cd 00       		.byte	0
 2665 00ce 13       		.uleb128 0x13
 2666 00cf 13       		.uleb128 0x13
 2667 00d0 01       		.byte	0x1
 2668 00d1 03       		.uleb128 0x3
 2669 00d2 0E       		.uleb128 0xe
 2670 00d3 0B       		.uleb128 0xb
 2671 00d4 05       		.uleb128 0x5
 2672 00d5 3A       		.uleb128 0x3a
 2673 00d6 0B       		.uleb128 0xb
 2674 00d7 3B       		.uleb128 0x3b
 2675 00d8 0B       		.uleb128 0xb
 2676 00d9 01       		.uleb128 0x1
 2677 00da 13       		.uleb128 0x13
 2678 00db 00       		.byte	0
 2679 00dc 00       		.byte	0
 2680 00dd 14       		.uleb128 0x14
 2681 00de 15       		.uleb128 0x15
 2682 00df 00       		.byte	0
 2683 00e0 27       		.uleb128 0x27
 2684 00e1 0C       		.uleb128 0xc
 2685 00e2 00       		.byte	0
 2686 00e3 00       		.byte	0
 2687 00e4 15       		.uleb128 0x15
 2688 00e5 15       		.uleb128 0x15
 2689 00e6 01       		.byte	0x1
 2690 00e7 27       		.uleb128 0x27
 2691 00e8 0C       		.uleb128 0xc
 2692 00e9 49       		.uleb128 0x49
 2693 00ea 13       		.uleb128 0x13
 2694 00eb 01       		.uleb128 0x1
 2695 00ec 13       		.uleb128 0x13
 2696 00ed 00       		.byte	0
ARM GAS  C:\Users\Diogo\AppData\Local\Temp\ccz982d4.s 			page 53


 2697 00ee 00       		.byte	0
 2698 00ef 16       		.uleb128 0x16
 2699 00f0 05       		.uleb128 0x5
 2700 00f1 00       		.byte	0
 2701 00f2 49       		.uleb128 0x49
 2702 00f3 13       		.uleb128 0x13
 2703 00f4 00       		.byte	0
 2704 00f5 00       		.byte	0
 2705 00f6 17       		.uleb128 0x17
 2706 00f7 26       		.uleb128 0x26
 2707 00f8 00       		.byte	0
 2708 00f9 49       		.uleb128 0x49
 2709 00fa 13       		.uleb128 0x13
 2710 00fb 00       		.byte	0
 2711 00fc 00       		.byte	0
 2712 00fd 18       		.uleb128 0x18
 2713 00fe 13       		.uleb128 0x13
 2714 00ff 01       		.byte	0x1
 2715 0100 03       		.uleb128 0x3
 2716 0101 0E       		.uleb128 0xe
 2717 0102 0B       		.uleb128 0xb
 2718 0103 05       		.uleb128 0x5
 2719 0104 3A       		.uleb128 0x3a
 2720 0105 0B       		.uleb128 0xb
 2721 0106 3B       		.uleb128 0x3b
 2722 0107 05       		.uleb128 0x5
 2723 0108 01       		.uleb128 0x1
 2724 0109 13       		.uleb128 0x13
 2725 010a 00       		.byte	0
 2726 010b 00       		.byte	0
 2727 010c 19       		.uleb128 0x19
 2728 010d 0D       		.uleb128 0xd
 2729 010e 00       		.byte	0
 2730 010f 03       		.uleb128 0x3
 2731 0110 0E       		.uleb128 0xe
 2732 0111 3A       		.uleb128 0x3a
 2733 0112 0B       		.uleb128 0xb
 2734 0113 3B       		.uleb128 0x3b
 2735 0114 05       		.uleb128 0x5
 2736 0115 49       		.uleb128 0x49
 2737 0116 13       		.uleb128 0x13
 2738 0117 38       		.uleb128 0x38
 2739 0118 0A       		.uleb128 0xa
 2740 0119 00       		.byte	0
 2741 011a 00       		.byte	0
 2742 011b 1A       		.uleb128 0x1a
 2743 011c 13       		.uleb128 0x13
 2744 011d 01       		.byte	0x1
 2745 011e 03       		.uleb128 0x3
 2746 011f 0E       		.uleb128 0xe
 2747 0120 0B       		.uleb128 0xb
 2748 0121 0B       		.uleb128 0xb
 2749 0122 3A       		.uleb128 0x3a
 2750 0123 0B       		.uleb128 0xb
 2751 0124 3B       		.uleb128 0x3b
 2752 0125 05       		.uleb128 0x5
 2753 0126 01       		.uleb128 0x1
ARM GAS  C:\Users\Diogo\AppData\Local\Temp\ccz982d4.s 			page 54


 2754 0127 13       		.uleb128 0x13
 2755 0128 00       		.byte	0
 2756 0129 00       		.byte	0
 2757 012a 1B       		.uleb128 0x1b
 2758 012b 13       		.uleb128 0x13
 2759 012c 01       		.byte	0x1
 2760 012d 0B       		.uleb128 0xb
 2761 012e 0B       		.uleb128 0xb
 2762 012f 3A       		.uleb128 0x3a
 2763 0130 0B       		.uleb128 0xb
 2764 0131 3B       		.uleb128 0x3b
 2765 0132 05       		.uleb128 0x5
 2766 0133 01       		.uleb128 0x1
 2767 0134 13       		.uleb128 0x13
 2768 0135 00       		.byte	0
 2769 0136 00       		.byte	0
 2770 0137 1C       		.uleb128 0x1c
 2771 0138 17       		.uleb128 0x17
 2772 0139 01       		.byte	0x1
 2773 013a 0B       		.uleb128 0xb
 2774 013b 0B       		.uleb128 0xb
 2775 013c 3A       		.uleb128 0x3a
 2776 013d 0B       		.uleb128 0xb
 2777 013e 3B       		.uleb128 0x3b
 2778 013f 05       		.uleb128 0x5
 2779 0140 01       		.uleb128 0x1
 2780 0141 13       		.uleb128 0x13
 2781 0142 00       		.byte	0
 2782 0143 00       		.byte	0
 2783 0144 1D       		.uleb128 0x1d
 2784 0145 0D       		.uleb128 0xd
 2785 0146 00       		.byte	0
 2786 0147 03       		.uleb128 0x3
 2787 0148 0E       		.uleb128 0xe
 2788 0149 3A       		.uleb128 0x3a
 2789 014a 0B       		.uleb128 0xb
 2790 014b 3B       		.uleb128 0x3b
 2791 014c 05       		.uleb128 0x5
 2792 014d 49       		.uleb128 0x49
 2793 014e 13       		.uleb128 0x13
 2794 014f 00       		.byte	0
 2795 0150 00       		.byte	0
 2796 0151 1E       		.uleb128 0x1e
 2797 0152 15       		.uleb128 0x15
 2798 0153 01       		.byte	0x1
 2799 0154 27       		.uleb128 0x27
 2800 0155 0C       		.uleb128 0xc
 2801 0156 01       		.uleb128 0x1
 2802 0157 13       		.uleb128 0x13
 2803 0158 00       		.byte	0
 2804 0159 00       		.byte	0
 2805 015a 1F       		.uleb128 0x1f
 2806 015b 34       		.uleb128 0x34
 2807 015c 00       		.byte	0
 2808 015d 03       		.uleb128 0x3
 2809 015e 0E       		.uleb128 0xe
 2810 015f 3A       		.uleb128 0x3a
ARM GAS  C:\Users\Diogo\AppData\Local\Temp\ccz982d4.s 			page 55


 2811 0160 0B       		.uleb128 0xb
 2812 0161 3B       		.uleb128 0x3b
 2813 0162 05       		.uleb128 0x5
 2814 0163 49       		.uleb128 0x49
 2815 0164 13       		.uleb128 0x13
 2816 0165 3F       		.uleb128 0x3f
 2817 0166 0C       		.uleb128 0xc
 2818 0167 3C       		.uleb128 0x3c
 2819 0168 0C       		.uleb128 0xc
 2820 0169 00       		.byte	0
 2821 016a 00       		.byte	0
 2822 016b 20       		.uleb128 0x20
 2823 016c 34       		.uleb128 0x34
 2824 016d 00       		.byte	0
 2825 016e 03       		.uleb128 0x3
 2826 016f 0E       		.uleb128 0xe
 2827 0170 3A       		.uleb128 0x3a
 2828 0171 0B       		.uleb128 0xb
 2829 0172 3B       		.uleb128 0x3b
 2830 0173 0B       		.uleb128 0xb
 2831 0174 49       		.uleb128 0x49
 2832 0175 13       		.uleb128 0x13
 2833 0176 3F       		.uleb128 0x3f
 2834 0177 0C       		.uleb128 0xc
 2835 0178 3C       		.uleb128 0x3c
 2836 0179 0C       		.uleb128 0xc
 2837 017a 00       		.byte	0
 2838 017b 00       		.byte	0
 2839 017c 21       		.uleb128 0x21
 2840 017d 34       		.uleb128 0x34
 2841 017e 00       		.byte	0
 2842 017f 03       		.uleb128 0x3
 2843 0180 0E       		.uleb128 0xe
 2844 0181 3A       		.uleb128 0x3a
 2845 0182 0B       		.uleb128 0xb
 2846 0183 3B       		.uleb128 0x3b
 2847 0184 0B       		.uleb128 0xb
 2848 0185 49       		.uleb128 0x49
 2849 0186 13       		.uleb128 0x13
 2850 0187 3F       		.uleb128 0x3f
 2851 0188 0C       		.uleb128 0xc
 2852 0189 02       		.uleb128 0x2
 2853 018a 0A       		.uleb128 0xa
 2854 018b 00       		.byte	0
 2855 018c 00       		.byte	0
 2856 018d 22       		.uleb128 0x22
 2857 018e 2E       		.uleb128 0x2e
 2858 018f 01       		.byte	0x1
 2859 0190 3F       		.uleb128 0x3f
 2860 0191 0C       		.uleb128 0xc
 2861 0192 03       		.uleb128 0x3
 2862 0193 0E       		.uleb128 0xe
 2863 0194 3A       		.uleb128 0x3a
 2864 0195 0B       		.uleb128 0xb
 2865 0196 3B       		.uleb128 0x3b
 2866 0197 0B       		.uleb128 0xb
 2867 0198 27       		.uleb128 0x27
ARM GAS  C:\Users\Diogo\AppData\Local\Temp\ccz982d4.s 			page 56


 2868 0199 0C       		.uleb128 0xc
 2869 019a 49       		.uleb128 0x49
 2870 019b 13       		.uleb128 0x13
 2871 019c 11       		.uleb128 0x11
 2872 019d 01       		.uleb128 0x1
 2873 019e 12       		.uleb128 0x12
 2874 019f 01       		.uleb128 0x1
 2875 01a0 40       		.uleb128 0x40
 2876 01a1 06       		.uleb128 0x6
 2877 01a2 9742     		.uleb128 0x2117
 2878 01a4 0C       		.uleb128 0xc
 2879 01a5 01       		.uleb128 0x1
 2880 01a6 13       		.uleb128 0x13
 2881 01a7 00       		.byte	0
 2882 01a8 00       		.byte	0
 2883 01a9 23       		.uleb128 0x23
 2884 01aa 898201   		.uleb128 0x4109
 2885 01ad 01       		.byte	0x1
 2886 01ae 11       		.uleb128 0x11
 2887 01af 01       		.uleb128 0x1
 2888 01b0 01       		.uleb128 0x1
 2889 01b1 13       		.uleb128 0x13
 2890 01b2 00       		.byte	0
 2891 01b3 00       		.byte	0
 2892 01b4 24       		.uleb128 0x24
 2893 01b5 8A8201   		.uleb128 0x410a
 2894 01b8 00       		.byte	0
 2895 01b9 02       		.uleb128 0x2
 2896 01ba 0A       		.uleb128 0xa
 2897 01bb 9142     		.uleb128 0x2111
 2898 01bd 0A       		.uleb128 0xa
 2899 01be 00       		.byte	0
 2900 01bf 00       		.byte	0
 2901 01c0 25       		.uleb128 0x25
 2902 01c1 898201   		.uleb128 0x4109
 2903 01c4 01       		.byte	0x1
 2904 01c5 11       		.uleb128 0x11
 2905 01c6 01       		.uleb128 0x1
 2906 01c7 31       		.uleb128 0x31
 2907 01c8 13       		.uleb128 0x13
 2908 01c9 01       		.uleb128 0x1
 2909 01ca 13       		.uleb128 0x13
 2910 01cb 00       		.byte	0
 2911 01cc 00       		.byte	0
 2912 01cd 26       		.uleb128 0x26
 2913 01ce 898201   		.uleb128 0x4109
 2914 01d1 00       		.byte	0
 2915 01d2 11       		.uleb128 0x11
 2916 01d3 01       		.uleb128 0x1
 2917 01d4 31       		.uleb128 0x31
 2918 01d5 13       		.uleb128 0x13
 2919 01d6 00       		.byte	0
 2920 01d7 00       		.byte	0
 2921 01d8 27       		.uleb128 0x27
 2922 01d9 2E       		.uleb128 0x2e
 2923 01da 01       		.byte	0x1
 2924 01db 3F       		.uleb128 0x3f
ARM GAS  C:\Users\Diogo\AppData\Local\Temp\ccz982d4.s 			page 57


 2925 01dc 0C       		.uleb128 0xc
 2926 01dd 03       		.uleb128 0x3
 2927 01de 0E       		.uleb128 0xe
 2928 01df 3A       		.uleb128 0x3a
 2929 01e0 0B       		.uleb128 0xb
 2930 01e1 3B       		.uleb128 0x3b
 2931 01e2 0B       		.uleb128 0xb
 2932 01e3 27       		.uleb128 0x27
 2933 01e4 0C       		.uleb128 0xc
 2934 01e5 11       		.uleb128 0x11
 2935 01e6 01       		.uleb128 0x1
 2936 01e7 12       		.uleb128 0x12
 2937 01e8 01       		.uleb128 0x1
 2938 01e9 40       		.uleb128 0x40
 2939 01ea 06       		.uleb128 0x6
 2940 01eb 9742     		.uleb128 0x2117
 2941 01ed 0C       		.uleb128 0xc
 2942 01ee 01       		.uleb128 0x1
 2943 01ef 13       		.uleb128 0x13
 2944 01f0 00       		.byte	0
 2945 01f1 00       		.byte	0
 2946 01f2 28       		.uleb128 0x28
 2947 01f3 34       		.uleb128 0x34
 2948 01f4 00       		.byte	0
 2949 01f5 03       		.uleb128 0x3
 2950 01f6 08       		.uleb128 0x8
 2951 01f7 3A       		.uleb128 0x3a
 2952 01f8 0B       		.uleb128 0xb
 2953 01f9 3B       		.uleb128 0x3b
 2954 01fa 0B       		.uleb128 0xb
 2955 01fb 49       		.uleb128 0x49
 2956 01fc 13       		.uleb128 0x13
 2957 01fd 02       		.uleb128 0x2
 2958 01fe 06       		.uleb128 0x6
 2959 01ff 00       		.byte	0
 2960 0200 00       		.byte	0
 2961 0201 29       		.uleb128 0x29
 2962 0202 898201   		.uleb128 0x4109
 2963 0205 01       		.byte	0x1
 2964 0206 11       		.uleb128 0x11
 2965 0207 01       		.uleb128 0x1
 2966 0208 31       		.uleb128 0x31
 2967 0209 13       		.uleb128 0x13
 2968 020a 00       		.byte	0
 2969 020b 00       		.byte	0
 2970 020c 2A       		.uleb128 0x2a
 2971 020d 34       		.uleb128 0x34
 2972 020e 00       		.byte	0
 2973 020f 03       		.uleb128 0x3
 2974 0210 08       		.uleb128 0x8
 2975 0211 3A       		.uleb128 0x3a
 2976 0212 0B       		.uleb128 0xb
 2977 0213 3B       		.uleb128 0x3b
 2978 0214 0B       		.uleb128 0xb
 2979 0215 49       		.uleb128 0x49
 2980 0216 13       		.uleb128 0x13
 2981 0217 02       		.uleb128 0x2
ARM GAS  C:\Users\Diogo\AppData\Local\Temp\ccz982d4.s 			page 58


 2982 0218 0A       		.uleb128 0xa
 2983 0219 00       		.byte	0
 2984 021a 00       		.byte	0
 2985 021b 2B       		.uleb128 0x2b
 2986 021c 05       		.uleb128 0x5
 2987 021d 00       		.byte	0
 2988 021e 03       		.uleb128 0x3
 2989 021f 0E       		.uleb128 0xe
 2990 0220 3A       		.uleb128 0x3a
 2991 0221 0B       		.uleb128 0xb
 2992 0222 3B       		.uleb128 0x3b
 2993 0223 0B       		.uleb128 0xb
 2994 0224 49       		.uleb128 0x49
 2995 0225 13       		.uleb128 0x13
 2996 0226 02       		.uleb128 0x2
 2997 0227 06       		.uleb128 0x6
 2998 0228 00       		.byte	0
 2999 0229 00       		.byte	0
 3000 022a 2C       		.uleb128 0x2c
 3001 022b 05       		.uleb128 0x5
 3002 022c 00       		.byte	0
 3003 022d 03       		.uleb128 0x3
 3004 022e 08       		.uleb128 0x8
 3005 022f 3A       		.uleb128 0x3a
 3006 0230 0B       		.uleb128 0xb
 3007 0231 3B       		.uleb128 0x3b
 3008 0232 0B       		.uleb128 0xb
 3009 0233 49       		.uleb128 0x49
 3010 0234 13       		.uleb128 0x13
 3011 0235 02       		.uleb128 0x2
 3012 0236 06       		.uleb128 0x6
 3013 0237 00       		.byte	0
 3014 0238 00       		.byte	0
 3015 0239 2D       		.uleb128 0x2d
 3016 023a 2E       		.uleb128 0x2e
 3017 023b 00       		.byte	0
 3018 023c 3F       		.uleb128 0x3f
 3019 023d 0C       		.uleb128 0xc
 3020 023e 3C       		.uleb128 0x3c
 3021 023f 0C       		.uleb128 0xc
 3022 0240 8740     		.uleb128 0x2007
 3023 0242 0E       		.uleb128 0xe
 3024 0243 03       		.uleb128 0x3
 3025 0244 0E       		.uleb128 0xe
 3026 0245 3A       		.uleb128 0x3a
 3027 0246 0B       		.uleb128 0xb
 3028 0247 3B       		.uleb128 0x3b
 3029 0248 0B       		.uleb128 0xb
 3030 0249 00       		.byte	0
 3031 024a 00       		.byte	0
 3032 024b 2E       		.uleb128 0x2e
 3033 024c 2E       		.uleb128 0x2e
 3034 024d 00       		.byte	0
 3035 024e 3F       		.uleb128 0x3f
 3036 024f 0C       		.uleb128 0xc
 3037 0250 3C       		.uleb128 0x3c
 3038 0251 0C       		.uleb128 0xc
ARM GAS  C:\Users\Diogo\AppData\Local\Temp\ccz982d4.s 			page 59


 3039 0252 8740     		.uleb128 0x2007
 3040 0254 0E       		.uleb128 0xe
 3041 0255 03       		.uleb128 0x3
 3042 0256 0E       		.uleb128 0xe
 3043 0257 3A       		.uleb128 0x3a
 3044 0258 0B       		.uleb128 0xb
 3045 0259 3B       		.uleb128 0x3b
 3046 025a 05       		.uleb128 0x5
 3047 025b 00       		.byte	0
 3048 025c 00       		.byte	0
 3049 025d 2F       		.uleb128 0x2f
 3050 025e 2E       		.uleb128 0x2e
 3051 025f 00       		.byte	0
 3052 0260 3F       		.uleb128 0x3f
 3053 0261 0C       		.uleb128 0xc
 3054 0262 3C       		.uleb128 0x3c
 3055 0263 0C       		.uleb128 0xc
 3056 0264 8740     		.uleb128 0x2007
 3057 0266 0E       		.uleb128 0xe
 3058 0267 03       		.uleb128 0x3
 3059 0268 0E       		.uleb128 0xe
 3060 0269 3A       		.uleb128 0x3a
 3061 026a 0B       		.uleb128 0xb
 3062 026b 3B       		.uleb128 0x3b
 3063 026c 0B       		.uleb128 0xb
 3064 026d 8740     		.uleb128 0x2007
 3065 026f 0E       		.uleb128 0xe
 3066 0270 00       		.byte	0
 3067 0271 00       		.byte	0
 3068 0272 00       		.byte	0
 3069              		.section	.debug_loc,"",%progbits
 3070              	.Ldebug_loc0:
 3071              	.LLST9:
 3072 0000 00010000 		.4byte	.LFB8-.Ltext0
 3073 0004 02010000 		.4byte	.LCFI5-.Ltext0
 3074 0008 0200     		.2byte	0x2
 3075 000a 7D       		.byte	0x7d
 3076 000b 00       		.sleb128 0
 3077 000c 02010000 		.4byte	.LCFI5-.Ltext0
 3078 0010 D0010000 		.4byte	.LFE8-.Ltext0
 3079 0014 0200     		.2byte	0x2
 3080 0016 7D       		.byte	0x7d
 3081 0017 10       		.sleb128 16
 3082 0018 00000000 		.4byte	0
 3083 001c 00000000 		.4byte	0
 3084              	.LLST7:
 3085 0020 B8000000 		.4byte	.LFB7-.Ltext0
 3086 0024 BC000000 		.4byte	.LCFI4-.Ltext0
 3087 0028 0200     		.2byte	0x2
 3088 002a 7D       		.byte	0x7d
 3089 002b 00       		.sleb128 0
 3090 002c BC000000 		.4byte	.LCFI4-.Ltext0
 3091 0030 00010000 		.4byte	.LFE7-.Ltext0
 3092 0034 0200     		.2byte	0x2
 3093 0036 7D       		.byte	0x7d
 3094 0037 18       		.sleb128 24
 3095 0038 00000000 		.4byte	0
ARM GAS  C:\Users\Diogo\AppData\Local\Temp\ccz982d4.s 			page 60


 3096 003c 00000000 		.4byte	0
 3097              	.LLST8:
 3098 0040 C2000000 		.4byte	.LVL18-.Ltext0
 3099 0044 CE000000 		.4byte	.LVL19-.Ltext0
 3100 0048 0200     		.2byte	0x2
 3101 004a 30       		.byte	0x30
 3102 004b 9F       		.byte	0x9f
 3103 004c CE000000 		.4byte	.LVL19-.Ltext0
 3104 0050 EE000000 		.4byte	.LVL23-.Ltext0
 3105 0054 0100     		.2byte	0x1
 3106 0056 54       		.byte	0x54
 3107 0057 00000000 		.4byte	0
 3108 005b 00000000 		.4byte	0
 3109              	.LLST6:
 3110 005f AC000000 		.4byte	.LFB6-.Ltext0
 3111 0063 AE000000 		.4byte	.LCFI3-.Ltext0
 3112 0067 0200     		.2byte	0x2
 3113 0069 7D       		.byte	0x7d
 3114 006a 00       		.sleb128 0
 3115 006b AE000000 		.4byte	.LCFI3-.Ltext0
 3116 006f B8000000 		.4byte	.LFE6-.Ltext0
 3117 0073 0200     		.2byte	0x2
 3118 0075 7D       		.byte	0x7d
 3119 0076 08       		.sleb128 8
 3120 0077 00000000 		.4byte	0
 3121 007b 00000000 		.4byte	0
 3122              	.LLST5:
 3123 007f 4C000000 		.4byte	.LFB5-.Ltext0
 3124 0083 4E000000 		.4byte	.LCFI2-.Ltext0
 3125 0087 0200     		.2byte	0x2
 3126 0089 7D       		.byte	0x7d
 3127 008a 00       		.sleb128 0
 3128 008b 4E000000 		.4byte	.LCFI2-.Ltext0
 3129 008f AC000000 		.4byte	.LFE5-.Ltext0
 3130 0093 0200     		.2byte	0x2
 3131 0095 7D       		.byte	0x7d
 3132 0096 08       		.sleb128 8
 3133 0097 00000000 		.4byte	0
 3134 009b 00000000 		.4byte	0
 3135              	.LLST2:
 3136 009f 38000000 		.4byte	.LFB4-.Ltext0
 3137 00a3 3A000000 		.4byte	.LCFI1-.Ltext0
 3138 00a7 0200     		.2byte	0x2
 3139 00a9 7D       		.byte	0x7d
 3140 00aa 00       		.sleb128 0
 3141 00ab 3A000000 		.4byte	.LCFI1-.Ltext0
 3142 00af 4C000000 		.4byte	.LFE4-.Ltext0
 3143 00b3 0200     		.2byte	0x2
 3144 00b5 7D       		.byte	0x7d
 3145 00b6 08       		.sleb128 8
 3146 00b7 00000000 		.4byte	0
 3147 00bb 00000000 		.4byte	0
 3148              	.LLST3:
 3149 00bf 38000000 		.4byte	.LVL6-.Ltext0
 3150 00c3 40000000 		.4byte	.LVL8-.Ltext0
 3151 00c7 0100     		.2byte	0x1
 3152 00c9 50       		.byte	0x50
ARM GAS  C:\Users\Diogo\AppData\Local\Temp\ccz982d4.s 			page 61


 3153 00ca 40000000 		.4byte	.LVL8-.Ltext0
 3154 00ce 43000000 		.4byte	.LVL9-1-.Ltext0
 3155 00d2 0100     		.2byte	0x1
 3156 00d4 51       		.byte	0x51
 3157 00d5 43000000 		.4byte	.LVL9-1-.Ltext0
 3158 00d9 4C000000 		.4byte	.LFE4-.Ltext0
 3159 00dd 0400     		.2byte	0x4
 3160 00df F3       		.byte	0xf3
 3161 00e0 01       		.uleb128 0x1
 3162 00e1 50       		.byte	0x50
 3163 00e2 9F       		.byte	0x9f
 3164 00e3 00000000 		.4byte	0
 3165 00e7 00000000 		.4byte	0
 3166              	.LLST4:
 3167 00eb 38000000 		.4byte	.LVL6-.Ltext0
 3168 00ef 3E000000 		.4byte	.LVL7-.Ltext0
 3169 00f3 0100     		.2byte	0x1
 3170 00f5 51       		.byte	0x51
 3171 00f6 3E000000 		.4byte	.LVL7-.Ltext0
 3172 00fa 43000000 		.4byte	.LVL9-1-.Ltext0
 3173 00fe 0100     		.2byte	0x1
 3174 0100 52       		.byte	0x52
 3175 0101 43000000 		.4byte	.LVL9-1-.Ltext0
 3176 0105 4C000000 		.4byte	.LFE4-.Ltext0
 3177 0109 0400     		.2byte	0x4
 3178 010b F3       		.byte	0xf3
 3179 010c 01       		.uleb128 0x1
 3180 010d 51       		.byte	0x51
 3181 010e 9F       		.byte	0x9f
 3182 010f 00000000 		.4byte	0
 3183 0113 00000000 		.4byte	0
 3184              	.LLST0:
 3185 0117 00000000 		.4byte	.LFB3-.Ltext0
 3186 011b 02000000 		.4byte	.LCFI0-.Ltext0
 3187 011f 0200     		.2byte	0x2
 3188 0121 7D       		.byte	0x7d
 3189 0122 00       		.sleb128 0
 3190 0123 02000000 		.4byte	.LCFI0-.Ltext0
 3191 0127 38000000 		.4byte	.LFE3-.Ltext0
 3192 012b 0200     		.2byte	0x2
 3193 012d 7D       		.byte	0x7d
 3194 012e 08       		.sleb128 8
 3195 012f 00000000 		.4byte	0
 3196 0133 00000000 		.4byte	0
 3197              	.LLST1:
 3198 0137 00000000 		.4byte	.LVL0-.Ltext0
 3199 013b 05000000 		.4byte	.LVL1-1-.Ltext0
 3200 013f 0100     		.2byte	0x1
 3201 0141 50       		.byte	0x50
 3202 0142 05000000 		.4byte	.LVL1-1-.Ltext0
 3203 0146 38000000 		.4byte	.LFE3-.Ltext0
 3204 014a 0400     		.2byte	0x4
 3205 014c F3       		.byte	0xf3
 3206 014d 01       		.uleb128 0x1
 3207 014e 50       		.byte	0x50
 3208 014f 9F       		.byte	0x9f
 3209 0150 00000000 		.4byte	0
ARM GAS  C:\Users\Diogo\AppData\Local\Temp\ccz982d4.s 			page 62


 3210 0154 00000000 		.4byte	0
 3211              		.section	.debug_aranges,"",%progbits
 3212 0000 1C000000 		.4byte	0x1c
 3213 0004 0200     		.2byte	0x2
 3214 0006 00000000 		.4byte	.Ldebug_info0
 3215 000a 04       		.byte	0x4
 3216 000b 00       		.byte	0
 3217 000c 0000     		.2byte	0
 3218 000e 0000     		.2byte	0
 3219 0010 00000000 		.4byte	.Ltext0
 3220 0014 D0010000 		.4byte	.Letext0-.Ltext0
 3221 0018 00000000 		.4byte	0
 3222 001c 00000000 		.4byte	0
 3223              		.section	.debug_line,"",%progbits
 3224              	.Ldebug_line0:
 3225 0000 C4020000 		.section	.debug_str,"MS",%progbits,1
 3225      02006802 
 3225      00000201 
 3225      FB0E0D00 
 3225      01010101 
 3226              	.LASF44:
 3227 0000 5F64736F 		.ascii	"_dso_handle\000"
 3227      5F68616E 
 3227      646C6500 
 3228              	.LASF148:
 3229 000c 6D616C6C 		.ascii	"malloc\000"
 3229      6F6300
 3230              	.LASF52:
 3231 0013 5F73697A 		.ascii	"_size\000"
 3231      6500
 3232              	.LASF97:
 3233 0019 5F72616E 		.ascii	"_rand48\000"
 3233      64343800 
 3234              	.LASF76:
 3235 0021 5F656D65 		.ascii	"_emergency\000"
 3235      7267656E 
 3235      637900
 3236              	.LASF138:
 3237 002c 5F5F6572 		.ascii	"__error__\000"
 3237      726F725F 
 3237      5F00
 3238              	.LASF66:
 3239 0036 5F646174 		.ascii	"_data\000"
 3239      6100
 3240              	.LASF117:
 3241 003c 5F776372 		.ascii	"_wcrtomb_state\000"
 3241      746F6D62 
 3241      5F737461 
 3241      746500
 3242              	.LASF118:
 3243 004b 5F776373 		.ascii	"_wcsrtombs_state\000"
 3243      72746F6D 
 3243      62735F73 
 3243      74617465 
 3243      00
 3244              	.LASF7:
 3245 005c 6C6F6E67 		.ascii	"long long unsigned int\000"
ARM GAS  C:\Users\Diogo\AppData\Local\Temp\ccz982d4.s 			page 63


 3245      206C6F6E 
 3245      6720756E 
 3245      7369676E 
 3245      65642069 
 3246              	.LASF56:
 3247 0073 5F6C6266 		.ascii	"_lbfsize\000"
 3247      73697A65 
 3247      00
 3248              	.LASF124:
 3249 007c 5F5F6C6F 		.ascii	"__locale_t\000"
 3249      63616C65 
 3249      5F7400
 3250              	.LASF115:
 3251 0087 5F6D6272 		.ascii	"_mbrtowc_state\000"
 3251      746F7763 
 3251      5F737461 
 3251      746500
 3252              	.LASF142:
 3253 0096 50696E6F 		.ascii	"PinoutSet\000"
 3253      75745365 
 3253      7400
 3254              	.LASF33:
 3255 00a0 5F5F746D 		.ascii	"__tm_sec\000"
 3255      5F736563 
 3255      00
 3256              	.LASF145:
 3257 00a9 53797343 		.ascii	"SysCtlDelay\000"
 3257      746C4465 
 3257      6C617900 
 3258              	.LASF6:
 3259 00b5 6C6F6E67 		.ascii	"long long int\000"
 3259      206C6F6E 
 3259      6720696E 
 3259      7400
 3260              	.LASF0:
 3261 00c3 7369676E 		.ascii	"signed char\000"
 3261      65642063 
 3261      68617200 
 3262              	.LASF62:
 3263 00cf 5F756275 		.ascii	"_ubuf\000"
 3263      6600
 3264              	.LASF51:
 3265 00d5 5F626173 		.ascii	"_base\000"
 3265      6500
 3266              	.LASF35:
 3267 00db 5F5F746D 		.ascii	"__tm_hour\000"
 3267      5F686F75 
 3267      7200
 3268              	.LASF91:
 3269 00e5 5F5F7366 		.ascii	"__sf\000"
 3269      00
 3270              	.LASF42:
 3271 00ea 5F6F6E5F 		.ascii	"_on_exit_args\000"
 3271      65786974 
 3271      5F617267 
 3271      7300
 3272              	.LASF57:
ARM GAS  C:\Users\Diogo\AppData\Local\Temp\ccz982d4.s 			page 64


 3273 00f8 5F636F6F 		.ascii	"_cookie\000"
 3273      6B696500 
 3274              	.LASF90:
 3275 0100 5F5F7367 		.ascii	"__sglue\000"
 3275      6C756500 
 3276              	.LASF4:
 3277 0108 6C6F6E67 		.ascii	"long int\000"
 3277      20696E74 
 3277      00
 3278              	.LASF135:
 3279 0111 63726561 		.ascii	"createThreadStack\000"
 3279      74655468 
 3279      72656164 
 3279      53746163 
 3279      6B00
 3280              	.LASF13:
 3281 0123 41747472 		.ascii	"Attributes\000"
 3281      69627574 
 3281      657300
 3282              	.LASF46:
 3283 012e 5F69735F 		.ascii	"_is_cxa\000"
 3283      63786100 
 3284              	.LASF72:
 3285 0136 5F737464 		.ascii	"_stdin\000"
 3285      696E00
 3286              	.LASF146:
 3287 013d 73746172 		.ascii	"startSwitcher\000"
 3287      74537769 
 3287      74636865 
 3287      7200
 3288              	.LASF155:
 3289 014b 5F5F6275 		.ascii	"__builtin_puts\000"
 3289      696C7469 
 3289      6E5F7075 
 3289      747300
 3290              	.LASF64:
 3291 015a 5F626C6B 		.ascii	"_blksize\000"
 3291      73697A65 
 3291      00
 3292              	.LASF11:
 3293 0163 54687265 		.ascii	"ThreadStack\000"
 3293      61645374 
 3293      61636B00 
 3294              	.LASF65:
 3295 016f 5F6F6666 		.ascii	"_offset\000"
 3295      73657400 
 3296              	.LASF116:
 3297 0177 5F6D6273 		.ascii	"_mbsrtowcs_state\000"
 3297      72746F77 
 3297      63735F73 
 3297      74617465 
 3297      00
 3298              	.LASF114:
 3299 0188 5F6D6272 		.ascii	"_mbrlen_state\000"
 3299      6C656E5F 
 3299      73746174 
 3299      6500
ARM GAS  C:\Users\Diogo\AppData\Local\Temp\ccz982d4.s 			page 65


 3300              	.LASF147:
 3301 0196 63726561 		.ascii	"createThread\000"
 3301      74655468 
 3301      72656164 
 3301      00
 3302              	.LASF43:
 3303 01a3 5F666E61 		.ascii	"_fnargs\000"
 3303      72677300 
 3304              	.LASF143:
 3305 01ab 55415254 		.ascii	"UARTprintf\000"
 3305      7072696E 
 3305      746600
 3306              	.LASF49:
 3307 01b6 5F666E73 		.ascii	"_fns\000"
 3307      00
 3308              	.LASF9:
 3309 01bb 5F5F7569 		.ascii	"__uint32_t\000"
 3309      6E743332 
 3309      5F7400
 3310              	.LASF30:
 3311 01c6 5F736967 		.ascii	"_sign\000"
 3311      6E00
 3312              	.LASF25:
 3313 01cc 5F666C6F 		.ascii	"_flock_t\000"
 3313      636B5F74 
 3313      00
 3314              	.LASF74:
 3315 01d5 5F737464 		.ascii	"_stderr\000"
 3315      65727200 
 3316              	.LASF27:
 3317 01dd 5F426967 		.ascii	"_Bigint\000"
 3317      696E7400 
 3318              	.LASF105:
 3319 01e5 5F67616D 		.ascii	"_gamma_signgam\000"
 3319      6D615F73 
 3319      69676E67 
 3319      616D00
 3320              	.LASF58:
 3321 01f4 5F726561 		.ascii	"_read\000"
 3321      6400
 3322              	.LASF82:
 3323 01fa 5F726573 		.ascii	"_result_k\000"
 3323      756C745F 
 3323      6B00
 3324              	.LASF152:
 3325 0204 68656C6C 		.ascii	"hello.c\000"
 3325      6F2E6300 
 3326              	.LASF32:
 3327 020c 5F5F746D 		.ascii	"__tm\000"
 3327      00
 3328              	.LASF8:
 3329 0211 756E7369 		.ascii	"unsigned int\000"
 3329      676E6564 
 3329      20696E74 
 3329      00
 3330              	.LASF21:
 3331 021e 5F5F7763 		.ascii	"__wchb\000"
ARM GAS  C:\Users\Diogo\AppData\Local\Temp\ccz982d4.s 			page 66


 3331      686200
 3332              	.LASF73:
 3333 0225 5F737464 		.ascii	"_stdout\000"
 3333      6F757400 
 3334              	.LASF85:
 3335 022d 5F637674 		.ascii	"_cvtlen\000"
 3335      6C656E00 
 3336              	.LASF5:
 3337 0235 6C6F6E67 		.ascii	"long unsigned int\000"
 3337      20756E73 
 3337      69676E65 
 3337      6420696E 
 3337      7400
 3338              	.LASF55:
 3339 0247 5F66696C 		.ascii	"_file\000"
 3339      6500
 3340              	.LASF14:
 3341 024d 54687265 		.ascii	"ThreadControlBlock\000"
 3341      6164436F 
 3341      6E74726F 
 3341      6C426C6F 
 3341      636B00
 3342              	.LASF133:
 3343 0260 675F7569 		.ascii	"g_ui32SysClock\000"
 3343      33325379 
 3343      73436C6F 
 3343      636B00
 3344              	.LASF95:
 3345 026f 5F6E696F 		.ascii	"_niobs\000"
 3345      627300
 3346              	.LASF3:
 3347 0276 73686F72 		.ascii	"short unsigned int\000"
 3347      7420756E 
 3347      7369676E 
 3347      65642069 
 3347      6E7400
 3348              	.LASF88:
 3349 0289 5F617465 		.ascii	"_atexit0\000"
 3349      78697430 
 3349      00
 3350              	.LASF112:
 3351 0292 5F736967 		.ascii	"_signal_buf\000"
 3351      6E616C5F 
 3351      62756600 
 3352              	.LASF103:
 3353 029e 5F617363 		.ascii	"_asctime_buf\000"
 3353      74696D65 
 3353      5F627566 
 3353      00
 3354              	.LASF81:
 3355 02ab 5F726573 		.ascii	"_result\000"
 3355      756C7400 
 3356              	.LASF20:
 3357 02b3 5F5F7763 		.ascii	"__wch\000"
 3357      6800
 3358              	.LASF128:
 3359 02b9 61637469 		.ascii	"activeThread\000"
ARM GAS  C:\Users\Diogo\AppData\Local\Temp\ccz982d4.s 			page 67


 3359      76655468 
 3359      72656164 
 3359      00
 3360              	.LASF16:
 3361 02c6 5F4C4F43 		.ascii	"_LOCK_T\000"
 3361      4B5F5400 
 3362              	.LASF19:
 3363 02ce 77696E74 		.ascii	"wint_t\000"
 3363      5F7400
 3364              	.LASF67:
 3365 02d5 5F6C6F63 		.ascii	"_lock\000"
 3365      6B00
 3366              	.LASF132:
 3367 02db 54687265 		.ascii	"ThreadStacks\000"
 3367      61645374 
 3367      61636B73 
 3367      00
 3368              	.LASF69:
 3369 02e8 5F666C61 		.ascii	"_flags2\000"
 3369      67733200 
 3370              	.LASF136:
 3371 02f0 696E6974 		.ascii	"initThreads\000"
 3371      54687265 
 3371      61647300 
 3372              	.LASF59:
 3373 02fc 5F777269 		.ascii	"_write\000"
 3373      746500
 3374              	.LASF38:
 3375 0303 5F5F746D 		.ascii	"__tm_year\000"
 3375      5F796561 
 3375      7200
 3376              	.LASF151:
 3377 030d 474E5520 		.ascii	"GNU C11 7.3.1 20180622 (release) [ARM/embedded-7-br"
 3377      43313120 
 3377      372E332E 
 3377      31203230 
 3377      31383036 
 3378 0340 616E6368 		.ascii	"anch revision 261907] -mcpu=cortex-m4 -mthumb -mapc"
 3378      20726576 
 3378      6973696F 
 3378      6E203236 
 3378      31393037 
 3379 0373 732D6672 		.ascii	"s-frame -mthumb-interwork -gdwarf-2 -O\000"
 3379      616D6520 
 3379      2D6D7468 
 3379      756D622D 
 3379      696E7465 
 3380              	.LASF154:
 3381 039a 70757473 		.ascii	"puts\000"
 3381      00
 3382              	.LASF129:
 3383 039f 54687265 		.ascii	"Thread1Stack\000"
 3383      61643153 
 3383      7461636B 
 3383      00
 3384              	.LASF141:
 3385 03ac 426F6479 		.ascii	"BodyTask\000"
ARM GAS  C:\Users\Diogo\AppData\Local\Temp\ccz982d4.s 			page 68


 3385      5461736B 
 3385      00
 3386              	.LASF15:
 3387 03b5 6C6F6E67 		.ascii	"long double\000"
 3387      20646F75 
 3387      626C6500 
 3388              	.LASF120:
 3389 03c1 5F6E6578 		.ascii	"_nextf\000"
 3389      746600
 3390              	.LASF37:
 3391 03c8 5F5F746D 		.ascii	"__tm_mon\000"
 3391      5F6D6F6E 
 3391      00
 3392              	.LASF140:
 3393 03d1 75693332 		.ascii	"ui32Line\000"
 3393      4C696E65 
 3393      00
 3394              	.LASF47:
 3395 03da 5F617465 		.ascii	"_atexit\000"
 3395      78697400 
 3396              	.LASF127:
 3397 03e2 7375626F 		.ascii	"suboptarg\000"
 3397      70746172 
 3397      6700
 3398              	.LASF79:
 3399 03ec 5F5F7364 		.ascii	"__sdidinit\000"
 3399      6964696E 
 3399      697400
 3400              	.LASF17:
 3401 03f7 5F6F6666 		.ascii	"_off_t\000"
 3401      5F7400
 3402              	.LASF150:
 3403 03fe 67657443 		.ascii	"getCurrentThread\000"
 3403      75727265 
 3403      6E745468 
 3403      72656164 
 3403      00
 3404              	.LASF84:
 3405 040f 5F667265 		.ascii	"_freelist\000"
 3405      656C6973 
 3405      7400
 3406              	.LASF110:
 3407 0419 5F776374 		.ascii	"_wctomb_state\000"
 3407      6F6D625F 
 3407      73746174 
 3407      6500
 3408              	.LASF86:
 3409 0427 5F637674 		.ascii	"_cvtbuf\000"
 3409      62756600 
 3410              	.LASF1:
 3411 042f 756E7369 		.ascii	"unsigned char\000"
 3411      676E6564 
 3411      20636861 
 3411      7200
 3412              	.LASF87:
 3413 043d 5F6E6577 		.ascii	"_new\000"
 3413      00
ARM GAS  C:\Users\Diogo\AppData\Local\Temp\ccz982d4.s 			page 69


 3414              	.LASF119:
 3415 0442 5F685F65 		.ascii	"_h_errno\000"
 3415      72726E6F 
 3415      00
 3416              	.LASF2:
 3417 044b 73686F72 		.ascii	"short int\000"
 3417      7420696E 
 3417      7400
 3418              	.LASF40:
 3419 0455 5F5F746D 		.ascii	"__tm_yday\000"
 3419      5F796461 
 3419      7900
 3420              	.LASF50:
 3421 045f 5F5F7362 		.ascii	"__sbuf\000"
 3421      756600
 3422              	.LASF96:
 3423 0466 5F696F62 		.ascii	"_iobs\000"
 3423      7300
 3424              	.LASF93:
 3425 046c 5F5F4649 		.ascii	"__FILE\000"
 3425      4C4500
 3426              	.LASF24:
 3427 0473 5F6D6273 		.ascii	"_mbstate_t\000"
 3427      74617465 
 3427      5F7400
 3428              	.LASF53:
 3429 047e 5F5F7346 		.ascii	"__sFILE\000"
 3429      494C4500 
 3430              	.LASF68:
 3431 0486 5F6D6273 		.ascii	"_mbstate\000"
 3431      74617465 
 3431      00
 3432              	.LASF106:
 3433 048f 5F72616E 		.ascii	"_rand_next\000"
 3433      645F6E65 
 3433      787400
 3434              	.LASF108:
 3435 049a 5F6D626C 		.ascii	"_mblen_state\000"
 3435      656E5F73 
 3435      74617465 
 3435      00
 3436              	.LASF75:
 3437 04a7 5F696E63 		.ascii	"_inc\000"
 3437      00
 3438              	.LASF48:
 3439 04ac 5F696E64 		.ascii	"_ind\000"
 3439      00
 3440              	.LASF78:
 3441 04b1 5F6C6F63 		.ascii	"_locale\000"
 3441      616C6500 
 3442              	.LASF80:
 3443 04b9 5F5F636C 		.ascii	"__cleanup\000"
 3443      65616E75 
 3443      7000
 3444              	.LASF77:
 3445 04c3 5F756E73 		.ascii	"_unspecified_locale_info\000"
 3445      70656369 
ARM GAS  C:\Users\Diogo\AppData\Local\Temp\ccz982d4.s 			page 70


 3445      66696564 
 3445      5F6C6F63 
 3445      616C655F 
 3446              	.LASF29:
 3447 04dc 5F6D6178 		.ascii	"_maxwds\000"
 3447      77647300 
 3448              	.LASF70:
 3449 04e4 5F726565 		.ascii	"_reent\000"
 3449      6E7400
 3450              	.LASF98:
 3451 04eb 5F736565 		.ascii	"_seed\000"
 3451      6400
 3452              	.LASF22:
 3453 04f1 5F5F636F 		.ascii	"__count\000"
 3453      756E7400 
 3454              	.LASF123:
 3455 04f9 5F5F6C6F 		.ascii	"__lock\000"
 3455      636B00
 3456              	.LASF10:
 3457 0500 75696E74 		.ascii	"uint32_t\000"
 3457      33325F74 
 3457      00
 3458              	.LASF60:
 3459 0509 5F736565 		.ascii	"_seek\000"
 3459      6B00
 3460              	.LASF125:
 3461 050f 5F696D70 		.ascii	"_impure_ptr\000"
 3461      7572655F 
 3461      70747200 
 3462              	.LASF18:
 3463 051b 5F66706F 		.ascii	"_fpos_t\000"
 3463      735F7400 
 3464              	.LASF71:
 3465 0523 5F657272 		.ascii	"_errno\000"
 3465      6E6F00
 3466              	.LASF92:
 3467 052a 63686172 		.ascii	"char\000"
 3467      00
 3468              	.LASF34:
 3469 052f 5F5F746D 		.ascii	"__tm_min\000"
 3469      5F6D696E 
 3469      00
 3470              	.LASF144:
 3471 0538 4C454457 		.ascii	"LEDWrite\000"
 3471      72697465 
 3471      00
 3472              	.LASF99:
 3473 0541 5F6D756C 		.ascii	"_mult\000"
 3473      7400
 3474              	.LASF28:
 3475 0547 5F6E6578 		.ascii	"_next\000"
 3475      7400
 3476              	.LASF139:
 3477 054d 70634669 		.ascii	"pcFilename\000"
 3477      6C656E61 
 3477      6D6500
 3478              	.LASF102:
ARM GAS  C:\Users\Diogo\AppData\Local\Temp\ccz982d4.s 			page 71


 3479 0558 5F737472 		.ascii	"_strtok_last\000"
 3479      746F6B5F 
 3479      6C617374 
 3479      00
 3480              	.LASF131:
 3481 0565 7461736B 		.ascii	"task\000"
 3481      00
 3482              	.LASF23:
 3483 056a 5F5F7661 		.ascii	"__value\000"
 3483      6C756500 
 3484              	.LASF45:
 3485 0572 5F666E74 		.ascii	"_fntypes\000"
 3485      79706573 
 3485      00
 3486              	.LASF100:
 3487 057b 5F616464 		.ascii	"_add\000"
 3487      00
 3488              	.LASF26:
 3489 0580 5F5F554C 		.ascii	"__ULong\000"
 3489      6F6E6700 
 3490              	.LASF113:
 3491 0588 5F676574 		.ascii	"_getdate_err\000"
 3491      64617465 
 3491      5F657272 
 3491      00
 3492              	.LASF130:
 3493 0595 54687265 		.ascii	"Thread2Stack\000"
 3493      61643253 
 3493      7461636B 
 3493      00
 3494              	.LASF126:
 3495 05a2 5F676C6F 		.ascii	"_global_impure_ptr\000"
 3495      62616C5F 
 3495      696D7075 
 3495      72655F70 
 3495      747200
 3496              	.LASF101:
 3497 05b5 5F756E75 		.ascii	"_unused_rand\000"
 3497      7365645F 
 3497      72616E64 
 3497      00
 3498              	.LASF153:
 3499 05c2 443A5C55 		.ascii	"D:\\UTFPR\\SISTEMAS OPERACIONAIS\\SO-threads\000"
 3499      54465052 
 3499      5C534953 
 3499      54454D41 
 3499      53204F50 
 3500              	.LASF31:
 3501 05ec 5F776473 		.ascii	"_wds\000"
 3501      00
 3502              	.LASF39:
 3503 05f1 5F5F746D 		.ascii	"__tm_wday\000"
 3503      5F776461 
 3503      7900
 3504              	.LASF94:
 3505 05fb 5F676C75 		.ascii	"_glue\000"
 3505      6500
ARM GAS  C:\Users\Diogo\AppData\Local\Temp\ccz982d4.s 			page 72


 3506              	.LASF149:
 3507 0601 55415254 		.ascii	"UARTStdioConfig\000"
 3507      53746469 
 3507      6F436F6E 
 3507      66696700 
 3508              	.LASF54:
 3509 0611 5F666C61 		.ascii	"_flags\000"
 3509      677300
 3510              	.LASF121:
 3511 0618 5F6E6D61 		.ascii	"_nmalloc\000"
 3511      6C6C6F63 
 3511      00
 3512              	.LASF111:
 3513 0621 5F6C3634 		.ascii	"_l64a_buf\000"
 3513      615F6275 
 3513      6600
 3514              	.LASF89:
 3515 062b 5F736967 		.ascii	"_sig_func\000"
 3515      5F66756E 
 3515      6300
 3516              	.LASF137:
 3517 0635 436F6E66 		.ascii	"ConfigureUART\000"
 3517      69677572 
 3517      65554152 
 3517      5400
 3518              	.LASF63:
 3519 0643 5F6E6275 		.ascii	"_nbuf\000"
 3519      6600
 3520              	.LASF122:
 3521 0649 5F756E75 		.ascii	"_unused\000"
 3521      73656400 
 3522              	.LASF41:
 3523 0651 5F5F746D 		.ascii	"__tm_isdst\000"
 3523      5F697364 
 3523      737400
 3524              	.LASF104:
 3525 065c 5F6C6F63 		.ascii	"_localtime_buf\000"
 3525      616C7469 
 3525      6D655F62 
 3525      756600
 3526              	.LASF61:
 3527 066b 5F636C6F 		.ascii	"_close\000"
 3527      736500
 3528              	.LASF107:
 3529 0672 5F723438 		.ascii	"_r48\000"
 3529      00
 3530              	.LASF12:
 3531 0677 54687265 		.ascii	"ThreadFn\000"
 3531      6164466E 
 3531      00
 3532              	.LASF109:
 3533 0680 5F6D6274 		.ascii	"_mbtowc_state\000"
 3533      6F77635F 
 3533      73746174 
 3533      6500
 3534              	.LASF83:
 3535 068e 5F703573 		.ascii	"_p5s\000"
ARM GAS  C:\Users\Diogo\AppData\Local\Temp\ccz982d4.s 			page 73


 3535      00
 3536              	.LASF134:
 3537 0693 6D61696E 		.ascii	"main\000"
 3537      00
 3538              	.LASF36:
 3539 0698 5F5F746D 		.ascii	"__tm_mday\000"
 3539      5F6D6461 
 3539      7900
 3540              		.ident	"GCC: (GNU Tools for Arm Embedded Processors 7-2018-q2-update) 7.3.1 20180622 (release) [AR
ARM GAS  C:\Users\Diogo\AppData\Local\Temp\ccz982d4.s 			page 74


DEFINED SYMBOLS
                            *ABS*:00000000 hello.c
C:\Users\Diogo\AppData\Local\Temp\ccz982d4.s:15     .text:00000000 $t
C:\Users\Diogo\AppData\Local\Temp\ccz982d4.s:22     .text:00000000 BodyTask
C:\Users\Diogo\AppData\Local\Temp\ccz982d4.s:66     .text:0000002c $d
C:\Users\Diogo\AppData\Local\Temp\ccz982d4.s:72     .text:00000038 $t
C:\Users\Diogo\AppData\Local\Temp\ccz982d4.s:79     .text:00000038 __error__
C:\Users\Diogo\AppData\Local\Temp\ccz982d4.s:105    .text:00000048 $d
C:\Users\Diogo\AppData\Local\Temp\ccz982d4.s:109    .text:0000004c $t
C:\Users\Diogo\AppData\Local\Temp\ccz982d4.s:116    .text:0000004c ConfigureUART
C:\Users\Diogo\AppData\Local\Temp\ccz982d4.s:179    .text:0000009c $d
                            *COM*:00000004 g_ui32SysClock
C:\Users\Diogo\AppData\Local\Temp\ccz982d4.s:186    .text:000000ac $t
C:\Users\Diogo\AppData\Local\Temp\ccz982d4.s:193    .text:000000ac createThreadStack
C:\Users\Diogo\AppData\Local\Temp\ccz982d4.s:220    .text:000000b8 initThreads
C:\Users\Diogo\AppData\Local\Temp\ccz982d4.s:272    .text:000000f0 $d
                            *COM*:00001400 ThreadStacks
C:\Users\Diogo\AppData\Local\Temp\ccz982d4.s:279    .text:00000100 $t
C:\Users\Diogo\AppData\Local\Temp\ccz982d4.s:286    .text:00000100 main
C:\Users\Diogo\AppData\Local\Temp\ccz982d4.s:403    .text:000001a4 $d
                            *COM*:00000150 task
                            *COM*:00000100 Thread2Stack
                            *COM*:00000100 Thread1Stack
C:\Users\Diogo\AppData\Local\Temp\ccz982d4.s:428    .bss:00000000 activeThread
C:\Users\Diogo\AppData\Local\Temp\ccz982d4.s:424    .bss:00000000 $d
C:\Users\Diogo\AppData\Local\Temp\ccz982d4.s:431    .rodata.str1.4:00000000 $d

UNDEFINED SYMBOLS
getCurrentThread
UARTprintf
UARTStdioConfig
malloc
puts
createThread
PinoutSet
LEDWrite
SysCtlDelay
startSwitcher
