ARM GAS  C:\Users\Diogo\AppData\Local\Temp\ccgi2Imd.s 			page 1


   1              		.cpu cortex-m4
   2              		.eabi_attribute 20, 1
   3              		.eabi_attribute 21, 1
   4              		.eabi_attribute 23, 3
   5              		.eabi_attribute 24, 1
   6              		.eabi_attribute 25, 1
   7              		.eabi_attribute 26, 1
   8              		.eabi_attribute 30, 1
   9              		.eabi_attribute 34, 1
  10              		.eabi_attribute 18, 4
  11              		.file	"pingpong-tasks1.c"
  12              		.text
  13              	.Ltext0:
  14              		.cfi_sections	.debug_frame
  15              		.align	1
  16              		.global	BodyPing
  17              		.syntax unified
  18              		.thumb
  19              		.thumb_func
  20              		.fpu softvfp
  21              		.type	BodyPing, %function
  22              	BodyPing:
  23              	.LFB3:
  24              		.file 1 "Threads/pingpong-tasks1.c"
   1:Threads/pingpong-tasks1.c **** // PingPongOS - PingPong Operating System
   2:Threads/pingpong-tasks1.c **** // Prof. Carlos A. Maziero, DINF UFPR
   3:Threads/pingpong-tasks1.c **** // Versão 1.1 -- Julho de 2016
   4:Threads/pingpong-tasks1.c **** 
   5:Threads/pingpong-tasks1.c **** // Teste da gestão básica de tarefas
   6:Threads/pingpong-tasks1.c **** 
   7:Threads/pingpong-tasks1.c **** #include <stdio.h>
   8:Threads/pingpong-tasks1.c **** #include <stdlib.h>
   9:Threads/pingpong-tasks1.c **** #include "pingpong-tasks1.h"
  10:Threads/pingpong-tasks1.c **** 
  11:Threads/pingpong-tasks1.c **** volatile uint8_t pingpong = 0;
  12:Threads/pingpong-tasks1.c **** // corpo da thread Ping
  13:Threads/pingpong-tasks1.c **** void BodyPing(void)
  14:Threads/pingpong-tasks1.c **** {
  25              		.loc 1 14 0
  26              		.cfi_startproc
  27              		@ args = 0, pretend = 0, frame = 0
  28              		@ frame_needed = 0, uses_anonymous_args = 0
  29 0000 70B5     		push	{r4, r5, r6, lr}
  30              	.LCFI0:
  31              		.cfi_def_cfa_offset 16
  32              		.cfi_offset 4, -16
  33              		.cfi_offset 5, -12
  34              		.cfi_offset 6, -8
  35              		.cfi_offset 14, -4
  36              	.LVL0:
  15:Threads/pingpong-tasks1.c ****   uint32_t i = 0;
  16:Threads/pingpong-tasks1.c ****   while (1)
  17:Threads/pingpong-tasks1.c ****   {
  18:Threads/pingpong-tasks1.c ****     if (!pingpong)
  37              		.loc 1 18 0
  38 0002 094C     		ldr	r4, .L7
  19:Threads/pingpong-tasks1.c **** 			i++;
ARM GAS  C:\Users\Diogo\AppData\Local\Temp\ccgi2Imd.s 			page 2


  20:Threads/pingpong-tasks1.c ****     if (i > (0xFFFFFF - 20))
  39              		.loc 1 20 0
  40 0004 094D     		ldr	r5, .L7+4
  21:Threads/pingpong-tasks1.c ****     {
  22:Threads/pingpong-tasks1.c ****       UARTprintf("PING\n");
  41              		.loc 1 22 0
  42 0006 0A4E     		ldr	r6, .L7+8
  43 0008 0BE0     		b	.L4
  44              	.LVL1:
  45              	.L2:
  20:Threads/pingpong-tasks1.c ****     {
  46              		.loc 1 20 0
  47 000a AB42     		cmp	r3, r5
  48 000c 04D8     		bhi	.L6
  49              	.LVL2:
  50              	.L3:
  18:Threads/pingpong-tasks1.c **** 			i++;
  51              		.loc 1 18 0
  52 000e 2278     		ldrb	r2, [r4]	@ zero_extendqisi2
  53 0010 002A     		cmp	r2, #0
  54 0012 FAD1     		bne	.L2
  19:Threads/pingpong-tasks1.c ****     if (i > (0xFFFFFF - 20))
  55              		.loc 1 19 0
  56 0014 0133     		adds	r3, r3, #1
  57              	.LVL3:
  58 0016 F8E7     		b	.L2
  59              	.L6:
  60              		.loc 1 22 0
  61 0018 3046     		mov	r0, r6
  62 001a FFF7FEFF 		bl	UARTprintf
  63              	.LVL4:
  23:Threads/pingpong-tasks1.c ****       i = 0;
  24:Threads/pingpong-tasks1.c ****       pingpong = 1;
  64              		.loc 1 24 0
  65 001e 0123     		movs	r3, #1
  66 0020 2370     		strb	r3, [r4]
  67              	.L4:
  14:Threads/pingpong-tasks1.c ****   uint32_t i = 0;
  68              		.loc 1 14 0
  69 0022 0023     		movs	r3, #0
  70 0024 F3E7     		b	.L3
  71              	.L8:
  72 0026 00BF     		.align	2
  73              	.L7:
  74 0028 00000000 		.word	.LANCHOR0
  75 002c EBFFFF00 		.word	16777195
  76 0030 00000000 		.word	.LC0
  77              		.cfi_endproc
  78              	.LFE3:
  79              		.size	BodyPing, .-BodyPing
  80              		.align	1
  81              		.global	BodyPong
  82              		.syntax unified
  83              		.thumb
  84              		.thumb_func
  85              		.fpu softvfp
  86              		.type	BodyPong, %function
ARM GAS  C:\Users\Diogo\AppData\Local\Temp\ccgi2Imd.s 			page 3


  87              	BodyPong:
  88              	.LFB4:
  25:Threads/pingpong-tasks1.c ****     }
  26:Threads/pingpong-tasks1.c ****   }
  27:Threads/pingpong-tasks1.c **** }
  28:Threads/pingpong-tasks1.c **** 
  29:Threads/pingpong-tasks1.c **** // corpo da thread Pong
  30:Threads/pingpong-tasks1.c **** void BodyPong(void *arg)
  31:Threads/pingpong-tasks1.c **** {
  89              		.loc 1 31 0
  90              		.cfi_startproc
  91              		@ Volatile: function does not return.
  92              		@ args = 0, pretend = 0, frame = 0
  93              		@ frame_needed = 0, uses_anonymous_args = 0
  94              	.LVL5:
  95 0034 08B5     		push	{r3, lr}
  96              	.LCFI1:
  97              		.cfi_def_cfa_offset 8
  98              		.cfi_offset 3, -8
  99              		.cfi_offset 14, -4
  32:Threads/pingpong-tasks1.c ****   while (1)
  33:Threads/pingpong-tasks1.c ****   {
  34:Threads/pingpong-tasks1.c ****     if (pingpong == 1)
 100              		.loc 1 34 0
 101 0036 064C     		ldr	r4, .L13
  35:Threads/pingpong-tasks1.c ****     {
  36:Threads/pingpong-tasks1.c ****       pingpong = 0;
 102              		.loc 1 36 0
 103 0038 0026     		movs	r6, #0
  37:Threads/pingpong-tasks1.c ****       UARTprintf("PONG\n");
 104              		.loc 1 37 0
 105 003a 064D     		ldr	r5, .L13+4
 106              	.LVL6:
 107              	.L10:
  34:Threads/pingpong-tasks1.c ****     {
 108              		.loc 1 34 0
 109 003c 2378     		ldrb	r3, [r4]	@ zero_extendqisi2
 110 003e DBB2     		uxtb	r3, r3
 111 0040 012B     		cmp	r3, #1
 112 0042 FBD1     		bne	.L10
  36:Threads/pingpong-tasks1.c ****       UARTprintf("PONG\n");
 113              		.loc 1 36 0
 114 0044 2670     		strb	r6, [r4]
 115              		.loc 1 37 0
 116 0046 2846     		mov	r0, r5
 117 0048 FFF7FEFF 		bl	UARTprintf
 118              	.LVL7:
 119 004c F6E7     		b	.L10
 120              	.L14:
 121 004e 00BF     		.align	2
 122              	.L13:
 123 0050 00000000 		.word	.LANCHOR0
 124 0054 08000000 		.word	.LC1
 125              		.cfi_endproc
 126              	.LFE4:
 127              		.size	BodyPong, .-BodyPong
 128              		.global	pingpong
ARM GAS  C:\Users\Diogo\AppData\Local\Temp\ccgi2Imd.s 			page 4


 129              		.bss
 130              		.set	.LANCHOR0,. + 0
 131              		.type	pingpong, %object
 132              		.size	pingpong, 1
 133              	pingpong:
 134 0000 00       		.space	1
 135              		.section	.rodata.str1.4,"aMS",%progbits,1
 136              		.align	2
 137              	.LC0:
 138 0000 50494E47 		.ascii	"PING\012\000"
 138      0A00
 139 0006 0000     		.space	2
 140              	.LC1:
 141 0008 504F4E47 		.ascii	"PONG\012\000"
 141      0A00
 142              		.text
 143              	.Letext0:
 144              		.file 2 "c:\\program files (x86)\\gnu tools arm embedded\\7 2018-q2-update\\arm-none-eabi\\include
 145              		.file 3 "c:\\program files (x86)\\gnu tools arm embedded\\7 2018-q2-update\\arm-none-eabi\\include
 146              		.file 4 "c:\\program files (x86)\\gnu tools arm embedded\\7 2018-q2-update\\arm-none-eabi\\include
 147              		.file 5 "c:\\program files (x86)\\gnu tools arm embedded\\7 2018-q2-update\\lib\\gcc\\arm-none-eab
 148              		.file 6 "c:\\program files (x86)\\gnu tools arm embedded\\7 2018-q2-update\\arm-none-eabi\\include
 149              		.file 7 "c:\\program files (x86)\\gnu tools arm embedded\\7 2018-q2-update\\arm-none-eabi\\include
 150              		.file 8 "c:\\program files (x86)\\gnu tools arm embedded\\7 2018-q2-update\\arm-none-eabi\\include
 151              		.file 9 "./inc/utils/uartstdio.h"