ARM GAS  C:\Users\Diogo\AppData\Local\Temp\ccIkNx3X.s 			page 1


   1              		.cpu cortex-m4
   2              		.eabi_attribute 20, 1
   3              		.eabi_attribute 21, 1
   4              		.eabi_attribute 23, 3
   5              		.eabi_attribute 24, 1
   6              		.eabi_attribute 25, 1
   7              		.eabi_attribute 26, 1
   8              		.eabi_attribute 30, 1
   9              		.eabi_attribute 34, 1
  10              		.eabi_attribute 18, 4
  11              		.file	"queue.c"
  12              		.text
  13              	.Ltext0:
  14              		.cfi_sections	.debug_frame
  15              		.align	1
  16              		.global	queue_append
  17              		.syntax unified
  18              		.thumb
  19              		.thumb_func
  20              		.fpu softvfp
  21              		.type	queue_append, %function
  22              	queue_append:
  23              	.LFB0:
  24              		.file 1 "Queue/queue.c"
   1:Queue/queue.c **** 
   2:Queue/queue.c **** #include "queue.h"
   3:Queue/queue.c **** #include <stdint.h>
   4:Queue/queue.c **** #include "utils\uartstdio.h"
   5:Queue/queue.c **** 
   6:Queue/queue.c **** //------------------------------------------------------------------------------
   7:Queue/queue.c **** // Insere um elemento no final da fila.
   8:Queue/queue.c **** // Condicoes a verificar, gerando msgs de erro:
   9:Queue/queue.c **** // - a fila deve existir
  10:Queue/queue.c **** // - o elemento deve existir
  11:Queue/queue.c **** // - o elemento nao deve estar em outra fila
  12:Queue/queue.c **** 
  13:Queue/queue.c **** void queue_append(queue_t **queue, queue_t *elem)
  14:Queue/queue.c **** {
  25              		.loc 1 14 0
  26              		.cfi_startproc
  27              		@ args = 0, pretend = 0, frame = 0
  28              		@ frame_needed = 0, uses_anonymous_args = 0
  29              		@ link register save eliminated.
  30              	.LVL0:
  31 0000 10B4     		push	{r4}
  32              	.LCFI0:
  33              		.cfi_def_cfa_offset 4
  34              		.cfi_offset 4, -4
  15:Queue/queue.c **** 	// Se o elemento for nulo ou se ja fizer parte de outra fila retorna sem fazer nada
  16:Queue/queue.c **** 	if (elem == NULL || elem->prev != NULL || elem->next != NULL)
  35              		.loc 1 16 0
  36 0002 0B46     		mov	r3, r1
  37 0004 09B1     		cbz	r1, .L1
  38              		.loc 1 16 0 is_stmt 0 discriminator 1
  39 0006 0A68     		ldr	r2, [r1]
  40 0008 0AB1     		cbz	r2, .L6
  41              	.LVL1:
ARM GAS  C:\Users\Diogo\AppData\Local\Temp\ccIkNx3X.s 			page 2


  42              	.L1:
  17:Queue/queue.c **** 		return;
  18:Queue/queue.c **** 	
  19:Queue/queue.c **** 
  20:Queue/queue.c **** 	// Se for o primeiro elemento, faz o elemento auxiliar apontar para o novo elemento
  21:Queue/queue.c **** 	// e faz este elemento apontar para si mesmo nas duas direções. Também faz o primeiro
  22:Queue/queue.c **** 	// elemento ser o mesmo deste que foi colocado
  23:Queue/queue.c **** 	if ((*queue) == NULL)
  24:Queue/queue.c **** 	{
  25:Queue/queue.c **** 		(*queue) = elem;
  26:Queue/queue.c **** 		(*queue)->next = elem;
  27:Queue/queue.c **** 		(*queue)->prev = elem;
  28:Queue/queue.c **** 	}
  29:Queue/queue.c **** 	// Para os próximos elementos,
  30:Queue/queue.c **** 	else
  31:Queue/queue.c **** 	{
  32:Queue/queue.c **** 
  33:Queue/queue.c **** 		//Itera até chegar no final da fila
  34:Queue/queue.c **** 		queue_t *temp = *queue;
  35:Queue/queue.c **** 		while (temp->next != *queue)
  36:Queue/queue.c **** 		{
  37:Queue/queue.c **** 			temp = temp->next;
  38:Queue/queue.c **** 		}
  39:Queue/queue.c **** 
  40:Queue/queue.c **** 		// Faz o next do ultimo elemento apontar para o novo elemento
  41:Queue/queue.c **** 		temp->next = elem;
  42:Queue/queue.c **** 
  43:Queue/queue.c **** 		//Pega o first a partir do next do ultimo e bota no novo elemento
  44:Queue/queue.c **** 		elem->next = *queue;
  45:Queue/queue.c **** 		// Faz o prev do novo apontar para o auxiliar (que até agora era o último)
  46:Queue/queue.c **** 		elem->prev = temp;
  47:Queue/queue.c **** 		// Faz o previous do first apontar para o novo elemento
  48:Queue/queue.c **** 		(*queue)->prev = elem;
  49:Queue/queue.c **** 	}
  50:Queue/queue.c **** }
  43              		.loc 1 50 0 is_stmt 1
  44 000a 10BC     		pop	{r4}
  45              	.LCFI1:
  46              		.cfi_remember_state
  47              		.cfi_restore 4
  48              		.cfi_def_cfa_offset 0
  49 000c 7047     		bx	lr
  50              	.LVL2:
  51              	.L6:
  52              	.LCFI2:
  53              		.cfi_restore_state
  16:Queue/queue.c **** 		return;
  54              		.loc 1 16 0 discriminator 2
  55 000e 4A68     		ldr	r2, [r1, #4]
  56 0010 002A     		cmp	r2, #0
  57 0012 FAD1     		bne	.L1
  23:Queue/queue.c **** 	{
  58              		.loc 1 23 0
  59 0014 0468     		ldr	r4, [r0]
  60 0016 0CB1     		cbz	r4, .L7
  61              	.LBB2:
  34:Queue/queue.c **** 		while (temp->next != *queue)
ARM GAS  C:\Users\Diogo\AppData\Local\Temp\ccIkNx3X.s 			page 3


  62              		.loc 1 34 0
  63 0018 2146     		mov	r1, r4
  64              	.LVL3:
  65 001a 05E0     		b	.L3
  66              	.LVL4:
  67              	.L7:
  68              	.LBE2:
  25:Queue/queue.c **** 		(*queue)->next = elem;
  69              		.loc 1 25 0
  70 001c 0160     		str	r1, [r0]
  26:Queue/queue.c **** 		(*queue)->prev = elem;
  71              		.loc 1 26 0
  72 001e 5960     		str	r1, [r3, #4]
  27:Queue/queue.c **** 	}
  73              		.loc 1 27 0
  74 0020 0268     		ldr	r2, [r0]
  75 0022 1160     		str	r1, [r2]
  76 0024 F1E7     		b	.L1
  77              	.LVL5:
  78              	.L5:
  79              	.LBB3:
  37:Queue/queue.c **** 		}
  80              		.loc 1 37 0
  81 0026 1146     		mov	r1, r2
  82              	.LVL6:
  83              	.L3:
  35:Queue/queue.c **** 		{
  84              		.loc 1 35 0
  85 0028 4A68     		ldr	r2, [r1, #4]
  86 002a 9442     		cmp	r4, r2
  87 002c FBD1     		bne	.L5
  41:Queue/queue.c **** 
  88              		.loc 1 41 0
  89 002e 4B60     		str	r3, [r1, #4]
  44:Queue/queue.c **** 		// Faz o prev do novo apontar para o auxiliar (que até agora era o último)
  90              		.loc 1 44 0
  91 0030 0268     		ldr	r2, [r0]
  92 0032 5A60     		str	r2, [r3, #4]
  46:Queue/queue.c **** 		// Faz o previous do first apontar para o novo elemento
  93              		.loc 1 46 0
  94 0034 1960     		str	r1, [r3]
  48:Queue/queue.c **** 	}
  95              		.loc 1 48 0
  96 0036 0268     		ldr	r2, [r0]
  97 0038 1360     		str	r3, [r2]
  98 003a E6E7     		b	.L1
  99              	.LBE3:
 100              		.cfi_endproc
 101              	.LFE0:
 102              		.size	queue_append, .-queue_append
 103              		.align	1
 104              		.global	queue_remove
 105              		.syntax unified
 106              		.thumb
 107              		.thumb_func
 108              		.fpu softvfp
 109              		.type	queue_remove, %function
ARM GAS  C:\Users\Diogo\AppData\Local\Temp\ccIkNx3X.s 			page 4


 110              	queue_remove:
 111              	.LFB1:
  51:Queue/queue.c **** 
  52:Queue/queue.c **** //------------------------------------------------------------------------------
  53:Queue/queue.c **** // Remove o elemento indicado da fila, sem o destruir.
  54:Queue/queue.c **** // Condicoes a verificar, gerando msgs de erro:
  55:Queue/queue.c **** // - a fila deve existir
  56:Queue/queue.c **** // - a fila nao deve estar vazia
  57:Queue/queue.c **** // - o elemento deve existir
  58:Queue/queue.c **** // - o elemento deve pertencer a fila indicada
  59:Queue/queue.c **** // Retorno: apontador para o elemento removido, ou NULL se erro
  60:Queue/queue.c **** 
  61:Queue/queue.c **** queue_t *queue_remove(queue_t **queue, queue_t *elem)
  62:Queue/queue.c **** {
 112              		.loc 1 62 0
 113              		.cfi_startproc
 114              		@ args = 0, pretend = 0, frame = 0
 115              		@ frame_needed = 0, uses_anonymous_args = 0
 116              		@ link register save eliminated.
 117              	.LVL7:
 118 003c 10B4     		push	{r4}
 119              	.LCFI3:
 120              		.cfi_def_cfa_offset 4
 121              		.cfi_offset 4, -4
  63:Queue/queue.c **** 
  64:Queue/queue.c **** 	if (*queue == NULL ||
 122              		.loc 1 64 0
 123 003e 0268     		ldr	r2, [r0]
 124 0040 EAB1     		cbz	r2, .L16
  65:Queue/queue.c **** 			(*queue)->next == NULL ||
 125              		.loc 1 65 0 discriminator 1
 126 0042 5368     		ldr	r3, [r2, #4]
  64:Queue/queue.c **** 			(*queue)->next == NULL ||
 127              		.loc 1 64 0 discriminator 1
 128 0044 EBB1     		cbz	r3, .L17
 129              		.loc 1 65 0
 130 0046 1468     		ldr	r4, [r2]
 131 0048 ECB1     		cbz	r4, .L18
  66:Queue/queue.c **** 			(*queue)->prev == NULL ||
 132              		.loc 1 66 0
 133 004a F1B1     		cbz	r1, .L19
 134              	.LVL8:
  67:Queue/queue.c **** 			elem == NULL)
  68:Queue/queue.c **** 	{
  69:Queue/queue.c **** 		return NULL;
  70:Queue/queue.c **** 	}
  71:Queue/queue.c **** 
  72:Queue/queue.c **** 	struct queue_t *qpos = (*queue);
  73:Queue/queue.c **** 
  74:Queue/queue.c **** 	while (qpos != elem)
 135              		.loc 1 74 0
 136 004c 8A42     		cmp	r2, r1
 137 004e 20D0     		beq	.L10
 138              	.LVL9:
  75:Queue/queue.c **** 	{
  76:Queue/queue.c **** 		qpos = qpos->next;
  77:Queue/queue.c **** 		if (qpos == *queue)
ARM GAS  C:\Users\Diogo\AppData\Local\Temp\ccIkNx3X.s 			page 5


 139              		.loc 1 77 0
 140 0050 9A42     		cmp	r2, r3
 141 0052 1CD0     		beq	.L23
 142              	.L11:
  74:Queue/queue.c **** 	{
 143              		.loc 1 74 0
 144 0054 9942     		cmp	r1, r3
 145 0056 07D0     		beq	.L13
  76:Queue/queue.c **** 		if (qpos == *queue)
 146              		.loc 1 76 0
 147 0058 5B68     		ldr	r3, [r3, #4]
 148              	.LVL10:
 149              		.loc 1 77 0
 150 005a 9A42     		cmp	r2, r3
 151 005c FAD1     		bne	.L11
  78:Queue/queue.c **** 			return NULL; //Não está na fila!!
 152              		.loc 1 78 0
 153 005e 0023     		movs	r3, #0
 154              	.LVL11:
 155              	.L8:
  79:Queue/queue.c **** 		
  80:Queue/queue.c **** 	};
  81:Queue/queue.c **** 
  82:Queue/queue.c **** 	if ((*queue)->next == (*queue))
  83:Queue/queue.c **** 	{
  84:Queue/queue.c **** 		*queue = NULL;
  85:Queue/queue.c **** 		elem->next = NULL;
  86:Queue/queue.c **** 		elem->prev = NULL;
  87:Queue/queue.c **** 		return elem;
  88:Queue/queue.c **** 	}
  89:Queue/queue.c **** 	if (qpos == *queue)
  90:Queue/queue.c **** 	{
  91:Queue/queue.c **** 		*queue = (*queue)->next;
  92:Queue/queue.c **** 	}
  93:Queue/queue.c **** 	qpos->prev->next = elem->next;
  94:Queue/queue.c **** 	qpos->next->prev = elem->prev;
  95:Queue/queue.c **** 	elem->next = NULL;
  96:Queue/queue.c **** 	elem->prev = NULL;
  97:Queue/queue.c **** 
  98:Queue/queue.c **** 	return elem;
  99:Queue/queue.c **** }
 156              		.loc 1 99 0
 157 0060 1846     		mov	r0, r3
 158              	.LVL12:
 159 0062 10BC     		pop	{r4}
 160              	.LCFI4:
 161              		.cfi_remember_state
 162              		.cfi_restore 4
 163              		.cfi_def_cfa_offset 0
 164 0064 7047     		bx	lr
 165              	.LVL13:
 166              	.L24:
 167              	.LCFI5:
 168              		.cfi_restore_state
  91:Queue/queue.c **** 	}
 169              		.loc 1 91 0
 170 0066 0360     		str	r3, [r0]
ARM GAS  C:\Users\Diogo\AppData\Local\Temp\ccIkNx3X.s 			page 6


 171              	.LVL14:
 172              	.L13:
  93:Queue/queue.c **** 	qpos->next->prev = elem->prev;
 173              		.loc 1 93 0
 174 0068 0B68     		ldr	r3, [r1]
 175 006a 4A68     		ldr	r2, [r1, #4]
 176 006c 5A60     		str	r2, [r3, #4]
  94:Queue/queue.c **** 	elem->next = NULL;
 177              		.loc 1 94 0
 178 006e 4B68     		ldr	r3, [r1, #4]
 179 0070 0A68     		ldr	r2, [r1]
 180 0072 1A60     		str	r2, [r3]
  95:Queue/queue.c **** 	elem->prev = NULL;
 181              		.loc 1 95 0
 182 0074 0023     		movs	r3, #0
 183 0076 4B60     		str	r3, [r1, #4]
  96:Queue/queue.c **** 
 184              		.loc 1 96 0
 185 0078 0B60     		str	r3, [r1]
  98:Queue/queue.c **** }
 186              		.loc 1 98 0
 187 007a 0B46     		mov	r3, r1
 188 007c F0E7     		b	.L8
 189              	.L16:
  69:Queue/queue.c **** 	}
 190              		.loc 1 69 0
 191 007e 1346     		mov	r3, r2
 192 0080 EEE7     		b	.L8
 193              	.L17:
 194 0082 0023     		movs	r3, #0
 195 0084 ECE7     		b	.L8
 196              	.L18:
 197 0086 0023     		movs	r3, #0
 198 0088 EAE7     		b	.L8
 199              	.L19:
 200 008a 0B46     		mov	r3, r1
 201 008c E8E7     		b	.L8
 202              	.LVL15:
 203              	.L23:
  78:Queue/queue.c **** 		
 204              		.loc 1 78 0
 205 008e 0023     		movs	r3, #0
 206              	.LVL16:
 207 0090 E6E7     		b	.L8
 208              	.LVL17:
 209              	.L10:
  82:Queue/queue.c **** 	{
 210              		.loc 1 82 0
 211 0092 8B42     		cmp	r3, r1
 212 0094 E7D1     		bne	.L24
  84:Queue/queue.c **** 		elem->next = NULL;
 213              		.loc 1 84 0
 214 0096 0022     		movs	r2, #0
 215              	.LVL18:
 216 0098 0260     		str	r2, [r0]
 217              	.LVL19:
  85:Queue/queue.c **** 		elem->prev = NULL;
ARM GAS  C:\Users\Diogo\AppData\Local\Temp\ccIkNx3X.s 			page 7


 218              		.loc 1 85 0
 219 009a 5A60     		str	r2, [r3, #4]
  86:Queue/queue.c **** 		return elem;
 220              		.loc 1 86 0
 221 009c 1A60     		str	r2, [r3]
  87:Queue/queue.c **** 	}
 222              		.loc 1 87 0
 223 009e DFE7     		b	.L8
 224              		.cfi_endproc
 225              	.LFE1:
 226              		.size	queue_remove, .-queue_remove
 227              		.align	1
 228              		.global	queue_size
 229              		.syntax unified
 230              		.thumb
 231              		.thumb_func
 232              		.fpu softvfp
 233              		.type	queue_size, %function
 234              	queue_size:
 235              	.LFB2:
 100:Queue/queue.c **** 
 101:Queue/queue.c **** //------------------------------------------------------------------------------
 102:Queue/queue.c **** // Conta o numero de elementos na fila
 103:Queue/queue.c **** // Retorno: numero de elementos na fila
 104:Queue/queue.c **** 
 105:Queue/queue.c **** //int queue_size (queue_t *queue){
 106:Queue/queue.c **** //	struct queue_t *qpos;
 107:Queue/queue.c **** //	int i = 0;
 108:Queue/queue.c **** //	if (queue == NULL) return i;
 109:Queue/queue.c **** //	qpos = queue;
 110:Queue/queue.c **** //	do{
 111:Queue/queue.c **** //		i++;
 112:Queue/queue.c **** //		qpos = qpos->next;
 113:Queue/queue.c **** //	}while(qpos->next != queue);
 114:Queue/queue.c **** //	return i;
 115:Queue/queue.c **** //}
 116:Queue/queue.c **** 
 117:Queue/queue.c **** int queue_size(queue_t *queue)
 118:Queue/queue.c **** {
 236              		.loc 1 118 0
 237              		.cfi_startproc
 238              		@ args = 0, pretend = 0, frame = 0
 239              		@ frame_needed = 0, uses_anonymous_args = 0
 240              		@ link register save eliminated.
 241              	.LVL20:
 119:Queue/queue.c **** 	queue_t *aux = queue;
 120:Queue/queue.c **** 	int ct = 0;
 121:Queue/queue.c **** 	if (aux != NULL)
 242              		.loc 1 121 0
 243 00a0 0246     		mov	r2, r0
 244 00a2 40B1     		cbz	r0, .L28
 245              	.LVL21:
 122:Queue/queue.c **** 	{
 123:Queue/queue.c **** 		ct = 1;
 124:Queue/queue.c **** 		while (aux->next != queue)
 246              		.loc 1 124 0
 247 00a4 4368     		ldr	r3, [r0, #4]
ARM GAS  C:\Users\Diogo\AppData\Local\Temp\ccIkNx3X.s 			page 8


 248 00a6 9842     		cmp	r0, r3
 249 00a8 07D0     		beq	.L29
 123:Queue/queue.c **** 		while (aux->next != queue)
 250              		.loc 1 123 0
 251 00aa 0120     		movs	r0, #1
 252              	.LVL22:
 253              	.L27:
 125:Queue/queue.c **** 		{
 126:Queue/queue.c **** 			aux = aux->next;
 127:Queue/queue.c **** 			ct++;
 254              		.loc 1 127 0
 255 00ac 0130     		adds	r0, r0, #1
 256              	.LVL23:
 124:Queue/queue.c **** 		{
 257              		.loc 1 124 0
 258 00ae 5B68     		ldr	r3, [r3, #4]
 259              	.LVL24:
 260 00b0 9342     		cmp	r3, r2
 261 00b2 FBD1     		bne	.L27
 262 00b4 7047     		bx	lr
 263              	.LVL25:
 264              	.L28:
 120:Queue/queue.c **** 	if (aux != NULL)
 265              		.loc 1 120 0
 266 00b6 0020     		movs	r0, #0
 267              	.LVL26:
 268 00b8 7047     		bx	lr
 269              	.LVL27:
 270              	.L29:
 123:Queue/queue.c **** 		while (aux->next != queue)
 271              		.loc 1 123 0
 272 00ba 0120     		movs	r0, #1
 273              	.LVL28:
 128:Queue/queue.c **** 		}
 129:Queue/queue.c **** 	}
 130:Queue/queue.c **** 
 131:Queue/queue.c **** 	return ct;
 132:Queue/queue.c **** }
 274              		.loc 1 132 0
 275 00bc 7047     		bx	lr
 276              		.cfi_endproc
 277              	.LFE2:
 278              		.size	queue_size, .-queue_size
 279              		.align	1
 280              		.global	queue_print
 281              		.syntax unified
 282              		.thumb
 283              		.thumb_func
 284              		.fpu softvfp
 285              		.type	queue_print, %function
 286              	queue_print:
 287              	.LFB3:
 133:Queue/queue.c **** 
 134:Queue/queue.c **** //------------------------------------------------------------------------------
 135:Queue/queue.c **** // Percorre a fila e imprime na tela seu conteúdo. A impressão de cada
 136:Queue/queue.c **** // elemento é feita por uma função externa, definida pelo programa que
 137:Queue/queue.c **** // usa a biblioteca.
ARM GAS  C:\Users\Diogo\AppData\Local\Temp\ccIkNx3X.s 			page 9


 138:Queue/queue.c **** //
 139:Queue/queue.c **** // Essa função deve ter o seguinte protótipo:
 140:Queue/queue.c **** //
 141:Queue/queue.c **** // void print_elem (void *ptr) ; // ptr aponta para o elemento a imprimir
 142:Queue/queue.c **** 
 143:Queue/queue.c **** void queue_print(char *name, queue_t *queue, void print_elem(void *))
 144:Queue/queue.c **** {
 288              		.loc 1 144 0
 289              		.cfi_startproc
 290              		@ args = 0, pretend = 0, frame = 0
 291              		@ frame_needed = 0, uses_anonymous_args = 0
 292              	.LVL29:
 293 00be 70B5     		push	{r4, r5, r6, lr}
 294              	.LCFI6:
 295              		.cfi_def_cfa_offset 16
 296              		.cfi_offset 4, -16
 297              		.cfi_offset 5, -12
 298              		.cfi_offset 6, -8
 299              		.cfi_offset 14, -4
 300 00c0 0D46     		mov	r5, r1
 301 00c2 1646     		mov	r6, r2
 145:Queue/queue.c **** 
 146:Queue/queue.c **** 	UARTprintf(name);
 302              		.loc 1 146 0
 303 00c4 FFF7FEFF 		bl	UARTprintf
 304              	.LVL30:
 147:Queue/queue.c **** 	if (queue == NULL)
 305              		.loc 1 147 0
 306 00c8 65B1     		cbz	r5, .L31
 307              	.LVL31:
 148:Queue/queue.c **** 		return;
 149:Queue/queue.c **** 	
 150:Queue/queue.c **** 	struct queue_t *qpos = queue;
 151:Queue/queue.c **** 	while (qpos->next != queue)
 308              		.loc 1 151 0
 309 00ca 6B68     		ldr	r3, [r5, #4]
 310 00cc 9D42     		cmp	r5, r3
 311 00ce 06D0     		beq	.L33
 150:Queue/queue.c **** 	while (qpos->next != queue)
 312              		.loc 1 150 0
 313 00d0 2C46     		mov	r4, r5
 314              	.LVL32:
 315              	.L34:
 152:Queue/queue.c **** 	{
 153:Queue/queue.c **** 		print_elem(qpos);
 316              		.loc 1 153 0
 317 00d2 2046     		mov	r0, r4
 318 00d4 B047     		blx	r6
 319              	.LVL33:
 154:Queue/queue.c **** 		qpos = qpos->next;
 320              		.loc 1 154 0
 321 00d6 6468     		ldr	r4, [r4, #4]
 322              	.LVL34:
 151:Queue/queue.c **** 	{
 323              		.loc 1 151 0
 324 00d8 6368     		ldr	r3, [r4, #4]
 325 00da AB42     		cmp	r3, r5
ARM GAS  C:\Users\Diogo\AppData\Local\Temp\ccIkNx3X.s 			page 10


 326 00dc F9D1     		bne	.L34
 327              	.LVL35:
 328              	.L33:
 155:Queue/queue.c **** 	}
 156:Queue/queue.c **** 	UARTprintf("\n");
 329              		.loc 1 156 0
 330 00de 0248     		ldr	r0, .L36
 331 00e0 FFF7FEFF 		bl	UARTprintf
 332              	.LVL36:
 333              	.L31:
 157:Queue/queue.c **** 	 
 158:Queue/queue.c **** }...
 334              		.loc 1 158 0
 335 00e4 70BD     		pop	{r4, r5, r6, pc}
 336              	.LVL37:
 337              	.L37:
 338 00e6 00BF     		.align	2
 339              	.L36:
 340 00e8 00000000 		.word	.LC0
 341              		.cfi_endproc
 342              	.LFE3:
 343              		.size	queue_print, .-queue_print
 344              		.section	.rodata.str1.4,"aMS",%progbits,1
 345              		.align	2
 346              	.LC0:
 347 0000 0A00     		.ascii	"\012\000"
 348              		.text
 349              	.Letext0:
 350              		.file 2 "Queue/queue.h"
 351              		.file 3 "./inc/utils\\uartstdio.h"