ARM GAS  C:\Users\Diogo\AppData\Local\Temp\cclZ0gYt.s 			page 1


   1              		.cpu cortex-m4
   2              		.eabi_attribute 20, 1
   3              		.eabi_attribute 21, 1
   4              		.eabi_attribute 23, 3
   5              		.eabi_attribute 24, 1
   6              		.eabi_attribute 25, 1
   7              		.eabi_attribute 26, 1
   8              		.eabi_attribute 30, 1
   9              		.eabi_attribute 34, 1
  10              		.eabi_attribute 18, 4
  11              		.file	"testafila.c"
  12              		.text
  13              	.Ltext0:
  14              		.cfi_sections	.debug_frame
  15              		.align	1
  16              		.global	print_elem
  17              		.syntax unified
  18              		.thumb
  19              		.thumb_func
  20              		.fpu softvfp
  21              		.type	print_elem, %function
  22              	print_elem:
  23              	.LFB3:
  24              		.file 1 "Queue/testafila.c"
   1:Queue/testafila.c **** // PingPongOS - PingPong Operating System
   2:Queue/testafila.c **** // Prof. Carlos A. Maziero, DINF UFPR
   3:Queue/testafila.c **** // Versão 1.0 -- Março de 2015
   4:Queue/testafila.c **** 
   5:Queue/testafila.c **** // Programa de teste da implementação de fila genérica queue.c/queue.h.
   6:Queue/testafila.c **** #include <stdint.h>
   7:Queue/testafila.c **** #include <stdio.h>
   8:Queue/testafila.c **** #include <stdlib.h>
   9:Queue/testafila.c **** #include <ASSERT.h>
  10:Queue/testafila.c **** #include "queue.h"
  11:Queue/testafila.c **** #include "utils\uartstdio.h"
  12:Queue/testafila.c **** #include "debug.h"
  13:Queue/testafila.c **** 
  14:Queue/testafila.c **** #define N 100
  15:Queue/testafila.c **** 
  16:Queue/testafila.c **** // A estrutura "filaint_t" será usada com as funções de queue.c usando um
  17:Queue/testafila.c **** // casting para o tipo "queue_t". Isso funciona bem, se os campos iniciais
  18:Queue/testafila.c **** // de ambas as estruturas forem os mesmos. De acordo com a seção 6.7.2.1 do
  19:Queue/testafila.c **** // padrão C99: "Within a structure object, the non-bit-ﬁeld members and the
  20:Queue/testafila.c **** // units in which bit-ﬁelds reside have addresses that increase in the order
  21:Queue/testafila.c **** // in which they are declared.".
  22:Queue/testafila.c **** 
  23:Queue/testafila.c **** typedef struct filaint_t
  24:Queue/testafila.c **** {
  25:Queue/testafila.c ****   struct filaint_t *prev; // ptr para usar cast com queue_t
  26:Queue/testafila.c ****   struct filaint_t *next; // ptr para usar cast com queue_t
  27:Queue/testafila.c ****   int id;
  28:Queue/testafila.c ****   // outros campos podem ser acrescidos aqui
  29:Queue/testafila.c **** } filaint_t;
  30:Queue/testafila.c **** 
  31:Queue/testafila.c **** filaint_t item[N];
  32:Queue/testafila.c **** filaint_t *fila0, *fila1, *aux, *final;
  33:Queue/testafila.c **** 
ARM GAS  C:\Users\Diogo\AppData\Local\Temp\cclZ0gYt.s 			page 2


  34:Queue/testafila.c **** //------------------------------------------------------------------------------
  35:Queue/testafila.c **** 
  36:Queue/testafila.c **** // imprime na tela um elemento da fila (chamada pela função queue_print)
  37:Queue/testafila.c **** void print_elem(void *ptr)
  38:Queue/testafila.c **** {
  25              		.loc 1 38 0
  26              		.cfi_startproc
  27              		@ args = 0, pretend = 0, frame = 0
  28              		@ frame_needed = 0, uses_anonymous_args = 0
  29              	.LVL0:
  30 0000 10B5     		push	{r4, lr}
  31              	.LCFI0:
  32              		.cfi_def_cfa_offset 8
  33              		.cfi_offset 4, -8
  34              		.cfi_offset 14, -4
  35              	.LVL1:
  39:Queue/testafila.c ****   filaint_t *elem = ptr;
  40:Queue/testafila.c **** 
  41:Queue/testafila.c ****   if (!elem)
  36              		.loc 1 41 0
  37 0002 0446     		mov	r4, r0
  38 0004 78B1     		cbz	r0, .L1
  42:Queue/testafila.c ****     return;
  43:Queue/testafila.c **** 
  44:Queue/testafila.c ****   elem->prev ? UARTprintf("%d", elem->prev->id) : UARTprintf("*");
  39              		.loc 1 44 0
  40 0006 0368     		ldr	r3, [r0]
  41 0008 73B1     		cbz	r3, .L3
  42              		.loc 1 44 0 is_stmt 0 discriminator 1
  43 000a 9968     		ldr	r1, [r3, #8]
  44 000c 0A48     		ldr	r0, .L6
  45              	.LVL2:
  46 000e FFF7FEFF 		bl	UARTprintf
  47              	.LVL3:
  48              	.L4:
  45:Queue/testafila.c ****   UARTprintf("<%d>", elem->id);
  49              		.loc 1 45 0 is_stmt 1
  50 0012 A168     		ldr	r1, [r4, #8]
  51 0014 0948     		ldr	r0, .L6+4
  52 0016 FFF7FEFF 		bl	UARTprintf
  53              	.LVL4:
  46:Queue/testafila.c ****   elem->next ? UARTprintf("%d", elem->next->id) : UARTprintf("*");
  54              		.loc 1 46 0
  55 001a 6368     		ldr	r3, [r4, #4]
  56 001c 43B1     		cbz	r3, .L5
  57              		.loc 1 46 0 is_stmt 0 discriminator 1
  58 001e 9968     		ldr	r1, [r3, #8]
  59 0020 0548     		ldr	r0, .L6
  60 0022 FFF7FEFF 		bl	UARTprintf
  61              	.LVL5:
  62              	.L1:
  47:Queue/testafila.c **** }
  63              		.loc 1 47 0 is_stmt 1
  64 0026 10BD     		pop	{r4, pc}
  65              	.LVL6:
  66              	.L3:
  44:Queue/testafila.c ****   UARTprintf("<%d>", elem->id);
ARM GAS  C:\Users\Diogo\AppData\Local\Temp\cclZ0gYt.s 			page 3


  67              		.loc 1 44 0 discriminator 2
  68 0028 0548     		ldr	r0, .L6+8
  69              	.LVL7:
  70 002a FFF7FEFF 		bl	UARTprintf
  71              	.LVL8:
  72 002e F0E7     		b	.L4
  73              	.L5:
  46:Queue/testafila.c ****   elem->next ? UARTprintf("%d", elem->next->id) : UARTprintf("*");
  74              		.loc 1 46 0 discriminator 2
  75 0030 0348     		ldr	r0, .L6+8
  76 0032 FFF7FEFF 		bl	UARTprintf
  77              	.LVL9:
  78 0036 F6E7     		b	.L1
  79              	.L7:
  80              		.align	2
  81              	.L6:
  82 0038 00000000 		.word	.LC0
  83 003c 08000000 		.word	.LC2
  84 0040 04000000 		.word	.LC1
  85              		.cfi_endproc
  86              	.LFE3:
  87              		.size	print_elem, .-print_elem
  88              		.align	1
  89              		.global	fila_correta
  90              		.syntax unified
  91              		.thumb
  92              		.thumb_func
  93              		.fpu softvfp
  94              		.type	fila_correta, %function
  95              	fila_correta:
  96              	.LFB4:
  48:Queue/testafila.c **** 
  49:Queue/testafila.c **** //------------------------------------------------------------------------------
  50:Queue/testafila.c **** 
  51:Queue/testafila.c **** // retorna 1 se a estrutura da fila está correta, 0 senão
  52:Queue/testafila.c **** int fila_correta(filaint_t *fila)
  53:Queue/testafila.c **** {
  97              		.loc 1 53 0
  98              		.cfi_startproc
  99              		@ args = 0, pretend = 0, frame = 0
 100              		@ frame_needed = 0, uses_anonymous_args = 0
 101              	.LVL10:
 102 0044 10B5     		push	{r4, lr}
 103              	.LCFI1:
 104              		.cfi_def_cfa_offset 8
 105              		.cfi_offset 4, -8
 106              		.cfi_offset 14, -4
  54:Queue/testafila.c ****   filaint_t *aux;
  55:Queue/testafila.c **** 
  56:Queue/testafila.c ****   // uma fila vazia sempre está correta
  57:Queue/testafila.c ****   if (!fila)
 107              		.loc 1 57 0
 108 0046 0446     		mov	r4, r0
 109 0048 38B3     		cbz	r0, .L17
  58:Queue/testafila.c ****     return 1;
  59:Queue/testafila.c **** 
  60:Queue/testafila.c ****   // fila com um só elemento e correta
ARM GAS  C:\Users\Diogo\AppData\Local\Temp\cclZ0gYt.s 			page 4


  61:Queue/testafila.c ****   if ((fila->next == fila) && (fila->prev == fila))
 110              		.loc 1 61 0
 111 004a 4368     		ldr	r3, [r0, #4]
 112 004c 8342     		cmp	r3, r0
 113 004e 12D0     		beq	.L21
  62:Queue/testafila.c ****     return 1;
  63:Queue/testafila.c **** 
  64:Queue/testafila.c ****   // fila com um só elemento, mas incorreta
  65:Queue/testafila.c ****   if ((fila->next == fila) || (fila->prev == fila))
 114              		.loc 1 65 0 discriminator 1
 115 0050 0368     		ldr	r3, [r0]
 116 0052 8342     		cmp	r3, r0
 117 0054 12D0     		beq	.L11
  66:Queue/testafila.c ****   {
  67:Queue/testafila.c ****     UARTprintf("ERRO: ponteiros errados na fila com um elemento\n");
  68:Queue/testafila.c ****     return 0;
  69:Queue/testafila.c ****   }
  70:Queue/testafila.c **** 
  71:Queue/testafila.c ****   // fila com mais elementos, percorrer e testar todos os ponteiros
  72:Queue/testafila.c ****   aux = fila;
 118              		.loc 1 72 0
 119 0056 0346     		mov	r3, r0
 120              	.L12:
 121              	.LVL11:
  73:Queue/testafila.c ****   do
  74:Queue/testafila.c ****   {
  75:Queue/testafila.c ****     // testa ponteiro next (avaliação em curto-circuito)
  76:Queue/testafila.c ****     if (aux->next && (aux->next->prev == aux))
 122              		.loc 1 76 0
 123 0058 5A68     		ldr	r2, [r3, #4]
 124 005a A2B1     		cbz	r2, .L13
 125              		.loc 1 76 0 is_stmt 0 discriminator 1
 126 005c 1168     		ldr	r1, [r2]
 127 005e 9942     		cmp	r1, r3
 128 0060 11D1     		bne	.L13
  77:Queue/testafila.c ****       ; // ponteiro ok
  78:Queue/testafila.c ****     else
  79:Queue/testafila.c ****     {
  80:Queue/testafila.c ****       UARTprintf("ERRO: ponteiros errados ->next ou ->next->prev\n");
  81:Queue/testafila.c ****       return 0;
  82:Queue/testafila.c ****     }
  83:Queue/testafila.c **** 
  84:Queue/testafila.c ****     // testa ponteiro prev (avaliação em curto-circuito)
  85:Queue/testafila.c ****     if (aux->prev && (aux->prev->next == aux))
 129              		.loc 1 85 0 is_stmt 1
 130 0062 1968     		ldr	r1, [r3]
 131 0064 A1B1     		cbz	r1, .L15
 132              		.loc 1 85 0 is_stmt 0 discriminator 1
 133 0066 4968     		ldr	r1, [r1, #4]
 134 0068 9942     		cmp	r1, r3
 135 006a 11D1     		bne	.L15
 136              	.LVL12:
  86:Queue/testafila.c ****       ; // ponteiro ok
  87:Queue/testafila.c ****     else
  88:Queue/testafila.c ****     {
  89:Queue/testafila.c ****       UARTprintf("ERRO: ponteiros errados ->prev ou ->prev->next\n");
  90:Queue/testafila.c ****       return 0;
ARM GAS  C:\Users\Diogo\AppData\Local\Temp\cclZ0gYt.s 			page 5


  91:Queue/testafila.c ****     }
  92:Queue/testafila.c ****     aux = aux->next;
 137              		.loc 1 92 0 is_stmt 1
 138 006c 1346     		mov	r3, r2
  93:Queue/testafila.c ****   } while (aux != fila);
 139              		.loc 1 93 0
 140 006e A242     		cmp	r2, r4
 141 0070 F2D1     		bne	.L12
  94:Queue/testafila.c **** 
  95:Queue/testafila.c ****   // passou por tudo, estrutura da fila parece estar ok
  96:Queue/testafila.c ****   return 1;
 142              		.loc 1 96 0
 143 0072 0120     		movs	r0, #1
 144              	.LVL13:
 145 0074 12E0     		b	.L8
 146              	.LVL14:
 147              	.L21:
  61:Queue/testafila.c ****     return 1;
 148              		.loc 1 61 0 discriminator 1
 149 0076 0368     		ldr	r3, [r0]
 150 0078 8342     		cmp	r3, r0
 151 007a 10D0     		beq	.L22
 152              	.L11:
  67:Queue/testafila.c ****     return 0;
 153              		.loc 1 67 0
 154 007c 0948     		ldr	r0, .L23
 155              	.LVL15:
 156 007e FFF7FEFF 		bl	UARTprintf
 157              	.LVL16:
  68:Queue/testafila.c ****   }
 158              		.loc 1 68 0
 159 0082 0020     		movs	r0, #0
 160 0084 0AE0     		b	.L8
 161              	.LVL17:
 162              	.L13:
  80:Queue/testafila.c ****       return 0;
 163              		.loc 1 80 0
 164 0086 0848     		ldr	r0, .L23+4
 165              	.LVL18:
 166 0088 FFF7FEFF 		bl	UARTprintf
 167              	.LVL19:
  81:Queue/testafila.c ****     }
 168              		.loc 1 81 0
 169 008c 0020     		movs	r0, #0
 170 008e 05E0     		b	.L8
 171              	.LVL20:
 172              	.L15:
  89:Queue/testafila.c ****       return 0;
 173              		.loc 1 89 0
 174 0090 0648     		ldr	r0, .L23+8
 175              	.LVL21:
 176 0092 FFF7FEFF 		bl	UARTprintf
 177              	.LVL22:
  90:Queue/testafila.c ****     }
 178              		.loc 1 90 0
 179 0096 0020     		movs	r0, #0
 180 0098 00E0     		b	.L8
ARM GAS  C:\Users\Diogo\AppData\Local\Temp\cclZ0gYt.s 			page 6


 181              	.LVL23:
 182              	.L17:
  58:Queue/testafila.c **** 
 183              		.loc 1 58 0
 184 009a 0120     		movs	r0, #1
 185              	.LVL24:
 186              	.L8:
  97:Queue/testafila.c **** }
 187              		.loc 1 97 0
 188 009c 10BD     		pop	{r4, pc}
 189              	.LVL25:
 190              	.L22:
  62:Queue/testafila.c **** 
 191              		.loc 1 62 0
 192 009e 0120     		movs	r0, #1
 193              	.LVL26:
 194 00a0 FCE7     		b	.L8
 195              	.L24:
 196 00a2 00BF     		.align	2
 197              	.L23:
 198 00a4 10000000 		.word	.LC3
 199 00a8 44000000 		.word	.LC4
 200 00ac 74000000 		.word	.LC5
 201              		.cfi_endproc
 202              	.LFE4:
 203              		.size	fila_correta, .-fila_correta
 204              		.align	1
 205              		.global	testafila
 206              		.syntax unified
 207              		.thumb
 208              		.thumb_func
 209              		.fpu softvfp
 210              		.type	testafila, %function
 211              	testafila:
 212              	.LFB5:
  98:Queue/testafila.c **** 
  99:Queue/testafila.c **** //------------------------------------------------------------------------------
 100:Queue/testafila.c **** 
 101:Queue/testafila.c **** int testafila()
 102:Queue/testafila.c **** {
 213              		.loc 1 102 0
 214              		.cfi_startproc
 215              		@ args = 0, pretend = 0, frame = 0
 216              		@ frame_needed = 0, uses_anonymous_args = 0
 217 00b0 2DE9F843 		push	{r3, r4, r5, r6, r7, r8, r9, lr}
 218              	.LCFI2:
 219              		.cfi_def_cfa_offset 32
 220              		.cfi_offset 3, -32
 221              		.cfi_offset 4, -28
 222              		.cfi_offset 5, -24
 223              		.cfi_offset 6, -20
 224              		.cfi_offset 7, -16
 225              		.cfi_offset 8, -12
 226              		.cfi_offset 9, -8
 227              		.cfi_offset 14, -4
 228              	.LVL27:
 229 00b4 DFF89882 		ldr	r8, .L116+40
ARM GAS  C:\Users\Diogo\AppData\Local\Temp\cclZ0gYt.s 			page 7


 230              		.loc 1 102 0
 231 00b8 4346     		mov	r3, r8
 103:Queue/testafila.c ****   int i;
 104:Queue/testafila.c **** 
 105:Queue/testafila.c ****   // inicializa os N elementos
 106:Queue/testafila.c ****   for (i = 0; i < N; i++)
 232              		.loc 1 106 0
 233 00ba 0022     		movs	r2, #0
 107:Queue/testafila.c ****   {
 108:Queue/testafila.c ****     item[i].id = i;
 109:Queue/testafila.c ****     item[i].prev = NULL;
 234              		.loc 1 109 0
 235 00bc 1146     		mov	r1, r2
 236              	.LVL28:
 237              	.L26:
 108:Queue/testafila.c ****     item[i].prev = NULL;
 238              		.loc 1 108 0 discriminator 3
 239 00be 9A60     		str	r2, [r3, #8]
 240              		.loc 1 109 0 discriminator 3
 241 00c0 1960     		str	r1, [r3]
 110:Queue/testafila.c ****     item[i].next = NULL;
 242              		.loc 1 110 0 discriminator 3
 243 00c2 5960     		str	r1, [r3, #4]
 106:Queue/testafila.c ****   {
 244              		.loc 1 106 0 discriminator 3
 245 00c4 0132     		adds	r2, r2, #1
 246              	.LVL29:
 247 00c6 0C33     		adds	r3, r3, #12
 248 00c8 642A     		cmp	r2, #100
 249 00ca F8D1     		bne	.L26
 111:Queue/testafila.c ****   }
 112:Queue/testafila.c **** 
 113:Queue/testafila.c ****   // PARTE 1: queue_append e queue_size =======================================
 114:Queue/testafila.c **** 
 115:Queue/testafila.c ****   // Teste: inserir N elemementos na fila e verificar a estrutura
 116:Queue/testafila.c ****   UARTprintf("Testando insercao de %d elementos...\n", N);
 250              		.loc 1 116 0
 251 00cc 6421     		movs	r1, #100
 252 00ce 9648     		ldr	r0, .L116
 253 00d0 FFF7FEFF 		bl	UARTprintf
 254              	.LVL30:
 117:Queue/testafila.c ****   fila0 = NULL;
 255              		.loc 1 117 0
 256 00d4 0024     		movs	r4, #0
 257 00d6 954B     		ldr	r3, .L116+4
 258 00d8 1C60     		str	r4, [r3]
 259              	.LVL31:
 260 00da 4646     		mov	r6, r8
 118:Queue/testafila.c ****   for (i = 0; i < N; i++)
 119:Queue/testafila.c ****   {
 120:Queue/testafila.c ****     ASSERT(queue_size((queue_t *)fila0) == i);
 261              		.loc 1 120 0
 262 00dc 1D46     		mov	r5, r3
 263 00de 944F     		ldr	r7, .L116+8
 264 00e0 4FF07809 		mov	r9, #120
 265 00e4 0BE0     		b	.L29
 266              	.LVL32:
ARM GAS  C:\Users\Diogo\AppData\Local\Temp\cclZ0gYt.s 			page 8


 267              	.L27:
 121:Queue/testafila.c ****     queue_append((queue_t **)&fila0, (queue_t *)&item[i]);
 268              		.loc 1 121 0
 269 00e6 3146     		mov	r1, r6
 270 00e8 2846     		mov	r0, r5
 271 00ea FFF7FEFF 		bl	queue_append
 272              	.LVL33:
 122:Queue/testafila.c ****     ASSERT(fila_correta(fila0));
 273              		.loc 1 122 0
 274 00ee 2868     		ldr	r0, [r5]
 275 00f0 FFF7FEFF 		bl	fila_correta
 276              	.LVL34:
 277 00f4 68B1     		cbz	r0, .L102
 278              	.L28:
 118:Queue/testafila.c ****   for (i = 0; i < N; i++)
 279              		.loc 1 118 0 discriminator 2
 280 00f6 0134     		adds	r4, r4, #1
 281              	.LVL35:
 282 00f8 0C36     		adds	r6, r6, #12
 283 00fa 642C     		cmp	r4, #100
 284 00fc 0ED0     		beq	.L103
 285              	.LVL36:
 286              	.L29:
 120:Queue/testafila.c ****     queue_append((queue_t **)&fila0, (queue_t *)&item[i]);
 287              		.loc 1 120 0
 288 00fe 2868     		ldr	r0, [r5]
 289 0100 FFF7FEFF 		bl	queue_size
 290              	.LVL37:
 291 0104 A042     		cmp	r0, r4
 292 0106 EED0     		beq	.L27
 120:Queue/testafila.c ****     queue_append((queue_t **)&fila0, (queue_t *)&item[i]);
 293              		.loc 1 120 0 is_stmt 0 discriminator 1
 294 0108 4946     		mov	r1, r9
 295 010a 3846     		mov	r0, r7
 296 010c FFF7FEFF 		bl	__error__
 297              	.LVL38:
 298 0110 E9E7     		b	.L27
 299              	.L102:
 300              		.loc 1 122 0 is_stmt 1 discriminator 1
 301 0112 7A21     		movs	r1, #122
 302 0114 3846     		mov	r0, r7
 303 0116 FFF7FEFF 		bl	__error__
 304              	.LVL39:
 305 011a ECE7     		b	.L28
 306              	.L103:
 123:Queue/testafila.c ****   }
 124:Queue/testafila.c **** 
 125:Queue/testafila.c ****   // Teste: contar o numero de elementos na fila e verificar a ordem
 126:Queue/testafila.c ****   // dos elementos inseridos
 127:Queue/testafila.c ****   UARTprintf("Testando tamanho da fila e ordem dos %d elementos...\n", N);
 307              		.loc 1 127 0
 308 011c 6421     		movs	r1, #100
 309 011e 8548     		ldr	r0, .L116+12
 310 0120 FFF7FEFF 		bl	UARTprintf
 311              	.LVL40:
 128:Queue/testafila.c ****   aux = fila0;
 312              		.loc 1 128 0
ARM GAS  C:\Users\Diogo\AppData\Local\Temp\cclZ0gYt.s 			page 9


 313 0124 814B     		ldr	r3, .L116+4
 314 0126 1A68     		ldr	r2, [r3]
 315 0128 834B     		ldr	r3, .L116+16
 316 012a 1A60     		str	r2, [r3]
 317              	.LVL41:
 129:Queue/testafila.c ****   i = 0;
 318              		.loc 1 129 0
 319 012c 0024     		movs	r4, #0
 130:Queue/testafila.c ****   do
 131:Queue/testafila.c ****   {
 132:Queue/testafila.c ****     ASSERT(i == aux->id); // testa posição do elemento i
 320              		.loc 1 132 0
 321 012e 1D46     		mov	r5, r3
 322 0130 7F4F     		ldr	r7, .L116+8
 133:Queue/testafila.c ****     i++;
 134:Queue/testafila.c ****     aux = aux->next;
 135:Queue/testafila.c ****   } while (aux != fila0);
 323              		.loc 1 135 0
 324 0132 7E4E     		ldr	r6, .L116+4
 325 0134 06E0     		b	.L31
 326              	.LVL42:
 327              	.L30:
 133:Queue/testafila.c ****     i++;
 328              		.loc 1 133 0
 329 0136 0134     		adds	r4, r4, #1
 330              	.LVL43:
 134:Queue/testafila.c ****   } while (aux != fila0);
 331              		.loc 1 134 0
 332 0138 2B68     		ldr	r3, [r5]
 333 013a 5B68     		ldr	r3, [r3, #4]
 334 013c 2B60     		str	r3, [r5]
 335              		.loc 1 135 0
 336 013e 3268     		ldr	r2, [r6]
 337 0140 9342     		cmp	r3, r2
 338 0142 08D0     		beq	.L104
 339              	.LVL44:
 340              	.L31:
 132:Queue/testafila.c ****     i++;
 341              		.loc 1 132 0
 342 0144 2B68     		ldr	r3, [r5]
 343 0146 9B68     		ldr	r3, [r3, #8]
 344 0148 A342     		cmp	r3, r4
 345 014a F4D0     		beq	.L30
 132:Queue/testafila.c ****     i++;
 346              		.loc 1 132 0 is_stmt 0 discriminator 1
 347 014c 8421     		movs	r1, #132
 348 014e 3846     		mov	r0, r7
 349 0150 FFF7FEFF 		bl	__error__
 350              	.LVL45:
 351 0154 EFE7     		b	.L30
 352              	.L104:
 136:Queue/testafila.c **** 
 137:Queue/testafila.c ****   ASSERT(i == N);
 353              		.loc 1 137 0 is_stmt 1
 354 0156 642C     		cmp	r4, #100
 355 0158 11D1     		bne	.L105
 356              	.L32:
ARM GAS  C:\Users\Diogo\AppData\Local\Temp\cclZ0gYt.s 			page 10


 138:Queue/testafila.c **** 
 139:Queue/testafila.c ****   ASSERT(queue_size((queue_t *)fila0) == N);
 357              		.loc 1 139 0
 358 015a 744B     		ldr	r3, .L116+4
 359 015c 1868     		ldr	r0, [r3]
 360 015e FFF7FEFF 		bl	queue_size
 361              	.LVL46:
 362 0162 6428     		cmp	r0, #100
 363 0164 10D1     		bne	.L106
 364              	.L33:
 140:Queue/testafila.c **** 
 141:Queue/testafila.c ****   UARTprintf("Testes de insercao funcionaram!\n");
 365              		.loc 1 141 0
 366 0166 7548     		ldr	r0, .L116+20
 367 0168 FFF7FEFF 		bl	UARTprintf
 368              	.LVL47:
 142:Queue/testafila.c **** 
 143:Queue/testafila.c ****   // PARTE 2: queue_remove ====================================================
 144:Queue/testafila.c **** 
 145:Queue/testafila.c ****   // esvazia fila0, retirando sempre o primeiro elemento
 146:Queue/testafila.c ****   UARTprintf("Remocao %d vezes o primeiro elemento...\n", N);
 369              		.loc 1 146 0
 370 016c 6421     		movs	r1, #100
 371 016e 7448     		ldr	r0, .L116+24
 372 0170 FFF7FEFF 		bl	UARTprintf
 373              	.LVL48:
 147:Queue/testafila.c ****   i = 0;
 374              		.loc 1 147 0
 375 0174 0025     		movs	r5, #0
 148:Queue/testafila.c ****   while (i < N)
 149:Queue/testafila.c ****   {
 150:Queue/testafila.c ****     aux = fila0;
 376              		.loc 1 150 0
 377 0176 6D4E     		ldr	r6, .L116+4
 378 0178 6F4C     		ldr	r4, .L116+16
 151:Queue/testafila.c ****     queue_remove((queue_t **)&fila0, (queue_t *)aux);
 152:Queue/testafila.c ****     ASSERT(fila_correta(fila0)); // estrutura continua correta
 379              		.loc 1 152 0
 380 017a 6D4F     		ldr	r7, .L116+8
 381 017c 1FE0     		b	.L38
 382              	.LVL49:
 383              	.L105:
 137:Queue/testafila.c **** 
 384              		.loc 1 137 0 discriminator 1
 385 017e 8921     		movs	r1, #137
 386 0180 6B48     		ldr	r0, .L116+8
 387 0182 FFF7FEFF 		bl	__error__
 388              	.LVL50:
 389 0186 E8E7     		b	.L32
 390              	.L106:
 139:Queue/testafila.c **** 
 391              		.loc 1 139 0 discriminator 1
 392 0188 8B21     		movs	r1, #139
 393 018a 6948     		ldr	r0, .L116+8
 394 018c FFF7FEFF 		bl	__error__
 395              	.LVL51:
 396 0190 E9E7     		b	.L33
ARM GAS  C:\Users\Diogo\AppData\Local\Temp\cclZ0gYt.s 			page 11


 397              	.LVL52:
 398              	.L108:
 399              		.loc 1 152 0 discriminator 1
 400 0192 9821     		movs	r1, #152
 401 0194 3846     		mov	r0, r7
 402 0196 FFF7FEFF 		bl	__error__
 403              	.LVL53:
 404 019a 1AE0     		b	.L34
 405              	.L35:
 153:Queue/testafila.c ****     ASSERT(aux->id == i);        // testa ordem do elemento removido
 154:Queue/testafila.c ****     ASSERT(aux->prev == NULL);   // testa elemento removido
 406              		.loc 1 154 0
 407 019c 2368     		ldr	r3, [r4]
 408 019e 1B68     		ldr	r3, [r3]
 409 01a0 1BB1     		cbz	r3, .L36
 410              		.loc 1 154 0 is_stmt 0 discriminator 1
 411 01a2 9A21     		movs	r1, #154
 412 01a4 3846     		mov	r0, r7
 413 01a6 FFF7FEFF 		bl	__error__
 414              	.LVL54:
 415              	.L36:
 155:Queue/testafila.c ****     ASSERT(aux->next == NULL);   // testa elemento removido
 416              		.loc 1 155 0 is_stmt 1
 417 01aa 2368     		ldr	r3, [r4]
 418 01ac 5B68     		ldr	r3, [r3, #4]
 419 01ae 1BB1     		cbz	r3, .L37
 420              		.loc 1 155 0 is_stmt 0 discriminator 1
 421 01b0 9B21     		movs	r1, #155
 422 01b2 3846     		mov	r0, r7
 423 01b4 FFF7FEFF 		bl	__error__
 424              	.LVL55:
 425              	.L37:
 156:Queue/testafila.c ****     i++;
 426              		.loc 1 156 0 is_stmt 1
 427 01b8 0135     		adds	r5, r5, #1
 428              	.LVL56:
 148:Queue/testafila.c ****   {
 429              		.loc 1 148 0
 430 01ba 642D     		cmp	r5, #100
 431 01bc 12D0     		beq	.L107
 432              	.LVL57:
 433              	.L38:
 150:Queue/testafila.c ****     queue_remove((queue_t **)&fila0, (queue_t *)aux);
 434              		.loc 1 150 0
 435 01be 3168     		ldr	r1, [r6]
 436 01c0 2160     		str	r1, [r4]
 151:Queue/testafila.c ****     ASSERT(fila_correta(fila0)); // estrutura continua correta
 437              		.loc 1 151 0
 438 01c2 3046     		mov	r0, r6
 439 01c4 FFF7FEFF 		bl	queue_remove
 440              	.LVL58:
 152:Queue/testafila.c ****     ASSERT(aux->id == i);        // testa ordem do elemento removido
 441              		.loc 1 152 0
 442 01c8 3068     		ldr	r0, [r6]
 443 01ca FFF7FEFF 		bl	fila_correta
 444              	.LVL59:
 445 01ce 0028     		cmp	r0, #0
ARM GAS  C:\Users\Diogo\AppData\Local\Temp\cclZ0gYt.s 			page 12


 446 01d0 DFD0     		beq	.L108
 447              	.L34:
 153:Queue/testafila.c ****     ASSERT(aux->prev == NULL);   // testa elemento removido
 448              		.loc 1 153 0
 449 01d2 2368     		ldr	r3, [r4]
 450 01d4 9B68     		ldr	r3, [r3, #8]
 451 01d6 AB42     		cmp	r3, r5
 452 01d8 E0D0     		beq	.L35
 153:Queue/testafila.c ****     ASSERT(aux->prev == NULL);   // testa elemento removido
 453              		.loc 1 153 0 is_stmt 0 discriminator 1
 454 01da 9921     		movs	r1, #153
 455 01dc 3846     		mov	r0, r7
 456 01de FFF7FEFF 		bl	__error__
 457              	.LVL60:
 458 01e2 DBE7     		b	.L35
 459              	.L107:
 157:Queue/testafila.c ****   }
 158:Queue/testafila.c ****   ASSERT(fila0 == NULL); // fila deve estar vazia
 460              		.loc 1 158 0 is_stmt 1
 461 01e4 514B     		ldr	r3, .L116+4
 462 01e6 1B68     		ldr	r3, [r3]
 463 01e8 1BB1     		cbz	r3, .L39
 464              		.loc 1 158 0 is_stmt 0 discriminator 1
 465 01ea 9E21     		movs	r1, #158
 466 01ec 5048     		ldr	r0, .L116+8
 467 01ee FFF7FEFF 		bl	__error__
 468              	.LVL61:
 469              	.L39:
 159:Queue/testafila.c ****   UARTprintf("Ok, apos %d remocoes a fila ficou vazia\n", N);
 470              		.loc 1 159 0 is_stmt 1
 471 01f2 6421     		movs	r1, #100
 472 01f4 5348     		ldr	r0, .L116+28
 473 01f6 FFF7FEFF 		bl	UARTprintf
 474              	.LVL62:
 160:Queue/testafila.c **** 
 161:Queue/testafila.c ****   // reconstroi fila de teste
 162:Queue/testafila.c ****   fila0 = NULL;
 475              		.loc 1 162 0
 476 01fa 4C4B     		ldr	r3, .L116+4
 477 01fc 0022     		movs	r2, #0
 478 01fe 1A60     		str	r2, [r3]
 479              	.LVL63:
 480 0200 08F59666 		add	r6, r8, #1200
 481 0204 4546     		mov	r5, r8
 163:Queue/testafila.c ****   for (i = 0; i < N; i++)
 164:Queue/testafila.c ****     queue_append((queue_t **)&fila0, (queue_t *)&item[i]);
 482              		.loc 1 164 0
 483 0206 1C46     		mov	r4, r3
 484              	.LVL64:
 485              	.L40:
 486              		.loc 1 164 0 is_stmt 0 discriminator 3
 487 0208 2946     		mov	r1, r5
 488 020a 2046     		mov	r0, r4
 489 020c FFF7FEFF 		bl	queue_append
 490              	.LVL65:
 491 0210 0C35     		adds	r5, r5, #12
 163:Queue/testafila.c ****   for (i = 0; i < N; i++)
ARM GAS  C:\Users\Diogo\AppData\Local\Temp\cclZ0gYt.s 			page 13


 492              		.loc 1 163 0 is_stmt 1 discriminator 3
 493 0212 B542     		cmp	r5, r6
 494 0214 F8D1     		bne	.L40
 165:Queue/testafila.c **** 
 166:Queue/testafila.c ****   // esvazia fila0, retirando sempre o segundo elemento
 167:Queue/testafila.c ****   UARTprintf("Remocao %d vezes o segundo elemento...\n", N);
 495              		.loc 1 167 0
 496 0216 6421     		movs	r1, #100
 497 0218 4B48     		ldr	r0, .L116+32
 498 021a FFF7FEFF 		bl	UARTprintf
 499              	.LVL66:
 168:Queue/testafila.c ****   i = 0;
 500              		.loc 1 168 0
 501 021e 0024     		movs	r4, #0
 169:Queue/testafila.c ****   while (i < N)
 170:Queue/testafila.c ****   {
 171:Queue/testafila.c ****     aux = fila0->next;
 502              		.loc 1 171 0
 503 0220 424F     		ldr	r7, .L116+4
 504 0222 454E     		ldr	r6, .L116+16
 172:Queue/testafila.c ****     queue_remove((queue_t **)&fila0, (queue_t *)aux);
 173:Queue/testafila.c ****     ASSERT(fila_correta(fila0));      // estrutura continua correta
 174:Queue/testafila.c ****     ASSERT(aux->id == ((i + 1) % N)); // testa ordem do elemento removido
 505              		.loc 1 174 0
 506 0224 DFF82C91 		ldr	r9, .L116+44
 507 0228 14E0     		b	.L45
 508              	.LVL67:
 509              	.L110:
 173:Queue/testafila.c ****     ASSERT(aux->id == ((i + 1) % N)); // testa ordem do elemento removido
 510              		.loc 1 173 0 discriminator 1
 511 022a AD21     		movs	r1, #173
 512 022c 4048     		ldr	r0, .L116+8
 513 022e FFF7FEFF 		bl	__error__
 514              	.LVL68:
 515 0232 1AE0     		b	.L41
 516              	.LVL69:
 517              	.L42:
 175:Queue/testafila.c ****     ASSERT(aux->prev == NULL);        // testa elemento removido
 518              		.loc 1 175 0
 519 0234 3368     		ldr	r3, [r6]
 520 0236 1B68     		ldr	r3, [r3]
 521 0238 1BB1     		cbz	r3, .L43
 522              		.loc 1 175 0 is_stmt 0 discriminator 1
 523 023a AF21     		movs	r1, #175
 524 023c 3C48     		ldr	r0, .L116+8
 525 023e FFF7FEFF 		bl	__error__
 526              	.LVL70:
 527              	.L43:
 176:Queue/testafila.c ****     ASSERT(aux->next == NULL);        // testa elemento removido
 528              		.loc 1 176 0 is_stmt 1
 529 0242 3368     		ldr	r3, [r6]
 530 0244 5B68     		ldr	r3, [r3, #4]
 531 0246 1BB1     		cbz	r3, .L44
 532              		.loc 1 176 0 is_stmt 0 discriminator 1
 533 0248 B021     		movs	r1, #176
 534 024a 3948     		ldr	r0, .L116+8
 535 024c FFF7FEFF 		bl	__error__
ARM GAS  C:\Users\Diogo\AppData\Local\Temp\cclZ0gYt.s 			page 14


 536              	.LVL71:
 537              	.L44:
 169:Queue/testafila.c ****   {
 538              		.loc 1 169 0 is_stmt 1
 539 0250 642C     		cmp	r4, #100
 540 0252 1CD0     		beq	.L109
 541              	.LVL72:
 542              	.L45:
 171:Queue/testafila.c ****     queue_remove((queue_t **)&fila0, (queue_t *)aux);
 543              		.loc 1 171 0
 544 0254 3B68     		ldr	r3, [r7]
 545 0256 5968     		ldr	r1, [r3, #4]
 546 0258 3160     		str	r1, [r6]
 172:Queue/testafila.c ****     ASSERT(fila_correta(fila0));      // estrutura continua correta
 547              		.loc 1 172 0
 548 025a 3846     		mov	r0, r7
 549 025c FFF7FEFF 		bl	queue_remove
 550              	.LVL73:
 173:Queue/testafila.c ****     ASSERT(aux->id == ((i + 1) % N)); // testa ordem do elemento removido
 551              		.loc 1 173 0
 552 0260 3868     		ldr	r0, [r7]
 553 0262 FFF7FEFF 		bl	fila_correta
 554              	.LVL74:
 555 0266 0028     		cmp	r0, #0
 556 0268 DFD0     		beq	.L110
 557              	.L41:
 174:Queue/testafila.c ****     ASSERT(aux->prev == NULL);        // testa elemento removido
 558              		.loc 1 174 0
 559 026a 0134     		adds	r4, r4, #1
 560              	.LVL75:
 561 026c 3268     		ldr	r2, [r6]
 562 026e 89FB0431 		smull	r3, r1, r9, r4
 563 0272 E317     		asrs	r3, r4, #31
 564 0274 C3EB6113 		rsb	r3, r3, r1, asr #5
 565 0278 6421     		movs	r1, #100
 566 027a 01FB1343 		mls	r3, r1, r3, r4
 567 027e 9268     		ldr	r2, [r2, #8]
 568 0280 9A42     		cmp	r2, r3
 569 0282 D7D0     		beq	.L42
 174:Queue/testafila.c ****     ASSERT(aux->prev == NULL);        // testa elemento removido
 570              		.loc 1 174 0 is_stmt 0 discriminator 1
 571 0284 AE21     		movs	r1, #174
 572 0286 2A48     		ldr	r0, .L116+8
 573 0288 FFF7FEFF 		bl	__error__
 574              	.LVL76:
 575 028c D2E7     		b	.L42
 576              	.LVL77:
 577              	.L109:
 177:Queue/testafila.c ****     i++;
 178:Queue/testafila.c ****   }
 179:Queue/testafila.c ****   ASSERT(fila0 == NULL); // fila deve estar vazia
 578              		.loc 1 179 0 is_stmt 1
 579 028e 274B     		ldr	r3, .L116+4
 580 0290 1B68     		ldr	r3, [r3]
 581 0292 1BB1     		cbz	r3, .L46
 582              		.loc 1 179 0 is_stmt 0 discriminator 1
 583 0294 B321     		movs	r1, #179
ARM GAS  C:\Users\Diogo\AppData\Local\Temp\cclZ0gYt.s 			page 15


 584 0296 2648     		ldr	r0, .L116+8
 585 0298 FFF7FEFF 		bl	__error__
 586              	.LVL78:
 587              	.L46:
 180:Queue/testafila.c ****   UARTprintf("Ok, apos %d remocoes a fila ficou vazia\n", N);
 588              		.loc 1 180 0 is_stmt 1
 589 029c 6421     		movs	r1, #100
 590 029e 2948     		ldr	r0, .L116+28
 591 02a0 FFF7FEFF 		bl	UARTprintf
 592              	.LVL79:
 181:Queue/testafila.c **** 
 182:Queue/testafila.c ****   // reconstroi fila de teste
 183:Queue/testafila.c ****   fila0 = NULL;
 593              		.loc 1 183 0
 594 02a4 214B     		ldr	r3, .L116+4
 595 02a6 0022     		movs	r2, #0
 596 02a8 1A60     		str	r2, [r3]
 597              	.LVL80:
 598 02aa 4446     		mov	r4, r8
 184:Queue/testafila.c ****   for (i = 0; i < N; i++)
 185:Queue/testafila.c ****     queue_append((queue_t **)&fila0, (queue_t *)&item[i]);
 599              		.loc 1 185 0
 600 02ac 1E46     		mov	r6, r3
 601              	.LVL81:
 602              	.L47:
 603              		.loc 1 185 0 is_stmt 0 discriminator 3
 604 02ae 2146     		mov	r1, r4
 605 02b0 3046     		mov	r0, r6
 606 02b2 FFF7FEFF 		bl	queue_append
 607              	.LVL82:
 608 02b6 0C34     		adds	r4, r4, #12
 184:Queue/testafila.c ****   for (i = 0; i < N; i++)
 609              		.loc 1 184 0 is_stmt 1 discriminator 3
 610 02b8 AC42     		cmp	r4, r5
 611 02ba F8D1     		bne	.L47
 186:Queue/testafila.c **** 
 187:Queue/testafila.c ****   // esvazia fila0, retirando sempre o último elemento
 188:Queue/testafila.c ****   UARTprintf("Remocao %d vezes o último elemento...\n", N);
 612              		.loc 1 188 0
 613 02bc 6421     		movs	r1, #100
 614 02be 2348     		ldr	r0, .L116+36
 615 02c0 FFF7FEFF 		bl	UARTprintf
 616              	.LVL83:
 189:Queue/testafila.c ****   i = 0;
 617              		.loc 1 189 0
 618 02c4 0026     		movs	r6, #0
 190:Queue/testafila.c ****   while (i < N)
 191:Queue/testafila.c ****   {
 192:Queue/testafila.c ****     aux = fila0->prev;
 619              		.loc 1 192 0
 620 02c6 194F     		ldr	r7, .L116+4
 621 02c8 1B4D     		ldr	r5, .L116+16
 193:Queue/testafila.c ****     queue_remove((queue_t **)&fila0, (queue_t *)aux);
 194:Queue/testafila.c ****     ASSERT(fila_correta(fila0));  // estrutura continua correta
 622              		.loc 1 194 0
 623 02ca DFF86490 		ldr	r9, .L116+8
 624 02ce 15E0     		b	.L52
ARM GAS  C:\Users\Diogo\AppData\Local\Temp\cclZ0gYt.s 			page 16


 625              	.LVL84:
 626              	.L112:
 627              		.loc 1 194 0 is_stmt 0 discriminator 1
 628 02d0 C221     		movs	r1, #194
 629 02d2 4846     		mov	r0, r9
 630 02d4 FFF7FEFF 		bl	__error__
 631              	.LVL85:
 632 02d8 1BE0     		b	.L48
 633              	.L49:
 195:Queue/testafila.c ****     ASSERT(aux->id + i == N - 1); // testa ordem do elemento removido
 196:Queue/testafila.c ****     ASSERT(aux->prev == NULL);    // testa elemento removido
 634              		.loc 1 196 0 is_stmt 1
 635 02da 2B68     		ldr	r3, [r5]
 636 02dc 1B68     		ldr	r3, [r3]
 637 02de 1BB1     		cbz	r3, .L50
 638              		.loc 1 196 0 is_stmt 0 discriminator 1
 639 02e0 C421     		movs	r1, #196
 640 02e2 4846     		mov	r0, r9
 641 02e4 FFF7FEFF 		bl	__error__
 642              	.LVL86:
 643              	.L50:
 197:Queue/testafila.c ****     ASSERT(aux->next == NULL);    // testa elemento removido
 644              		.loc 1 197 0 is_stmt 1
 645 02e8 2B68     		ldr	r3, [r5]
 646 02ea 5B68     		ldr	r3, [r3, #4]
 647 02ec 1BB1     		cbz	r3, .L51
 648              		.loc 1 197 0 is_stmt 0 discriminator 1
 649 02ee C521     		movs	r1, #197
 650 02f0 4846     		mov	r0, r9
 651 02f2 FFF7FEFF 		bl	__error__
 652              	.LVL87:
 653              	.L51:
 198:Queue/testafila.c ****     i++;
 654              		.loc 1 198 0 is_stmt 1
 655 02f6 0136     		adds	r6, r6, #1
 656              	.LVL88:
 190:Queue/testafila.c ****   {
 657              		.loc 1 190 0
 658 02f8 642E     		cmp	r6, #100
 659 02fa 2DD0     		beq	.L111
 660              	.LVL89:
 661              	.L52:
 192:Queue/testafila.c ****     queue_remove((queue_t **)&fila0, (queue_t *)aux);
 662              		.loc 1 192 0
 663 02fc 3B68     		ldr	r3, [r7]
 664 02fe 1968     		ldr	r1, [r3]
 665 0300 2960     		str	r1, [r5]
 193:Queue/testafila.c ****     ASSERT(fila_correta(fila0));  // estrutura continua correta
 666              		.loc 1 193 0
 667 0302 3846     		mov	r0, r7
 668 0304 FFF7FEFF 		bl	queue_remove
 669              	.LVL90:
 194:Queue/testafila.c ****     ASSERT(aux->id + i == N - 1); // testa ordem do elemento removido
 670              		.loc 1 194 0
 671 0308 3868     		ldr	r0, [r7]
 672 030a FFF7FEFF 		bl	fila_correta
 673              	.LVL91:
ARM GAS  C:\Users\Diogo\AppData\Local\Temp\cclZ0gYt.s 			page 17


 674 030e 0028     		cmp	r0, #0
 675 0310 DED0     		beq	.L112
 676              	.L48:
 195:Queue/testafila.c ****     ASSERT(aux->prev == NULL);    // testa elemento removido
 677              		.loc 1 195 0
 678 0312 2B68     		ldr	r3, [r5]
 679 0314 9B68     		ldr	r3, [r3, #8]
 680 0316 3344     		add	r3, r3, r6
 681 0318 632B     		cmp	r3, #99
 682 031a DED0     		beq	.L49
 195:Queue/testafila.c ****     ASSERT(aux->prev == NULL);    // testa elemento removido
 683              		.loc 1 195 0 is_stmt 0 discriminator 1
 684 031c C321     		movs	r1, #195
 685 031e 4846     		mov	r0, r9
 686 0320 FFF7FEFF 		bl	__error__
 687              	.LVL92:
 688 0324 D9E7     		b	.L49
 689              	.L117:
 690 0326 00BF     		.align	2
 691              	.L116:
 692 0328 A4000000 		.word	.LC6
 693 032c 00000000 		.word	fila0
 694 0330 CC000000 		.word	.LC7
 695 0334 E0000000 		.word	.LC8
 696 0338 00000000 		.word	aux
 697 033c 18010000 		.word	.LC9
 698 0340 3C010000 		.word	.LC10
 699 0344 68010000 		.word	.LC11
 700 0348 94010000 		.word	.LC12
 701 034c BC010000 		.word	.LC13
 702 0350 00000000 		.word	item
 703 0354 1F85EB51 		.word	1374389535
 704              	.L111:
 199:Queue/testafila.c ****   }
 200:Queue/testafila.c ****   ASSERT(fila0 == NULL); // fila deve estar vazia
 705              		.loc 1 200 0 is_stmt 1
 706 0358 B14B     		ldr	r3, .L118
 707 035a 1B68     		ldr	r3, [r3]
 708 035c 1BB1     		cbz	r3, .L53
 709              		.loc 1 200 0 is_stmt 0 discriminator 1
 710 035e C821     		movs	r1, #200
 711 0360 B048     		ldr	r0, .L118+4
 712 0362 FFF7FEFF 		bl	__error__
 713              	.LVL93:
 714              	.L53:
 201:Queue/testafila.c ****   UARTprintf("Ok, apos %d remocoes a fila ficou vazia\n", N);
 715              		.loc 1 201 0 is_stmt 1
 716 0366 6421     		movs	r1, #100
 717 0368 AF48     		ldr	r0, .L118+8
 718 036a FFF7FEFF 		bl	UARTprintf
 719              	.LVL94:
 202:Queue/testafila.c **** 
 203:Queue/testafila.c ****   // reconstroi fila de teste
 204:Queue/testafila.c ****   fila0 = NULL;
 720              		.loc 1 204 0
 721 036e AC4B     		ldr	r3, .L118
 722 0370 0022     		movs	r2, #0
ARM GAS  C:\Users\Diogo\AppData\Local\Temp\cclZ0gYt.s 			page 18


 723 0372 1A60     		str	r2, [r3]
 724              	.LVL95:
 725 0374 4546     		mov	r5, r8
 205:Queue/testafila.c ****   for (i = 0; i < N; i++)
 206:Queue/testafila.c ****     queue_append((queue_t **)&fila0, (queue_t *)&item[i]);
 726              		.loc 1 206 0
 727 0376 1E46     		mov	r6, r3
 728              	.LVL96:
 729              	.L54:
 730              		.loc 1 206 0 is_stmt 0 discriminator 3
 731 0378 2946     		mov	r1, r5
 732 037a 3046     		mov	r0, r6
 733 037c FFF7FEFF 		bl	queue_append
 734              	.LVL97:
 735 0380 0C35     		adds	r5, r5, #12
 205:Queue/testafila.c ****   for (i = 0; i < N; i++)
 736              		.loc 1 205 0 is_stmt 1 discriminator 3
 737 0382 A542     		cmp	r5, r4
 738 0384 F8D1     		bne	.L54
 207:Queue/testafila.c **** 
 208:Queue/testafila.c ****   // remocoes aleatorias
 209:Queue/testafila.c ****   UARTprintf("Remocao %d vezes um elemento aleatório...\n", N);
 739              		.loc 1 209 0
 740 0386 6421     		movs	r1, #100
 741 0388 A848     		ldr	r0, .L118+12
 742 038a FFF7FEFF 		bl	UARTprintf
 743              	.LVL98:
 210:Queue/testafila.c ****   while (fila0)
 744              		.loc 1 210 0
 745 038e A44B     		ldr	r3, .L118
 746 0390 1B68     		ldr	r3, [r3]
 747 0392 CBB1     		cbz	r3, .L55
 211:Queue/testafila.c ****   {
 212:Queue/testafila.c ****     i = random() % queue_size((queue_t *)fila0);
 748              		.loc 1 212 0
 749 0394 A24C     		ldr	r4, .L118
 213:Queue/testafila.c ****     aux = fila0;
 750              		.loc 1 213 0
 751 0396 A64D     		ldr	r5, .L118+16
 752              	.L58:
 212:Queue/testafila.c ****     aux = fila0;
 753              		.loc 1 212 0
 754 0398 FFF7FEFF 		bl	random
 755              	.LVL99:
 756 039c 0646     		mov	r6, r0
 757 039e 2068     		ldr	r0, [r4]
 758 03a0 FFF7FEFF 		bl	queue_size
 759              	.LVL100:
 760 03a4 96FBF0F3 		sdiv	r3, r6, r0
 761 03a8 03FB1060 		mls	r0, r3, r0, r6
 762              	.LVL101:
 763              		.loc 1 213 0
 764 03ac 2368     		ldr	r3, [r4]
 765 03ae 2B60     		str	r3, [r5]
 214:Queue/testafila.c ****     while (i)
 766              		.loc 1 214 0
 767 03b0 18B1     		cbz	r0, .L56
ARM GAS  C:\Users\Diogo\AppData\Local\Temp\cclZ0gYt.s 			page 19


 768              	.L57:
 769              	.LVL102:
 215:Queue/testafila.c ****     {
 216:Queue/testafila.c ****       i--;
 217:Queue/testafila.c ****       aux = aux->next;
 770              		.loc 1 217 0
 771 03b2 5B68     		ldr	r3, [r3, #4]
 214:Queue/testafila.c ****     while (i)
 772              		.loc 1 214 0
 773 03b4 0138     		subs	r0, r0, #1
 774              	.LVL103:
 775 03b6 FCD1     		bne	.L57
 776 03b8 2B60     		str	r3, [r5]
 777              	.L56:
 218:Queue/testafila.c ****     }
 219:Queue/testafila.c ****     queue_remove((queue_t **)&fila0, (queue_t *)aux);
 778              		.loc 1 219 0
 779 03ba 2968     		ldr	r1, [r5]
 780 03bc 2046     		mov	r0, r4
 781              	.LVL104:
 782 03be FFF7FEFF 		bl	queue_remove
 783              	.LVL105:
 210:Queue/testafila.c ****   {
 784              		.loc 1 210 0
 785 03c2 2368     		ldr	r3, [r4]
 786 03c4 002B     		cmp	r3, #0
 787 03c6 E7D1     		bne	.L58
 788              	.L55:
 220:Queue/testafila.c ****   }
 221:Queue/testafila.c ****   ASSERT(fila0 == NULL); // fila deve estar vazia
 222:Queue/testafila.c ****   UARTprintf("Ok, apos %d remocoes aleatorias a fila ficou vazia\n", N);
 789              		.loc 1 222 0
 790 03c8 6421     		movs	r1, #100
 791 03ca 9A48     		ldr	r0, .L118+20
 792 03cc FFF7FEFF 		bl	UARTprintf
 793              	.LVL106:
 223:Queue/testafila.c **** 
 224:Queue/testafila.c ****   UARTprintf("Testes de remocao funcionaram!\n");
 794              		.loc 1 224 0
 795 03d0 9948     		ldr	r0, .L118+24
 796 03d2 FFF7FEFF 		bl	UARTprintf
 797              	.LVL107:
 798 03d6 4346     		mov	r3, r8
 225:Queue/testafila.c **** 
 226:Queue/testafila.c ****   // PARTE 3: operações inválidas =============================================
 227:Queue/testafila.c **** 
 228:Queue/testafila.c ****   // inicializa os N elementos
 229:Queue/testafila.c ****   for (i = 0; i < N; i++)
 799              		.loc 1 229 0
 800 03d8 0022     		movs	r2, #0
 230:Queue/testafila.c ****   {
 231:Queue/testafila.c ****     item[i].id = i;
 232:Queue/testafila.c ****     item[i].prev = NULL;
 801              		.loc 1 232 0
 802 03da 1146     		mov	r1, r2
 803              	.LVL108:
 804              	.L59:
ARM GAS  C:\Users\Diogo\AppData\Local\Temp\cclZ0gYt.s 			page 20


 231:Queue/testafila.c ****     item[i].prev = NULL;
 805              		.loc 1 231 0 discriminator 3
 806 03dc 9A60     		str	r2, [r3, #8]
 807              		.loc 1 232 0 discriminator 3
 808 03de 1960     		str	r1, [r3]
 233:Queue/testafila.c ****     item[i].next = NULL;
 809              		.loc 1 233 0 discriminator 3
 810 03e0 5960     		str	r1, [r3, #4]
 229:Queue/testafila.c ****   {
 811              		.loc 1 229 0 discriminator 3
 812 03e2 0132     		adds	r2, r2, #1
 813              	.LVL109:
 814 03e4 0C33     		adds	r3, r3, #12
 815 03e6 642A     		cmp	r2, #100
 816 03e8 F8D1     		bne	.L59
 234:Queue/testafila.c ****   }
 235:Queue/testafila.c **** 
 236:Queue/testafila.c ****   // preparar filas de teste
 237:Queue/testafila.c ****   fila0 = NULL;
 817              		.loc 1 237 0
 818 03ea 8D4C     		ldr	r4, .L118
 819 03ec 0023     		movs	r3, #0
 820 03ee 2360     		str	r3, [r4]
 238:Queue/testafila.c ****   fila1 = NULL;
 821              		.loc 1 238 0
 822 03f0 924F     		ldr	r7, .L118+28
 823 03f2 3B60     		str	r3, [r7]
 239:Queue/testafila.c ****   queue_append((queue_t **)&fila0, (queue_t *)&item[0]);
 824              		.loc 1 239 0
 825 03f4 924D     		ldr	r5, .L118+32
 826 03f6 2946     		mov	r1, r5
 827 03f8 2046     		mov	r0, r4
 828 03fa FFF7FEFF 		bl	queue_append
 829              	.LVL110:
 240:Queue/testafila.c ****   queue_append((queue_t **)&fila1, (queue_t *)&item[1]);
 830              		.loc 1 240 0
 831 03fe 05F10C06 		add	r6, r5, #12
 832 0402 3146     		mov	r1, r6
 833 0404 3846     		mov	r0, r7
 834 0406 FFF7FEFF 		bl	queue_append
 835              	.LVL111:
 241:Queue/testafila.c **** 
 242:Queue/testafila.c ****   // tentar remover elemento que está em outra fila
 243:Queue/testafila.c ****   UARTprintf("Testando remocao de elemento que está em outra fila...\n");
 836              		.loc 1 243 0
 837 040a 8E48     		ldr	r0, .L118+36
 838 040c FFF7FEFF 		bl	UARTprintf
 839              	.LVL112:
 244:Queue/testafila.c ****   queue_remove((queue_t **)&fila0, (queue_t *)&item[1]);
 840              		.loc 1 244 0
 841 0410 3146     		mov	r1, r6
 842 0412 2046     		mov	r0, r4
 843 0414 FFF7FEFF 		bl	queue_remove
 844              	.LVL113:
 245:Queue/testafila.c ****   ASSERT(fila0 == &item[0]);
 845              		.loc 1 245 0
 846 0418 2368     		ldr	r3, [r4]
ARM GAS  C:\Users\Diogo\AppData\Local\Temp\cclZ0gYt.s 			page 21


 847 041a AB42     		cmp	r3, r5
 848 041c 03D0     		beq	.L60
 849              		.loc 1 245 0 is_stmt 0 discriminator 1
 850 041e F521     		movs	r1, #245
 851 0420 8048     		ldr	r0, .L118+4
 852 0422 FFF7FEFF 		bl	__error__
 853              	.LVL114:
 854              	.L60:
 246:Queue/testafila.c ****   ASSERT(item[0].prev == &item[0]);
 855              		.loc 1 246 0 is_stmt 1
 856 0426 864B     		ldr	r3, .L118+32
 857 0428 1A68     		ldr	r2, [r3]
 858 042a 9A42     		cmp	r2, r3
 859 042c 03D0     		beq	.L61
 860              		.loc 1 246 0 is_stmt 0 discriminator 1
 861 042e F621     		movs	r1, #246
 862 0430 7C48     		ldr	r0, .L118+4
 863 0432 FFF7FEFF 		bl	__error__
 864              	.LVL115:
 865              	.L61:
 247:Queue/testafila.c ****   ASSERT(item[0].next == &item[0]);
 866              		.loc 1 247 0 is_stmt 1
 867 0436 824B     		ldr	r3, .L118+32
 868 0438 5A68     		ldr	r2, [r3, #4]
 869 043a 9A42     		cmp	r2, r3
 870 043c 03D0     		beq	.L62
 871              		.loc 1 247 0 is_stmt 0 discriminator 1
 872 043e F721     		movs	r1, #247
 873 0440 7848     		ldr	r0, .L118+4
 874 0442 FFF7FEFF 		bl	__error__
 875              	.LVL116:
 876              	.L62:
 248:Queue/testafila.c ****   ASSERT(item[1].prev == &item[1]);
 877              		.loc 1 248 0 is_stmt 1
 878 0446 7E4B     		ldr	r3, .L118+32
 879 0448 03F10C02 		add	r2, r3, #12
 880 044c DB68     		ldr	r3, [r3, #12]
 881 044e 9342     		cmp	r3, r2
 882 0450 03D0     		beq	.L63
 883              		.loc 1 248 0 is_stmt 0 discriminator 1
 884 0452 F821     		movs	r1, #248
 885 0454 7348     		ldr	r0, .L118+4
 886 0456 FFF7FEFF 		bl	__error__
 887              	.LVL117:
 888              	.L63:
 249:Queue/testafila.c ****   ASSERT(item[1].next == &item[1]);
 889              		.loc 1 249 0 is_stmt 1
 890 045a 794B     		ldr	r3, .L118+32
 891 045c 03F10C02 		add	r2, r3, #12
 892 0460 1B69     		ldr	r3, [r3, #16]
 893 0462 9342     		cmp	r3, r2
 894 0464 03D0     		beq	.L64
 895              		.loc 1 249 0 is_stmt 0 discriminator 1
 896 0466 F921     		movs	r1, #249
 897 0468 6E48     		ldr	r0, .L118+4
 898 046a FFF7FEFF 		bl	__error__
 899              	.LVL118:
ARM GAS  C:\Users\Diogo\AppData\Local\Temp\cclZ0gYt.s 			page 22


 900              	.L64:
 250:Queue/testafila.c ****   UARTprintf("Ok, nao deixou remover um elemento de outra fila\n");
 901              		.loc 1 250 0 is_stmt 1
 902 046e 7648     		ldr	r0, .L118+40
 903 0470 FFF7FEFF 		bl	UARTprintf
 904              	.LVL119:
 251:Queue/testafila.c **** 
 252:Queue/testafila.c ****   // tentar remover elemento que não está em nenhuma fila
 253:Queue/testafila.c ****   UARTprintf("Testando remocao de elemento que não está em nenhuma fila...\n");
 905              		.loc 1 253 0
 906 0474 7548     		ldr	r0, .L118+44
 907 0476 FFF7FEFF 		bl	UARTprintf
 908              	.LVL120:
 254:Queue/testafila.c ****   queue_remove((queue_t **)&fila0, (queue_t *)&item[2]);
 909              		.loc 1 254 0
 910 047a 754C     		ldr	r4, .L118+48
 911 047c 684D     		ldr	r5, .L118
 912 047e 2146     		mov	r1, r4
 913 0480 2846     		mov	r0, r5
 914 0482 FFF7FEFF 		bl	queue_remove
 915              	.LVL121:
 255:Queue/testafila.c ****   ASSERT(fila0 == &item[0]);
 916              		.loc 1 255 0
 917 0486 183C     		subs	r4, r4, #24
 918 0488 2B68     		ldr	r3, [r5]
 919 048a A342     		cmp	r3, r4
 920 048c 03D0     		beq	.L65
 921              		.loc 1 255 0 is_stmt 0 discriminator 1
 922 048e FF21     		movs	r1, #255
 923 0490 6448     		ldr	r0, .L118+4
 924 0492 FFF7FEFF 		bl	__error__
 925              	.LVL122:
 926              	.L65:
 256:Queue/testafila.c ****   ASSERT(item[0].prev == &item[0]);
 927              		.loc 1 256 0 is_stmt 1
 928 0496 6A4B     		ldr	r3, .L118+32
 929 0498 1A68     		ldr	r2, [r3]
 930 049a 9A42     		cmp	r2, r3
 931 049c 04D0     		beq	.L66
 932              		.loc 1 256 0 is_stmt 0 discriminator 1
 933 049e 4FF48071 		mov	r1, #256
 934 04a2 6048     		ldr	r0, .L118+4
 935 04a4 FFF7FEFF 		bl	__error__
 936              	.LVL123:
 937              	.L66:
 257:Queue/testafila.c ****   ASSERT(item[0].next == &item[0]);
 938              		.loc 1 257 0 is_stmt 1
 939 04a8 654B     		ldr	r3, .L118+32
 940 04aa 5A68     		ldr	r2, [r3, #4]
 941 04ac 9A42     		cmp	r2, r3
 942 04ae 04D0     		beq	.L67
 943              		.loc 1 257 0 is_stmt 0 discriminator 1
 944 04b0 40F20111 		movw	r1, #257
 945 04b4 5B48     		ldr	r0, .L118+4
 946 04b6 FFF7FEFF 		bl	__error__
 947              	.LVL124:
 948              	.L67:
ARM GAS  C:\Users\Diogo\AppData\Local\Temp\cclZ0gYt.s 			page 23


 258:Queue/testafila.c ****   ASSERT(item[2].prev == NULL);
 949              		.loc 1 258 0 is_stmt 1
 950 04ba 614B     		ldr	r3, .L118+32
 951 04bc 9B69     		ldr	r3, [r3, #24]
 952 04be 23B1     		cbz	r3, .L68
 953              		.loc 1 258 0 is_stmt 0 discriminator 1
 954 04c0 4FF48171 		mov	r1, #258
 955 04c4 5748     		ldr	r0, .L118+4
 956 04c6 FFF7FEFF 		bl	__error__
 957              	.LVL125:
 958              	.L68:
 259:Queue/testafila.c ****   ASSERT(item[2].next == NULL);
 959              		.loc 1 259 0 is_stmt 1
 960 04ca 5D4B     		ldr	r3, .L118+32
 961 04cc DB69     		ldr	r3, [r3, #28]
 962 04ce 23B1     		cbz	r3, .L69
 963              		.loc 1 259 0 is_stmt 0 discriminator 1
 964 04d0 40F20311 		movw	r1, #259
 965 04d4 5348     		ldr	r0, .L118+4
 966 04d6 FFF7FEFF 		bl	__error__
 967              	.LVL126:
 968              	.L69:
 260:Queue/testafila.c ****   UARTprintf("Ok, nao deixou remover um elemento que não está em nenhuma fila\n");
 969              		.loc 1 260 0 is_stmt 1
 970 04da 5E48     		ldr	r0, .L118+52
 971 04dc FFF7FEFF 		bl	UARTprintf
 972              	.LVL127:
 261:Queue/testafila.c **** 
 262:Queue/testafila.c ****   // tentar inserir algo que já está na mesma fila
 263:Queue/testafila.c ****   UARTprintf("Testando insercao de elemento que já está na fila...\n");
 973              		.loc 1 263 0
 974 04e0 5D48     		ldr	r0, .L118+56
 975 04e2 FFF7FEFF 		bl	UARTprintf
 976              	.LVL128:
 264:Queue/testafila.c ****   queue_append((queue_t **)&fila0, (queue_t *)&item[0]);
 977              		.loc 1 264 0
 978 04e6 564C     		ldr	r4, .L118+32
 979 04e8 4D4D     		ldr	r5, .L118
 980 04ea 2146     		mov	r1, r4
 981 04ec 2846     		mov	r0, r5
 982 04ee FFF7FEFF 		bl	queue_append
 983              	.LVL129:
 265:Queue/testafila.c ****   ASSERT(fila0 == &item[0]);
 984              		.loc 1 265 0
 985 04f2 2B68     		ldr	r3, [r5]
 986 04f4 A342     		cmp	r3, r4
 987 04f6 04D0     		beq	.L70
 988              		.loc 1 265 0 is_stmt 0 discriminator 1
 989 04f8 40F20911 		movw	r1, #265
 990 04fc 4948     		ldr	r0, .L118+4
 991 04fe FFF7FEFF 		bl	__error__
 992              	.LVL130:
 993              	.L70:
 266:Queue/testafila.c ****   ASSERT(item[0].prev == &item[0]);
 994              		.loc 1 266 0 is_stmt 1
 995 0502 4F4B     		ldr	r3, .L118+32
 996 0504 1A68     		ldr	r2, [r3]
ARM GAS  C:\Users\Diogo\AppData\Local\Temp\cclZ0gYt.s 			page 24


 997 0506 9A42     		cmp	r2, r3
 998 0508 04D0     		beq	.L71
 999              		.loc 1 266 0 is_stmt 0 discriminator 1
 1000 050a 4FF48571 		mov	r1, #266
 1001 050e 4548     		ldr	r0, .L118+4
 1002 0510 FFF7FEFF 		bl	__error__
 1003              	.LVL131:
 1004              	.L71:
 267:Queue/testafila.c ****   ASSERT(item[0].next == &item[0]);
 1005              		.loc 1 267 0 is_stmt 1
 1006 0514 4A4B     		ldr	r3, .L118+32
 1007 0516 5A68     		ldr	r2, [r3, #4]
 1008 0518 9A42     		cmp	r2, r3
 1009 051a 04D0     		beq	.L72
 1010              		.loc 1 267 0 is_stmt 0 discriminator 1
 1011 051c 40F20B11 		movw	r1, #267
 1012 0520 4048     		ldr	r0, .L118+4
 1013 0522 FFF7FEFF 		bl	__error__
 1014              	.LVL132:
 1015              	.L72:
 268:Queue/testafila.c ****   UARTprintf("Ok, não deixou inserir elemento que já estava na fila\n");
 1016              		.loc 1 268 0 is_stmt 1
 1017 0526 4D48     		ldr	r0, .L118+60
 1018 0528 FFF7FEFF 		bl	UARTprintf
 1019              	.LVL133:
 269:Queue/testafila.c **** 
 270:Queue/testafila.c ****   // tentar inserir algo que está em outra fila
 271:Queue/testafila.c ****   UARTprintf("Testando insercao de elemento que está em outra fila...\n");
 1020              		.loc 1 271 0
 1021 052c 4C48     		ldr	r0, .L118+64
 1022 052e FFF7FEFF 		bl	UARTprintf
 1023              	.LVL134:
 272:Queue/testafila.c ****   queue_append((queue_t **)&fila0, (queue_t *)&item[1]);
 1024              		.loc 1 272 0
 1025 0532 4C4C     		ldr	r4, .L118+68
 1026 0534 3A4D     		ldr	r5, .L118
 1027 0536 2146     		mov	r1, r4
 1028 0538 2846     		mov	r0, r5
 1029 053a FFF7FEFF 		bl	queue_append
 1030              	.LVL135:
 273:Queue/testafila.c ****   ASSERT(fila0 == &item[0]);
 1031              		.loc 1 273 0
 1032 053e 0C3C     		subs	r4, r4, #12
 1033 0540 2B68     		ldr	r3, [r5]
 1034 0542 A342     		cmp	r3, r4
 1035 0544 04D0     		beq	.L73
 1036              		.loc 1 273 0 is_stmt 0 discriminator 1
 1037 0546 40F21111 		movw	r1, #273
 1038 054a 3648     		ldr	r0, .L118+4
 1039 054c FFF7FEFF 		bl	__error__
 1040              	.LVL136:
 1041              	.L73:
 274:Queue/testafila.c ****   ASSERT(item[0].prev == &item[0]);
 1042              		.loc 1 274 0 is_stmt 1
 1043 0550 3B4B     		ldr	r3, .L118+32
 1044 0552 1A68     		ldr	r2, [r3]
 1045 0554 9A42     		cmp	r2, r3
ARM GAS  C:\Users\Diogo\AppData\Local\Temp\cclZ0gYt.s 			page 25


 1046 0556 04D0     		beq	.L74
 1047              		.loc 1 274 0 is_stmt 0 discriminator 1
 1048 0558 4FF48971 		mov	r1, #274
 1049 055c 3148     		ldr	r0, .L118+4
 1050 055e FFF7FEFF 		bl	__error__
 1051              	.LVL137:
 1052              	.L74:
 275:Queue/testafila.c ****   ASSERT(item[0].next == &item[0]);
 1053              		.loc 1 275 0 is_stmt 1
 1054 0562 374B     		ldr	r3, .L118+32
 1055 0564 5A68     		ldr	r2, [r3, #4]
 1056 0566 9A42     		cmp	r2, r3
 1057 0568 04D0     		beq	.L75
 1058              		.loc 1 275 0 is_stmt 0 discriminator 1
 1059 056a 40F21311 		movw	r1, #275
 1060 056e 2D48     		ldr	r0, .L118+4
 1061 0570 FFF7FEFF 		bl	__error__
 1062              	.LVL138:
 1063              	.L75:
 276:Queue/testafila.c ****   ASSERT(fila1 == &item[1]);
 1064              		.loc 1 276 0 is_stmt 1
 1065 0574 314B     		ldr	r3, .L118+28
 1066 0576 1A68     		ldr	r2, [r3]
 1067 0578 3A4B     		ldr	r3, .L118+68
 1068 057a 9A42     		cmp	r2, r3
 1069 057c 04D0     		beq	.L76
 1070              		.loc 1 276 0 is_stmt 0 discriminator 1
 1071 057e 4FF48A71 		mov	r1, #276
 1072 0582 2848     		ldr	r0, .L118+4
 1073 0584 FFF7FEFF 		bl	__error__
 1074              	.LVL139:
 1075              	.L76:
 277:Queue/testafila.c ****   ASSERT(item[1].prev == &item[1]);
 1076              		.loc 1 277 0 is_stmt 1
 1077 0588 2D4B     		ldr	r3, .L118+32
 1078 058a 03F10C02 		add	r2, r3, #12
 1079 058e DB68     		ldr	r3, [r3, #12]
 1080 0590 9342     		cmp	r3, r2
 1081 0592 04D0     		beq	.L77
 1082              		.loc 1 277 0 is_stmt 0 discriminator 1
 1083 0594 40F21511 		movw	r1, #277
 1084 0598 2248     		ldr	r0, .L118+4
 1085 059a FFF7FEFF 		bl	__error__
 1086              	.LVL140:
 1087              	.L77:
 278:Queue/testafila.c ****   ASSERT(item[1].next == &item[1]);
 1088              		.loc 1 278 0 is_stmt 1
 1089 059e 284B     		ldr	r3, .L118+32
 1090 05a0 03F10C02 		add	r2, r3, #12
 1091 05a4 1B69     		ldr	r3, [r3, #16]
 1092 05a6 9342     		cmp	r3, r2
 1093 05a8 04D0     		beq	.L78
 1094              		.loc 1 278 0 is_stmt 0 discriminator 1
 1095 05aa 4FF48B71 		mov	r1, #278
 1096 05ae 1D48     		ldr	r0, .L118+4
 1097 05b0 FFF7FEFF 		bl	__error__
 1098              	.LVL141:
ARM GAS  C:\Users\Diogo\AppData\Local\Temp\cclZ0gYt.s 			page 26


 1099              	.L78:
 279:Queue/testafila.c ****   UARTprintf("Ok, não deixou inserir elemento que está em outra fila\n");
 1100              		.loc 1 279 0 is_stmt 1
 1101 05b4 2C48     		ldr	r0, .L118+72
 1102 05b6 FFF7FEFF 		bl	UARTprintf
 1103              	.LVL142:
 280:Queue/testafila.c **** 
 281:Queue/testafila.c ****   // criar uma grande fila com entradas dinamicas
 282:Queue/testafila.c ****   fila0 = NULL;
 1104              		.loc 1 282 0
 1105 05ba 0024     		movs	r4, #0
 1106 05bc 184B     		ldr	r3, .L118
 1107 05be 1C60     		str	r4, [r3]
 1108              	.LVL143:
 283:Queue/testafila.c ****   for (i = 0; i < N * N; i++)
 284:Queue/testafila.c ****   {
 285:Queue/testafila.c ****     aux = (filaint_t *)malloc(sizeof(filaint_t));
 1109              		.loc 1 285 0
 1110 05c0 1B4E     		ldr	r6, .L118+16
 286:Queue/testafila.c ****     aux->id = i;
 287:Queue/testafila.c ****     aux->prev = aux->next = NULL;
 288:Queue/testafila.c ****     queue_append((queue_t **)&fila0, (queue_t *)aux);
 1111              		.loc 1 288 0
 1112 05c2 1D46     		mov	r5, r3
 289:Queue/testafila.c ****     ASSERT(fila_correta(fila0));
 1113              		.loc 1 289 0
 1114 05c4 174F     		ldr	r7, .L118+4
 1115 05c6 04E0     		b	.L80
 1116              	.LVL144:
 1117              	.L79:
 283:Queue/testafila.c ****   for (i = 0; i < N * N; i++)
 1118              		.loc 1 283 0 discriminator 2
 1119 05c8 0134     		adds	r4, r4, #1
 1120              	.LVL145:
 1121 05ca 42F21073 		movw	r3, #10000
 1122 05ce 9C42     		cmp	r4, r3
 1123 05d0 16D0     		beq	.L113
 1124              	.LVL146:
 1125              	.L80:
 285:Queue/testafila.c ****     aux->id = i;
 1126              		.loc 1 285 0
 1127 05d2 0C20     		movs	r0, #12
 1128 05d4 FFF7FEFF 		bl	malloc
 1129              	.LVL147:
 1130 05d8 0146     		mov	r1, r0
 1131 05da 3060     		str	r0, [r6]
 286:Queue/testafila.c ****     aux->id = i;
 1132              		.loc 1 286 0
 1133 05dc 8460     		str	r4, [r0, #8]
 287:Queue/testafila.c ****     queue_append((queue_t **)&fila0, (queue_t *)aux);
 1134              		.loc 1 287 0
 1135 05de 0023     		movs	r3, #0
 1136 05e0 4360     		str	r3, [r0, #4]
 1137 05e2 0360     		str	r3, [r0]
 288:Queue/testafila.c ****     ASSERT(fila_correta(fila0));
 1138              		.loc 1 288 0
 1139 05e4 2846     		mov	r0, r5
ARM GAS  C:\Users\Diogo\AppData\Local\Temp\cclZ0gYt.s 			page 27


 1140 05e6 FFF7FEFF 		bl	queue_append
 1141              	.LVL148:
 1142              		.loc 1 289 0
 1143 05ea 2868     		ldr	r0, [r5]
 1144 05ec FFF7FEFF 		bl	fila_correta
 1145              	.LVL149:
 1146 05f0 0028     		cmp	r0, #0
 1147 05f2 E9D1     		bne	.L79
 1148              		.loc 1 289 0 is_stmt 0 discriminator 1
 1149 05f4 40F22111 		movw	r1, #289
 1150 05f8 3846     		mov	r0, r7
 1151 05fa FFF7FEFF 		bl	__error__
 1152              	.LVL150:
 1153 05fe E3E7     		b	.L79
 1154              	.L113:
 290:Queue/testafila.c ****   }
 291:Queue/testafila.c ****   UARTprintf("Ok, criei uma fila com %d elementos ordenados\n", N * N);
 1155              		.loc 1 291 0 is_stmt 1
 1156 0600 1946     		mov	r1, r3
 1157 0602 1A48     		ldr	r0, .L118+76
 1158 0604 FFF7FEFF 		bl	UARTprintf
 1159              	.LVL151:
 292:Queue/testafila.c **** 
 293:Queue/testafila.c ****   // retirar e destruir cada elemento da fila, em sequencia
 294:Queue/testafila.c ****   for (i = 0; i < N * N; i++)
 1160              		.loc 1 294 0
 1161 0608 0024     		movs	r4, #0
 295:Queue/testafila.c ****   {
 296:Queue/testafila.c ****     aux = (filaint_t *)queue_remove((queue_t **)&fila0, (queue_t *)fila0);
 1162              		.loc 1 296 0
 1163 060a 054E     		ldr	r6, .L118
 1164 060c 084D     		ldr	r5, .L118+16
 297:Queue/testafila.c ****     ASSERT(fila_correta(fila0));
 1165              		.loc 1 297 0
 1166 060e 054F     		ldr	r7, .L118+4
 1167 0610 36E0     		b	.L83
 1168              	.LVL152:
 1169              	.L115:
 1170              		.loc 1 297 0 is_stmt 0 discriminator 1
 1171 0612 40F22911 		movw	r1, #297
 1172 0616 3846     		mov	r0, r7
 1173 0618 FFF7FEFF 		bl	__error__
 1174              	.LVL153:
 1175 061c 3AE0     		b	.L81
 1176              	.L119:
 1177 061e 00BF     		.align	2
 1178              	.L118:
 1179 0620 00000000 		.word	fila0
 1180 0624 CC000000 		.word	.LC7
 1181 0628 68010000 		.word	.LC11
 1182 062c E4010000 		.word	.LC14
 1183 0630 00000000 		.word	aux
 1184 0634 10020000 		.word	.LC15
 1185 0638 44020000 		.word	.LC16
 1186 063c 00000000 		.word	fila1
 1187 0640 00000000 		.word	item
 1188 0644 64020000 		.word	.LC17
ARM GAS  C:\Users\Diogo\AppData\Local\Temp\cclZ0gYt.s 			page 28


 1189 0648 A0020000 		.word	.LC18
 1190 064c D4020000 		.word	.LC19
 1191 0650 18000000 		.word	item+24
 1192 0654 14030000 		.word	.LC20
 1193 0658 58030000 		.word	.LC21
 1194 065c 90030000 		.word	.LC22
 1195 0660 CC030000 		.word	.LC23
 1196 0664 0C000000 		.word	item+12
 1197 0668 08040000 		.word	.LC24
 1198 066c 44040000 		.word	.LC25
 1199              	.L82:
 298:Queue/testafila.c ****     ASSERT(aux->id == i);
 299:Queue/testafila.c ****     free(aux);
 1200              		.loc 1 299 0 is_stmt 1 discriminator 2
 1201 0670 2868     		ldr	r0, [r5]
 1202 0672 FFF7FEFF 		bl	free
 1203              	.LVL154:
 294:Queue/testafila.c ****   {
 1204              		.loc 1 294 0 discriminator 2
 1205 0676 0134     		adds	r4, r4, #1
 1206              	.LVL155:
 1207 0678 42F21073 		movw	r3, #10000
 1208 067c 9C42     		cmp	r4, r3
 1209 067e 13D0     		beq	.L114
 1210              	.LVL156:
 1211              	.L83:
 296:Queue/testafila.c ****     ASSERT(fila_correta(fila0));
 1212              		.loc 1 296 0
 1213 0680 3168     		ldr	r1, [r6]
 1214 0682 3046     		mov	r0, r6
 1215 0684 FFF7FEFF 		bl	queue_remove
 1216              	.LVL157:
 1217 0688 2860     		str	r0, [r5]
 297:Queue/testafila.c ****     ASSERT(aux->id == i);
 1218              		.loc 1 297 0
 1219 068a 3068     		ldr	r0, [r6]
 1220 068c FFF7FEFF 		bl	fila_correta
 1221              	.LVL158:
 1222 0690 0028     		cmp	r0, #0
 1223 0692 BED0     		beq	.L115
 1224              	.L81:
 298:Queue/testafila.c ****     free(aux);
 1225              		.loc 1 298 0
 1226 0694 2B68     		ldr	r3, [r5]
 1227 0696 9B68     		ldr	r3, [r3, #8]
 1228 0698 A342     		cmp	r3, r4
 1229 069a E9D0     		beq	.L82
 298:Queue/testafila.c ****     free(aux);
 1230              		.loc 1 298 0 is_stmt 0 discriminator 1
 1231 069c 4FF49571 		mov	r1, #298
 1232 06a0 3846     		mov	r0, r7
 1233 06a2 FFF7FEFF 		bl	__error__
 1234              	.LVL159:
 1235 06a6 E3E7     		b	.L82
 1236              	.L114:
 300:Queue/testafila.c ****   }
 301:Queue/testafila.c ****   UARTprintf("Ok, retirei e destrui em ordem %d elementos da fila\n", N * N);
ARM GAS  C:\Users\Diogo\AppData\Local\Temp\cclZ0gYt.s 			page 29


 1237              		.loc 1 301 0 is_stmt 1
 1238 06a8 1946     		mov	r1, r3
 1239 06aa 1B48     		ldr	r0, .L120
 1240 06ac FFF7FEFF 		bl	UARTprintf
 1241              	.LVL160:
 302:Queue/testafila.c **** 
 303:Queue/testafila.c ****   UARTprintf("Testes de operações inválidas funcionaram!\n");
 1242              		.loc 1 303 0
 1243 06b0 1A48     		ldr	r0, .L120+4
 1244 06b2 FFF7FEFF 		bl	UARTprintf
 1245              	.LVL161:
 304:Queue/testafila.c **** 
 305:Queue/testafila.c ****   // PARTE 4: queue_print =====================================================
 306:Queue/testafila.c **** 
 307:Queue/testafila.c ****   UARTprintf("Teste do queue_print...\n");
 1246              		.loc 1 307 0
 1247 06b6 1A48     		ldr	r0, .L120+8
 1248 06b8 FFF7FEFF 		bl	UARTprintf
 1249              	.LVL162:
 1250 06bc 4346     		mov	r3, r8
 308:Queue/testafila.c **** 
 309:Queue/testafila.c ****   // inicializa os N elementos
 310:Queue/testafila.c ****   for (i = 0; i < N; i++)
 1251              		.loc 1 310 0
 1252 06be 0022     		movs	r2, #0
 311:Queue/testafila.c ****   {
 312:Queue/testafila.c ****     item[i].id = i;
 313:Queue/testafila.c ****     item[i].prev = NULL;
 1253              		.loc 1 313 0
 1254 06c0 1146     		mov	r1, r2
 1255              	.LVL163:
 1256              	.L84:
 312:Queue/testafila.c ****     item[i].prev = NULL;
 1257              		.loc 1 312 0 discriminator 3
 1258 06c2 9A60     		str	r2, [r3, #8]
 1259              		.loc 1 313 0 discriminator 3
 1260 06c4 1960     		str	r1, [r3]
 314:Queue/testafila.c ****     item[i].next = NULL;
 1261              		.loc 1 314 0 discriminator 3
 1262 06c6 5960     		str	r1, [r3, #4]
 310:Queue/testafila.c ****   {
 1263              		.loc 1 310 0 discriminator 3
 1264 06c8 0132     		adds	r2, r2, #1
 1265              	.LVL164:
 1266 06ca 0C33     		adds	r3, r3, #12
 1267 06cc 642A     		cmp	r2, #100
 1268 06ce F8D1     		bne	.L84
 315:Queue/testafila.c ****   }
 316:Queue/testafila.c **** 
 317:Queue/testafila.c ****   // uma fila vazia
 318:Queue/testafila.c ****   fila0 = NULL;
 1269              		.loc 1 318 0
 1270 06d0 144C     		ldr	r4, .L120+12
 1271 06d2 0023     		movs	r3, #0
 1272 06d4 2360     		str	r3, [r4]
 319:Queue/testafila.c **** 
 320:Queue/testafila.c ****   // imprimir a fila
ARM GAS  C:\Users\Diogo\AppData\Local\Temp\cclZ0gYt.s 			page 30


 321:Queue/testafila.c ****   UARTprintf("Saida esperada: []\n");
 1273              		.loc 1 321 0
 1274 06d6 1448     		ldr	r0, .L120+16
 1275 06d8 FFF7FEFF 		bl	UARTprintf
 1276              	.LVL165:
 322:Queue/testafila.c ****   queue_print("Saida gerada  ", (queue_t *)fila0, print_elem);
 1277              		.loc 1 322 0
 1278 06dc 134A     		ldr	r2, .L120+20
 1279 06de 2168     		ldr	r1, [r4]
 1280 06e0 1348     		ldr	r0, .L120+24
 1281 06e2 FFF7FEFF 		bl	queue_print
 1282              	.LVL166:
 1283 06e6 08F17805 		add	r5, r8, #120
 1284              	.LVL167:
 1285              	.L85:
 323:Queue/testafila.c **** 
 324:Queue/testafila.c ****   // uma fila com 10 elementos
 325:Queue/testafila.c ****   for (i = 0; i < 10; i++)
 326:Queue/testafila.c ****     queue_append((queue_t **)&fila0, (queue_t *)&item[i]);
 1286              		.loc 1 326 0 discriminator 3
 1287 06ea 4146     		mov	r1, r8
 1288 06ec 2046     		mov	r0, r4
 1289 06ee FFF7FEFF 		bl	queue_append
 1290              	.LVL168:
 1291 06f2 08F10C08 		add	r8, r8, #12
 325:Queue/testafila.c ****     queue_append((queue_t **)&fila0, (queue_t *)&item[i]);
 1292              		.loc 1 325 0 discriminator 3
 1293 06f6 A845     		cmp	r8, r5
 1294 06f8 F7D1     		bne	.L85
 327:Queue/testafila.c **** 
 328:Queue/testafila.c ****   // imprimir a fila
 329:Queue/testafila.c ****   UARTprintf("Saida esperada: [9<0>1 0<1>2 1<2>3 2<3>4 3<4>5 4<5>6 5<6>7 6<7>8 7<8>9 8<9>0]\n");
 1295              		.loc 1 329 0
 1296 06fa 0E48     		ldr	r0, .L120+28
 1297 06fc FFF7FEFF 		bl	UARTprintf
 1298              	.LVL169:
 330:Queue/testafila.c ****   queue_print("Saida gerada  ", (queue_t *)fila0, print_elem);
 1299              		.loc 1 330 0
 1300 0700 0A4A     		ldr	r2, .L120+20
 1301 0702 084B     		ldr	r3, .L120+12
 1302 0704 1968     		ldr	r1, [r3]
 1303 0706 0A48     		ldr	r0, .L120+24
 1304 0708 FFF7FEFF 		bl	queue_print
 1305              	.LVL170:
 331:Queue/testafila.c **** 
 332:Queue/testafila.c ****   UARTprintf("Testes concluidos!!!\n");
 1306              		.loc 1 332 0
 1307 070c 0A48     		ldr	r0, .L120+32
 1308 070e FFF7FEFF 		bl	UARTprintf
 1309              	.LVL171:
 333:Queue/testafila.c **** 
 334:Queue/testafila.c ****   exit(0);
 1310              		.loc 1 334 0
 1311 0712 0020     		movs	r0, #0
 1312 0714 FFF7FEFF 		bl	exit
 1313              	.LVL172:
 1314              	.L121:
ARM GAS  C:\Users\Diogo\AppData\Local\Temp\cclZ0gYt.s 			page 31


 1315              		.align	2
 1316              	.L120:
 1317 0718 74040000 		.word	.LC26
 1318 071c AC040000 		.word	.LC27
 1319 0720 DC040000 		.word	.LC28
 1320 0724 00000000 		.word	fila0
 1321 0728 F8040000 		.word	.LC29
 1322 072c 00000000 		.word	print_elem
 1323 0730 0C050000 		.word	.LC30
 1324 0734 1C050000 		.word	.LC31
 1325 0738 6C050000 		.word	.LC32
 1326              		.cfi_endproc
 1327              	.LFE5:
 1328              		.size	testafila, .-testafila
 1329              		.comm	final,4,4
 1330              		.comm	aux,4,4
 1331              		.comm	fila1,4,4
 1332              		.comm	fila0,4,4
 1333              		.comm	item,1200,4
 1334              		.section	.rodata.str1.4,"aMS",%progbits,1
 1335              		.align	2
 1336              	.LC0:
 1337 0000 256400   		.ascii	"%d\000"
 1338 0003 00       		.space	1
 1339              	.LC1:
 1340 0004 2A00     		.ascii	"*\000"
 1341 0006 0000     		.space	2
 1342              	.LC2:
 1343 0008 3C25643E 		.ascii	"<%d>\000"
 1343      00
 1344 000d 000000   		.space	3
 1345              	.LC3:
 1346 0010 4552524F 		.ascii	"ERRO: ponteiros errados na fila com um elemento\012"
 1346      3A20706F 
 1346      6E746569 
 1346      726F7320 
 1346      65727261 
 1347 0040 00       		.ascii	"\000"
 1348 0041 000000   		.space	3
 1349              	.LC4:
 1350 0044 4552524F 		.ascii	"ERRO: ponteiros errados ->next ou ->next->prev\012\000"
 1350      3A20706F 
 1350      6E746569 
 1350      726F7320 
 1350      65727261 
 1351              	.LC5:
 1352 0074 4552524F 		.ascii	"ERRO: ponteiros errados ->prev ou ->prev->next\012\000"
 1352      3A20706F 
 1352      6E746569 
 1352      726F7320 
 1352      65727261 
 1353              	.LC6:
 1354 00a4 54657374 		.ascii	"Testando insercao de %d elementos...\012\000"
 1354      616E646F 
 1354      20696E73 
 1354      65726361 
 1354      6F206465 
ARM GAS  C:\Users\Diogo\AppData\Local\Temp\cclZ0gYt.s 			page 32


 1355 00ca 0000     		.space	2
 1356              	.LC7:
 1357 00cc 51756575 		.ascii	"Queue/testafila.c\000"
 1357      652F7465 
 1357      73746166 
 1357      696C612E 
 1357      6300
 1358 00de 0000     		.space	2
 1359              	.LC8:
 1360 00e0 54657374 		.ascii	"Testando tamanho da fila e ordem dos %d elementos.."
 1360      616E646F 
 1360      2074616D 
 1360      616E686F 
 1360      20646120 
 1361 0113 2E0A00   		.ascii	".\012\000"
 1362 0116 0000     		.space	2
 1363              	.LC9:
 1364 0118 54657374 		.ascii	"Testes de insercao funcionaram!\012\000"
 1364      65732064 
 1364      6520696E 
 1364      73657263 
 1364      616F2066 
 1365 0139 000000   		.space	3
 1366              	.LC10:
 1367 013c 52656D6F 		.ascii	"Remocao %d vezes o primeiro elemento...\012\000"
 1367      63616F20 
 1367      25642076 
 1367      657A6573 
 1367      206F2070 
 1368 0165 000000   		.space	3
 1369              	.LC11:
 1370 0168 4F6B2C20 		.ascii	"Ok, apos %d remocoes a fila ficou vazia\012\000"
 1370      61706F73 
 1370      20256420 
 1370      72656D6F 
 1370      636F6573 
 1371 0191 000000   		.space	3
 1372              	.LC12:
 1373 0194 52656D6F 		.ascii	"Remocao %d vezes o segundo elemento...\012\000"
 1373      63616F20 
 1373      25642076 
 1373      657A6573 
 1373      206F2073 
 1374              	.LC13:
 1375 01bc 52656D6F 		.ascii	"Remocao %d vezes o \303\272ltimo elemento...\012\000"
 1375      63616F20 
 1375      25642076 
 1375      657A6573 
 1375      206F20C3 
 1376              	.LC14:
 1377 01e4 52656D6F 		.ascii	"Remocao %d vezes um elemento aleat\303\263rio...\012"
 1377      63616F20 
 1377      25642076 
 1377      657A6573 
 1377      20756D20 
 1378 020f 00       		.ascii	"\000"
 1379              	.LC15:
ARM GAS  C:\Users\Diogo\AppData\Local\Temp\cclZ0gYt.s 			page 33


 1380 0210 4F6B2C20 		.ascii	"Ok, apos %d remocoes aleatorias a fila ficou vazia\012"
 1380      61706F73 
 1380      20256420 
 1380      72656D6F 
 1380      636F6573 
 1381 0243 00       		.ascii	"\000"
 1382              	.LC16:
 1383 0244 54657374 		.ascii	"Testes de remocao funcionaram!\012\000"
 1383      65732064 
 1383      65207265 
 1383      6D6F6361 
 1383      6F206675 
 1384              	.LC17:
 1385 0264 54657374 		.ascii	"Testando remocao de elemento que est\303\241 em out"
 1385      616E646F 
 1385      2072656D 
 1385      6F63616F 
 1385      20646520 
 1386 0291 72612066 		.ascii	"ra fila...\012\000"
 1386      696C612E 
 1386      2E2E0A00 
 1387 029d 000000   		.space	3
 1388              	.LC18:
 1389 02a0 4F6B2C20 		.ascii	"Ok, nao deixou remover um elemento de outra fila\012"
 1389      6E616F20 
 1389      64656978 
 1389      6F752072 
 1389      656D6F76 
 1390 02d1 00       		.ascii	"\000"
 1391 02d2 0000     		.space	2
 1392              	.LC19:
 1393 02d4 54657374 		.ascii	"Testando remocao de elemento que n\303\243o est\303"
 1393      616E646F 
 1393      2072656D 
 1393      6F63616F 
 1393      20646520 
 1394 02fe A120656D 		.ascii	"\241 em nenhuma fila...\012\000"
 1394      206E656E 
 1394      68756D61 
 1394      2066696C 
 1394      612E2E2E 
 1395              	.LC20:
 1396 0314 4F6B2C20 		.ascii	"Ok, nao deixou remover um elemento que n\303\243o e"
 1396      6E616F20 
 1396      64656978 
 1396      6F752072 
 1396      656D6F76 
 1397 0341 7374C3A1 		.ascii	"st\303\241 em nenhuma fila\012\000"
 1397      20656D20 
 1397      6E656E68 
 1397      756D6120 
 1397      66696C61 
 1398 0357 00       		.space	1
 1399              	.LC21:
 1400 0358 54657374 		.ascii	"Testando insercao de elemento que j\303\241 est\303"
 1400      616E646F 
 1400      20696E73 
ARM GAS  C:\Users\Diogo\AppData\Local\Temp\cclZ0gYt.s 			page 34


 1400      65726361 
 1400      6F206465 
 1401 0382 A1206E61 		.ascii	"\241 na fila...\012\000"
 1401      2066696C 
 1401      612E2E2E 
 1401      0A00
 1402              	.LC22:
 1403 0390 4F6B2C20 		.ascii	"Ok, n\303\243o deixou inserir elemento que j\303\241"
 1403      6EC3A36F 
 1403      20646569 
 1403      786F7520 
 1403      696E7365 
 1404 03b8 20657374 		.ascii	" estava na fila\012\000"
 1404      61766120 
 1404      6E612066 
 1404      696C610A 
 1404      00
 1405 03c9 000000   		.space	3
 1406              	.LC23:
 1407 03cc 54657374 		.ascii	"Testando insercao de elemento que est\303\241 em ou"
 1407      616E646F 
 1407      20696E73 
 1407      65726361 
 1407      6F206465 
 1408 03f9 74726120 		.ascii	"tra fila...\012\000"
 1408      66696C61 
 1408      2E2E2E0A 
 1408      00
 1409 0406 0000     		.space	2
 1410              	.LC24:
 1411 0408 4F6B2C20 		.ascii	"Ok, n\303\243o deixou inserir elemento que est\303\241"
 1411      6EC3A36F 
 1411      20646569 
 1411      786F7520 
 1411      696E7365 
 1412 0432 20656D20 		.ascii	" em outra fila\012\000"
 1412      6F757472 
 1412      61206669 
 1412      6C610A00 
 1413 0442 0000     		.space	2
 1414              	.LC25:
 1415 0444 4F6B2C20 		.ascii	"Ok, criei uma fila com %d elementos ordenados\012\000"
 1415      63726965 
 1415      6920756D 
 1415      61206669 
 1415      6C612063 
 1416 0473 00       		.space	1
 1417              	.LC26:
 1418 0474 4F6B2C20 		.ascii	"Ok, retirei e destrui em ordem %d elementos da fila"
 1418      72657469 
 1418      72656920 
 1418      65206465 
 1418      73747275 
 1419 04a7 0A00     		.ascii	"\012\000"
 1420 04a9 000000   		.space	3
 1421              	.LC27:
 1422 04ac 54657374 		.ascii	"Testes de opera\303\247\303\265es inv\303\241lidas "
ARM GAS  C:\Users\Diogo\AppData\Local\Temp\cclZ0gYt.s 			page 35


 1422      65732064 
 1422      65206F70 
 1422      657261C3 
 1422      A7C3B565 
 1423 04cd 66756E63 		.ascii	"funcionaram!\012\000"
 1423      696F6E61 
 1423      72616D21 
 1423      0A00
 1424 04db 00       		.space	1
 1425              	.LC28:
 1426 04dc 54657374 		.ascii	"Teste do queue_print...\012\000"
 1426      6520646F 
 1426      20717565 
 1426      75655F70 
 1426      72696E74 
 1427 04f5 000000   		.space	3
 1428              	.LC29:
 1429 04f8 53616964 		.ascii	"Saida esperada: []\012\000"
 1429      61206573 
 1429      70657261 
 1429      64613A20 
 1429      5B5D0A00 
 1430              	.LC30:
 1431 050c 53616964 		.ascii	"Saida gerada  \000"
 1431      61206765 
 1431      72616461 
 1431      202000
 1432 051b 00       		.space	1
 1433              	.LC31:
 1434 051c 53616964 		.ascii	"Saida esperada: [9<0>1 0<1>2 1<2>3 2<3>4 3<4>5 4<5>"
 1434      61206573 
 1434      70657261 
 1434      64613A20 
 1434      5B393C30 
 1435 054f 3620353C 		.ascii	"6 5<6>7 6<7>8 7<8>9 8<9>0]\012\000"
 1435      363E3720 
 1435      363C373E 
 1435      3820373C 
 1435      383E3920 
 1436 056b 00       		.space	1
 1437              	.LC32:
 1438 056c 54657374 		.ascii	"Testes concluidos!!!\012\000"
 1438      65732063 
 1438      6F6E636C 
 1438      7569646F 
 1438      73212121 
 1439              		.text
 1440              	.Letext0:
 1441              		.file 2 "c:\\program files (x86)\\gnu tools arm embedded\\7 2018-q2-update\\arm-none-eabi\\include
 1442              		.file 3 "c:\\program files (x86)\\gnu tools arm embedded\\7 2018-q2-update\\arm-none-eabi\\include
 1443              		.file 4 "c:\\program files (x86)\\gnu tools arm embedded\\7 2018-q2-update\\lib\\gcc\\arm-none-eab
 1444              		.file 5 "c:\\program files (x86)\\gnu tools arm embedded\\7 2018-q2-update\\arm-none-eabi\\include
 1445              		.file 6 "c:\\program files (x86)\\gnu tools arm embedded\\7 2018-q2-update\\arm-none-eabi\\include
 1446              		.file 7 "Queue/queue.h"
 1447              		.file 8 "./inc/utils\\uartstdio.h"
 1448              		.file 9 "./inc/debug.h"