ARM GAS  C:\Users\Diogo\AppData\Local\Temp\cc9dracA.s 			page 1


   1              		.cpu cortex-m4
   2              		.eabi_attribute 20, 1
   3              		.eabi_attribute 21, 1
   4              		.eabi_attribute 23, 3
   5              		.eabi_attribute 24, 1
   6              		.eabi_attribute 25, 1
   7              		.eabi_attribute 26, 1
   8              		.eabi_attribute 30, 1
   9              		.eabi_attribute 34, 1
  10              		.eabi_attribute 18, 4
  11              		.file	"thread.c"
  12              		.text
  13              	.Ltext0:
  14              		.cfi_sections	.debug_frame
  15              		.align	1
  16              		.global	createThread
  17              		.syntax unified
  18              		.thumb
  19              		.thumb_func
  20              		.fpu softvfp
  21              		.type	createThread, %function
  22              	createThread:
  23              	.LFB0:
  24              		.file 1 "Threads/thread.c"
   1:Threads/thread.c **** #include <stdint.h>
   2:Threads/thread.c **** #include "hw_nvic.h"
   3:Threads/thread.c **** #define MAX_THREADS 10
   4:Threads/thread.c **** 
   5:Threads/thread.c **** uint32_t ThreadIndex = 0;
   6:Threads/thread.c **** uint32_t ThreadCount = 0;
   7:Threads/thread.c **** typedef struct {
   8:Threads/thread.c ****     uint32_t *ThreadStack;
   9:Threads/thread.c ****     void (*ThreadFn )();
  10:Threads/thread.c ****      uint32_t Attributes;   
  11:Threads/thread.c **** } ThreadControlBlock;
  12:Threads/thread.c **** 
  13:Threads/thread.c **** 
  14:Threads/thread.c **** 
  15:Threads/thread.c **** ThreadControlBlock Threads[MAX_THREADS];
  16:Threads/thread.c **** uint32_t TCB_Size = sizeof(ThreadControlBlock);
  17:Threads/thread.c **** 
  18:Threads/thread.c **** 
  19:Threads/thread.c **** 
  20:Threads/thread.c **** void createThread(void (*ThreadFn )(), uint32_t *ThreadStack, uint32_t StackSize)
  21:Threads/thread.c **** {
  25              		.loc 1 21 0
  26              		.cfi_startproc
  27              		@ args = 0, pretend = 0, frame = 0
  28              		@ frame_needed = 0, uses_anonymous_args = 0
  29              		@ link register save eliminated.
  30              	.LVL0:
  31 0000 70B4     		push	{r4, r5, r6}
  32              	.LCFI0:
  33              		.cfi_def_cfa_offset 12
  34              		.cfi_offset 4, -12
  35              		.cfi_offset 5, -8
  36              		.cfi_offset 6, -4
ARM GAS  C:\Users\Diogo\AppData\Local\Temp\cc9dracA.s 			page 2


  22:Threads/thread.c ****     uint32_t Index;
  23:Threads/thread.c ****     if (ThreadCount < MAX_THREADS)
  37              		.loc 1 23 0
  38 0002 2D4B     		ldr	r3, .L6
  39 0004 1B68     		ldr	r3, [r3]
  40 0006 092B     		cmp	r3, #9
  41 0008 54D8     		bhi	.L1
  24:Threads/thread.c ****     {
  25:Threads/thread.c ****         asm(" cpsid i "); // disable interrupts during thread creation
  42              		.loc 1 25 0
  43              		.syntax unified
  44              	@ 25 "Threads/thread.c" 1
  45 000a 72B6     		 cpsid i 
  46              	@ 0 "" 2
  26:Threads/thread.c ****         Threads[ThreadCount].ThreadFn = ThreadFn;
  47              		.loc 1 26 0
  48              		.thumb
  49              		.syntax unified
  50 000c 2A4B     		ldr	r3, .L6
  51 000e 1B68     		ldr	r3, [r3]
  52 0010 03EB4303 		add	r3, r3, r3, lsl #1
  53 0014 294C     		ldr	r4, .L6+4
  54 0016 04EB8303 		add	r3, r4, r3, lsl #2
  55 001a 5860     		str	r0, [r3, #4]
  56              	.LVL1:
  27:Threads/thread.c ****         
  28:Threads/thread.c ****         // The thread stack needs to be set up so that it can be context switched back to later
  29:Threads/thread.c ****         // First zero the stack (assuming 32 bit accesses.  Stacksize expressed in 32 bit words
  30:Threads/thread.c ****         for (Index=0;Index < StackSize; Index++)
  57              		.loc 1 30 0
  58 001c 3AB1     		cbz	r2, .L3
  59 001e 0B1F     		subs	r3, r1, #4
  60 0020 03EB8205 		add	r5, r3, r2, lsl #2
  31:Threads/thread.c ****             ThreadStack[Index]=0;
  61              		.loc 1 31 0
  62 0024 0024     		movs	r4, #0
  63              	.LVL2:
  64              	.L4:
  65              		.loc 1 31 0 is_stmt 0 discriminator 3
  66 0026 43F8044F 		str	r4, [r3, #4]!
  30:Threads/thread.c ****             ThreadStack[Index]=0;
  67              		.loc 1 30 0 is_stmt 1 discriminator 3
  68 002a AB42     		cmp	r3, r5
  69 002c FBD1     		bne	.L4
  70              	.L3:
  32:Threads/thread.c ****         ThreadStack[StackSize-1] = (1 << 24); // Set the arithmetic flags to zero and ensure Thumb 
  71              		.loc 1 32 0
  72 002e 02F18042 		add	r2, r2, #1073741824
  73              	.LVL3:
  74 0032 013A     		subs	r2, r2, #1
  75              	.LVL4:
  76 0034 9400     		lsls	r4, r2, #2
  77 0036 4FF08073 		mov	r3, #16777216
  78 003a 41F82230 		str	r3, [r1, r2, lsl #2]
  33:Threads/thread.c ****         ThreadStack[StackSize-2] = (uint32_t) ThreadFn; // The "Stacked" PC goes here.
  79              		.loc 1 33 0
  80 003e 0B19     		adds	r3, r1, r4
ARM GAS  C:\Users\Diogo\AppData\Local\Temp\cc9dracA.s 			page 3


  81 0040 43F8040C 		str	r0, [r3, #-4]
  34:Threads/thread.c ****         // Fill in some test values to help debugging
  35:Threads/thread.c ****         ThreadStack[StackSize-3] = 1; // LR
  82              		.loc 1 35 0
  83 0044 0120     		movs	r0, #1
  84              	.LVL5:
  85 0046 43F8080C 		str	r0, [r3, #-8]
  36:Threads/thread.c ****         ThreadStack[StackSize-4] = 2; // R12
  86              		.loc 1 36 0
  87 004a 0222     		movs	r2, #2
  88              	.LVL6:
  89 004c 43F80C2C 		str	r2, [r3, #-12]
  37:Threads/thread.c ****         ThreadStack[StackSize-5] = 3; // R3
  90              		.loc 1 37 0
  91 0050 0322     		movs	r2, #3
  92 0052 43F8102C 		str	r2, [r3, #-16]
  38:Threads/thread.c ****         ThreadStack[StackSize-6] = 4; // R2
  93              		.loc 1 38 0
  94 0056 0422     		movs	r2, #4
  95 0058 43F8142C 		str	r2, [r3, #-20]
  39:Threads/thread.c ****         ThreadStack[StackSize-7] = 5; // R1
  96              		.loc 1 39 0
  97 005c 0522     		movs	r2, #5
  98 005e 43F8182C 		str	r2, [r3, #-24]
  40:Threads/thread.c ****         ThreadStack[StackSize-8] = 6; // R0
  99              		.loc 1 40 0
 100 0062 0622     		movs	r2, #6
 101 0064 43F81C2C 		str	r2, [r3, #-28]
  41:Threads/thread.c ****         ThreadStack[StackSize-9] = 7; // R11
 102              		.loc 1 41 0
 103 0068 0722     		movs	r2, #7
 104 006a 43F8202C 		str	r2, [r3, #-32]
  42:Threads/thread.c ****         ThreadStack[StackSize-10] = 8;// R10
 105              		.loc 1 42 0
 106 006e 0822     		movs	r2, #8
 107 0070 43F8242C 		str	r2, [r3, #-36]
  43:Threads/thread.c ****         ThreadStack[StackSize-11] = 9;// R9
 108              		.loc 1 43 0
 109 0074 0922     		movs	r2, #9
 110 0076 43F8282C 		str	r2, [r3, #-40]
  44:Threads/thread.c ****         ThreadStack[StackSize-12] = 10;// R8
 111              		.loc 1 44 0
 112 007a 0A22     		movs	r2, #10
 113 007c 43F82C2C 		str	r2, [r3, #-44]
  45:Threads/thread.c ****         ThreadStack[StackSize-13] = 11;// R7
 114              		.loc 1 45 0
 115 0080 0B22     		movs	r2, #11
 116 0082 43F8302C 		str	r2, [r3, #-48]
  46:Threads/thread.c ****         ThreadStack[StackSize-14] = 12;// R6
 117              		.loc 1 46 0
 118 0086 0C22     		movs	r2, #12
 119 0088 43F8342C 		str	r2, [r3, #-52]
  47:Threads/thread.c ****         ThreadStack[StackSize-15] = 13;// R5
 120              		.loc 1 47 0
 121 008c 0D22     		movs	r2, #13
 122 008e 43F8382C 		str	r2, [r3, #-56]
  48:Threads/thread.c ****         ThreadStack[StackSize-16] = 14;// R4        
ARM GAS  C:\Users\Diogo\AppData\Local\Temp\cc9dracA.s 			page 4


 123              		.loc 1 48 0
 124 0092 A4F13C03 		sub	r3, r4, #60
 125              	.LVL7:
 126 0096 CE18     		adds	r6, r1, r3
 127 0098 0E22     		movs	r2, #14
 128 009a CA50     		str	r2, [r1, r3]
  49:Threads/thread.c ****         Threads[ThreadCount].ThreadStack = &ThreadStack[StackSize-16];               
 129              		.loc 1 49 0
 130 009c 0649     		ldr	r1, .L6
 131              	.LVL8:
 132 009e 0B68     		ldr	r3, [r1]
 133 00a0 064C     		ldr	r4, .L6+4
 134              	.LVL9:
 135 00a2 03EB4302 		add	r2, r3, r3, lsl #1
 136 00a6 9200     		lsls	r2, r2, #2
 137 00a8 A518     		adds	r5, r4, r2
 138 00aa A650     		str	r6, [r4, r2]
  50:Threads/thread.c ****         Threads[ThreadCount].Attributes = 1; // lets say 1 means "schedulable"
 139              		.loc 1 50 0
 140 00ac A860     		str	r0, [r5, #8]
  51:Threads/thread.c ****         ThreadCount++;
 141              		.loc 1 51 0
 142 00ae 0344     		add	r3, r3, r0
 143 00b0 0B60     		str	r3, [r1]
  52:Threads/thread.c ****         asm(" cpsie i "); // enable interrupts
 144              		.loc 1 52 0
 145              		.syntax unified
 146              	@ 52 "Threads/thread.c" 1
 147 00b2 62B6     		 cpsie i 
 148              	@ 0 "" 2
 149              		.thumb
 150              		.syntax unified
 151              	.L1:
  53:Threads/thread.c ****     }
  54:Threads/thread.c **** }
 152              		.loc 1 54 0
 153 00b4 70BC     		pop	{r4, r5, r6}
 154              	.LCFI1:
 155              		.cfi_restore 6
 156              		.cfi_restore 5
 157              		.cfi_restore 4
 158              		.cfi_def_cfa_offset 0
 159 00b6 7047     		bx	lr
 160              	.L7:
 161              		.align	2
 162              	.L6:
 163 00b8 00000000 		.word	.LANCHOR0
 164 00bc 00000000 		.word	Threads
 165              		.cfi_endproc
 166              	.LFE0:
 167              		.size	createThread, .-createThread
 168              		.align	1
 169              		.global	initSysTick
 170              		.syntax unified
 171              		.thumb
 172              		.thumb_func
 173              		.fpu softvfp
ARM GAS  C:\Users\Diogo\AppData\Local\Temp\cc9dracA.s 			page 5


 174              		.type	initSysTick, %function
 175              	initSysTick:
 176              	.LFB1:
  55:Threads/thread.c **** void initSysTick()
  56:Threads/thread.c **** {
 177              		.loc 1 56 0
 178              		.cfi_startproc
 179              		@ args = 0, pretend = 0, frame = 0
 180              		@ frame_needed = 0, uses_anonymous_args = 0
 181              		@ link register save eliminated.
 182              	.LVL10:
  57:Threads/thread.c **** 	uint32_t *ADDR_MEMORY;
  58:Threads/thread.c **** 	// Default power up clock status is as follows:
  59:Threads/thread.c **** 	// PIOSC runs at 16MHz.  This supplies the system clock
  60:Threads/thread.c **** 	// The systick timer is driven by PIOSC/4 (4MHz)
  61:Threads/thread.c **** 	// enable systick and its interrupts
  62:Threads/thread.c **** 		ADDR_MEMORY = (uint32_t)NVIC_ST_CTRL;
  63:Threads/thread.c ****     *ADDR_MEMORY |= 0x3;
 183              		.loc 1 63 0
 184 00c0 064A     		ldr	r2, .L9
 185 00c2 1368     		ldr	r3, [r2]
 186 00c4 43F00303 		orr	r3, r3, #3
 187 00c8 1360     		str	r3, [r2]
 188              	.LVL11:
  64:Threads/thread.c **** 		ADDR_MEMORY = (uint32_t)NVIC_ST_RELOAD;
  65:Threads/thread.c ****     *ADDR_MEMORY = 4000;
 189              		.loc 1 65 0
 190 00ca 054B     		ldr	r3, .L9+4
 191 00cc 4FF47A62 		mov	r2, #4000
 192 00d0 1A60     		str	r2, [r3]
 193              	.LVL12:
  66:Threads/thread.c ****     ADDR_MEMORY = (uint32_t)NVIC_ST_CURRENT;
  67:Threads/thread.c ****     *ADDR_MEMORY = 1000;
 194              		.loc 1 67 0
 195 00d2 0433     		adds	r3, r3, #4
 196 00d4 4FF47A72 		mov	r2, #1000
 197 00d8 1A60     		str	r2, [r3]
  68:Threads/thread.c ****     /*
  69:Threads/thread.c ****     SET_BIT(SYS_STCTRL,BIT0+BIT1); 
  70:Threads/thread.c **** 	SYS_STRELOAD=4000;  // generate 1 millisecond time base
  71:Threads/thread.c **** 	SYS_STCURRENT=1000; // start the counter off at a low(ish) figure
  72:Threads/thread.c **** 	*/
  73:Threads/thread.c **** }
 198              		.loc 1 73 0
 199 00da 7047     		bx	lr
 200              	.L10:
 201              		.align	2
 202              	.L9:
 203 00dc 10E000E0 		.word	-536813552
 204 00e0 14E000E0 		.word	-536813548
 205              		.cfi_endproc
 206              	.LFE1:
 207              		.size	initSysTick, .-initSysTick
 208              		.align	1
 209              		.global	startSwitcher
 210              		.syntax unified
 211              		.thumb
ARM GAS  C:\Users\Diogo\AppData\Local\Temp\cc9dracA.s 			page 6


 212              		.thumb_func
 213              		.fpu softvfp
 214              		.type	startSwitcher, %function
 215              	startSwitcher:
 216              	.LFB2:
  74:Threads/thread.c **** void startSwitcher()
  75:Threads/thread.c **** {
 217              		.loc 1 75 0
 218              		.cfi_startproc
 219              		@ Volatile: function does not return.
 220              		@ args = 0, pretend = 0, frame = 0
 221              		@ frame_needed = 0, uses_anonymous_args = 0
 222 00e4 08B5     		push	{r3, lr}
 223              	.LCFI2:
 224              		.cfi_def_cfa_offset 8
 225              		.cfi_offset 3, -8
 226              		.cfi_offset 14, -4
  76:Threads/thread.c **** 
  77:Threads/thread.c ****     // At the end of this function, the routine enters a never-ending while loop.
  78:Threads/thread.c ****     // At the next interrupt, the contents of xPSR, PC, LR, R12 and R0-R3 are dumped
  79:Threads/thread.c ****     // on the thread stack.  This consumes 32 bytes of stack on this stack.
  80:Threads/thread.c ****     // If we do not take this into account, the stack pointer for the first thread will
  81:Threads/thread.c ****     // be off by this amount so we need to adjust it in advanace by
  82:Threads/thread.c ****     initSysTick();
 227              		.loc 1 82 0
 228 00e6 FFF7FEFF 		bl	initSysTick
 229              	.LVL13:
  83:Threads/thread.c ****     asm(" LDR R0,=Threads "); // point to start of TCB array    
 230              		.loc 1 83 0
 231              		.syntax unified
 232              	@ 83 "Threads/thread.c" 1
 233 00ea 2548     		 LDR R0,=Threads 
 234              	@ 0 "" 2
  84:Threads/thread.c ****     asm(" LDR R0,[R0] ");   // read first Thread Stack pointer
 235              		.loc 1 84 0
 236              	@ 84 "Threads/thread.c" 1
 237 00ec 0068     		 LDR R0,[R0] 
 238              	@ 0 "" 2
  85:Threads/thread.c ****     
  86:Threads/thread.c ****     asm(" ADD R0,#32 ");    // Adjust first thread stack
 239              		.loc 1 86 0
 240              	@ 86 "Threads/thread.c" 1
 241 00ee 00F12000 		 ADD R0,#32 
 242              	@ 0 "" 2
  87:Threads/thread.c ****     asm(" MSR PSP,R0 ");    // write first stack pointer to process stack pointer        
 243              		.loc 1 87 0
 244              	@ 87 "Threads/thread.c" 1
 245 00f2 80F30988 		 MSR PSP,R0 
 246              	@ 0 "" 2
  88:Threads/thread.c ****     asm(" cpsie i ");                
 247              		.loc 1 88 0
 248              	@ 88 "Threads/thread.c" 1
 249 00f6 62B6     		 cpsie i 
 250              	@ 0 "" 2
 251              		.thumb
 252              		.syntax unified
 253              	.L12:
ARM GAS  C:\Users\Diogo\AppData\Local\Temp\cc9dracA.s 			page 7


 254 00f8 FEE7     		b	.L12
 255              		.cfi_endproc
 256              	.LFE2:
 257              		.size	startSwitcher, .-startSwitcher
 258              		.align	1
 259              		.global	SysTick_Handler
 260              		.syntax unified
 261              		.thumb
 262              		.thumb_func
 263              		.fpu softvfp
 264              		.type	SysTick_Handler, %function
 265              	SysTick_Handler:
 266              	.LFB3:
  89:Threads/thread.c ****     while(1);    
  90:Threads/thread.c **** }
  91:Threads/thread.c **** 
  92:Threads/thread.c **** 
  93:Threads/thread.c **** 
  94:Threads/thread.c **** // Want the systick handler to be "pure assembler without any stack shenanigans by the compiler (he
  95:Threads/thread.c **** __attribute__((naked)) void SysTick_Handler(void) 
  96:Threads/thread.c **** {
 267              		.loc 1 96 0
 268              		.cfi_startproc
 269              		@ Naked Function: prologue and epilogue provided by programmer.
 270              		@ args = 0, pretend = 0, frame = 0
 271              		@ frame_needed = 0, uses_anonymous_args = 0
  97:Threads/thread.c ****   
  98:Threads/thread.c **** 
  99:Threads/thread.c **** // Thread switching will happen here
 100:Threads/thread.c **** // On entry, R0,R1,R2,R3 and R12 for Thread 'A' (whichever one that may be) are on the thread stack
 101:Threads/thread.c **** 
 102:Threads/thread.c **** // Preserve remaining registers on stack of thread that is being suspended (Thread A)     
 103:Threads/thread.c ****     asm(" cpsid i "); // disable interrupts during thread switch
 272              		.loc 1 103 0
 273              		.syntax unified
 274              	@ 103 "Threads/thread.c" 1
 275 00fa 72B6     		 cpsid i 
 276              	@ 0 "" 2
 104:Threads/thread.c ****     asm(" MRS R0,PSP ");  // get Thread A stack pointer
 277              		.loc 1 104 0
 278              	@ 104 "Threads/thread.c" 1
 279 00fc EFF30980 		 MRS R0,PSP 
 280              	@ 0 "" 2
 105:Threads/thread.c ****     asm(" SUB R0,#32");   // Make room for the other registers : R4-R11 = 8 x 4 = 32 bytes
 281              		.loc 1 105 0
 282              	@ 105 "Threads/thread.c" 1
 283 0100 A0F12000 		 SUB R0,#32
 284              	@ 0 "" 2
 106:Threads/thread.c ****     asm(" STMIA R0! , { R4-R7 } "); // Can only do a multiple store on registers up to R7
 285              		.loc 1 106 0
 286              	@ 106 "Threads/thread.c" 1
 287 0104 F0C0     		 STMIA R0! , { R4-R7 } 
 288              	@ 0 "" 2
 107:Threads/thread.c ****     asm(" MOV R4,R8 "); // Copy higher registers to lower ones
 289              		.loc 1 107 0
 290              	@ 107 "Threads/thread.c" 1
 291 0106 4446     		 MOV R4,R8 
ARM GAS  C:\Users\Diogo\AppData\Local\Temp\cc9dracA.s 			page 8


 292              	@ 0 "" 2
 108:Threads/thread.c ****     asm(" MOV R5,R9 ");
 293              		.loc 1 108 0
 294              	@ 108 "Threads/thread.c" 1
 295 0108 4D46     		 MOV R5,R9 
 296              	@ 0 "" 2
 109:Threads/thread.c ****     asm(" MOV R6,R10 ");
 297              		.loc 1 109 0
 298              	@ 109 "Threads/thread.c" 1
 299 010a 5646     		 MOV R6,R10 
 300              	@ 0 "" 2
 110:Threads/thread.c ****     asm(" MOV R7,R11 ");
 301              		.loc 1 110 0
 302              	@ 110 "Threads/thread.c" 1
 303 010c 5F46     		 MOV R7,R11 
 304              	@ 0 "" 2
 111:Threads/thread.c ****     asm(" STMIA R0! , { R4-R7 } "); // and repeat the multiple register store
 305              		.loc 1 111 0
 306              	@ 111 "Threads/thread.c" 1
 307 010e F0C0     		 STMIA R0! , { R4-R7 } 
 308              	@ 0 "" 2
 112:Threads/thread.c **** // Locate the Thread Control Block (TCB) for Thread A
 113:Threads/thread.c ****     asm(" LDR R0,=TCB_Size "); // get the size of each TCB
 309              		.loc 1 113 0
 310              	@ 113 "Threads/thread.c" 1
 311 0110 1C48     		 LDR R0,=TCB_Size 
 312              	@ 0 "" 2
 114:Threads/thread.c ****     asm(" LDR R0,[R0] ");
 313              		.loc 1 114 0
 314              	@ 114 "Threads/thread.c" 1
 315 0112 0068     		 LDR R0,[R0] 
 316              	@ 0 "" 2
 115:Threads/thread.c ****     asm(" LDR R1,=ThreadIndex "); // Which one is being used right now?
 317              		.loc 1 115 0
 318              	@ 115 "Threads/thread.c" 1
 319 0114 1C49     		 LDR R1,=ThreadIndex 
 320              	@ 0 "" 2
 116:Threads/thread.c ****     asm(" LDR R1,[R1] ");   
 321              		.loc 1 116 0
 322              	@ 116 "Threads/thread.c" 1
 323 0116 0968     		 LDR R1,[R1] 
 324              	@ 0 "" 2
 117:Threads/thread.c ****     asm(" MUL R1,R0,R1 "); // Calculate offset of Thread A TCB from start of TCB array
 325              		.loc 1 117 0
 326              	@ 117 "Threads/thread.c" 1
 327 0118 00FB01F1 		 MUL R1,R0,R1 
 328              	@ 0 "" 2
 118:Threads/thread.c ****     asm(" LDR R0,=Threads "); // point to start of TCB array
 329              		.loc 1 118 0
 330              	@ 118 "Threads/thread.c" 1
 331 011c 1848     		 LDR R0,=Threads 
 332              	@ 0 "" 2
 119:Threads/thread.c ****     asm(" ADD R1,R0,R1 ");  // add offset to get pointer to Thread A TCB
 333              		.loc 1 119 0
 334              	@ 119 "Threads/thread.c" 1
 335 011e 0144     		 ADD R1,R0,R1 
 336              	@ 0 "" 2
ARM GAS  C:\Users\Diogo\AppData\Local\Temp\cc9dracA.s 			page 9


 120:Threads/thread.c ****     asm(" MRS R0,PSP ");   // get Thread A stack pointer
 337              		.loc 1 120 0
 338              	@ 120 "Threads/thread.c" 1
 339 0120 EFF30980 		 MRS R0,PSP 
 340              	@ 0 "" 2
 121:Threads/thread.c **** // Save Thread A's stack pointer (adjusted for new registers being pushed
 122:Threads/thread.c ****     asm(" SUB R0,#32 ");   // Adjust for the other registers : R4-R11 = 8 x 4 = 32 bytes
 341              		.loc 1 122 0
 342              	@ 122 "Threads/thread.c" 1
 343 0124 A0F12000 		 SUB R0,#32 
 344              	@ 0 "" 2
 123:Threads/thread.c ****     asm(" STR R0,[R1] ");  // Save Thread A Stack pointer to the TCB (first entry = Saved stack poi
 345              		.loc 1 123 0
 346              	@ 123 "Threads/thread.c" 1
 347 0128 0860     		 STR R0,[R1] 
 348              	@ 0 "" 2
 124:Threads/thread.c ****     
 125:Threads/thread.c **** // Update the ThreadIndex
 126:Threads/thread.c ****     ThreadIndex++;
 349              		.loc 1 126 0
 350              		.thumb
 351              		.syntax unified
 352 012a 144A     		ldr	r2, .L15
 353 012c 5368     		ldr	r3, [r2, #4]
 354 012e 0133     		adds	r3, r3, #1
 355 0130 5360     		str	r3, [r2, #4]
 127:Threads/thread.c ****     if (ThreadIndex >= ThreadCount)
 356              		.loc 1 127 0
 357 0132 1268     		ldr	r2, [r2]
 358 0134 9342     		cmp	r3, r2
 359 0136 02D3     		bcc	.L14
 128:Threads/thread.c ****         ThreadIndex = 0;
 360              		.loc 1 128 0
 361 0138 104B     		ldr	r3, .L15
 362 013a 0022     		movs	r2, #0
 363 013c 5A60     		str	r2, [r3, #4]
 364              	.L14:
 129:Threads/thread.c **** 
 130:Threads/thread.c **** // Locate the Thread Control Block (TCB) for Thread B
 131:Threads/thread.c ****     asm(" LDR R0,=TCB_Size "); // get the size of each TCB
 365              		.loc 1 131 0
 366              		.syntax unified
 367              	@ 131 "Threads/thread.c" 1
 368 013e 1148     		 LDR R0,=TCB_Size 
 369              	@ 0 "" 2
 132:Threads/thread.c ****     asm(" LDR R0,[R0] ");
 370              		.loc 1 132 0
 371              	@ 132 "Threads/thread.c" 1
 372 0140 0068     		 LDR R0,[R0] 
 373              	@ 0 "" 2
 133:Threads/thread.c ****     asm(" LDR R1,=ThreadIndex "); // Which one is being used right now?
 374              		.loc 1 133 0
 375              	@ 133 "Threads/thread.c" 1
 376 0142 1149     		 LDR R1,=ThreadIndex 
 377              	@ 0 "" 2
 134:Threads/thread.c ****     asm(" LDR R1,[R1] ");   
 378              		.loc 1 134 0
ARM GAS  C:\Users\Diogo\AppData\Local\Temp\cc9dracA.s 			page 10


 379              	@ 134 "Threads/thread.c" 1
 380 0144 0968     		 LDR R1,[R1] 
 381              	@ 0 "" 2
 135:Threads/thread.c ****     asm(" MUL R1,R0,R1 ");  // Calculate offset of Thread A TCB from start of TCB array
 382              		.loc 1 135 0
 383              	@ 135 "Threads/thread.c" 1
 384 0146 00FB01F1 		 MUL R1,R0,R1 
 385              	@ 0 "" 2
 136:Threads/thread.c ****     asm(" LDR R0,=Threads "); // point to start of TCB array
 386              		.loc 1 136 0
 387              	@ 136 "Threads/thread.c" 1
 388 014a 0D48     		 LDR R0,=Threads 
 389              	@ 0 "" 2
 137:Threads/thread.c ****     asm(" ADD R1,R0,R1 ");  // add offset to get pointer to Thread B TCB
 390              		.loc 1 137 0
 391              	@ 137 "Threads/thread.c" 1
 392 014c 0144     		 ADD R1,R0,R1 
 393              	@ 0 "" 2
 138:Threads/thread.c ****     asm(" LDR R0,[R1] ");   // read saved Thread B Stack pointer
 394              		.loc 1 138 0
 395              	@ 138 "Threads/thread.c" 1
 396 014e 0868     		 LDR R0,[R1] 
 397              	@ 0 "" 2
 139:Threads/thread.c ****     asm(" ADD R0,#16 ");    // Skip past saved low registers for the moment
 398              		.loc 1 139 0
 399              	@ 139 "Threads/thread.c" 1
 400 0150 00F11000 		 ADD R0,#16 
 401              	@ 0 "" 2
 140:Threads/thread.c ****     asm(" LDMIA R0!,{R4-R7} "); // read saved registers
 402              		.loc 1 140 0
 403              	@ 140 "Threads/thread.c" 1
 404 0154 F0C8     		 LDMIA R0!,{R4-R7} 
 405              	@ 0 "" 2
 141:Threads/thread.c ****     asm(" MOV R8,R4 "); // Copy higher registers to lower ones
 406              		.loc 1 141 0
 407              	@ 141 "Threads/thread.c" 1
 408 0156 A046     		 MOV R8,R4 
 409              	@ 0 "" 2
 142:Threads/thread.c ****     asm(" MOV R9,R5 ");
 410              		.loc 1 142 0
 411              	@ 142 "Threads/thread.c" 1
 412 0158 A946     		 MOV R9,R5 
 413              	@ 0 "" 2
 143:Threads/thread.c ****     asm(" MOV R10,R6 ");
 414              		.loc 1 143 0
 415              	@ 143 "Threads/thread.c" 1
 416 015a B246     		 MOV R10,R6 
 417              	@ 0 "" 2
 144:Threads/thread.c ****     asm(" MOV R11,R7 ");
 418              		.loc 1 144 0
 419              	@ 144 "Threads/thread.c" 1
 420 015c BB46     		 MOV R11,R7 
 421              	@ 0 "" 2
 145:Threads/thread.c ****     asm(" LDR R0,[R1] ");   // read saved Thread B Stack pointer
 422              		.loc 1 145 0
 423              	@ 145 "Threads/thread.c" 1
 424 015e 0868     		 LDR R0,[R1] 
ARM GAS  C:\Users\Diogo\AppData\Local\Temp\cc9dracA.s 			page 11


 425              	@ 0 "" 2
 146:Threads/thread.c ****     asm(" LDMIA R0!,{R4-R7} "); // read saved LOW registers
 426              		.loc 1 146 0
 427              	@ 146 "Threads/thread.c" 1
 428 0160 F0C8     		 LDMIA R0!,{R4-R7} 
 429              	@ 0 "" 2
 147:Threads/thread.c ****     asm(" LDR R0,[R1] ");   // read saved Thread B Stack pointer
 430              		.loc 1 147 0
 431              	@ 147 "Threads/thread.c" 1
 432 0162 0868     		 LDR R0,[R1] 
 433              	@ 0 "" 2
 148:Threads/thread.c ****     asm(" ADD R0,#32 ");    // re-adjust saved stack pointer
 434              		.loc 1 148 0
 435              	@ 148 "Threads/thread.c" 1
 436 0164 00F12000 		 ADD R0,#32 
 437              	@ 0 "" 2
 149:Threads/thread.c ****     asm(" MSR PSP,R0 ");    // write Thread B stack pointer
 438              		.loc 1 149 0
 439              	@ 149 "Threads/thread.c" 1
 440 0168 80F30988 		 MSR PSP,R0 
 441              	@ 0 "" 2
 150:Threads/thread.c ****     
 151:Threads/thread.c ****     // The following is only really necessary for the first run of the scheduler.
 152:Threads/thread.c ****     asm(" MOV R0,#0 ");     // Force LR to 0xffffffd so that
 442              		.loc 1 152 0
 443              	@ 152 "Threads/thread.c" 1
 444 016c 4FF00000 		 MOV R0,#0 
 445              	@ 0 "" 2
 153:Threads/thread.c ****     asm(" SUB R0,#3 ");     // on return from interrupt the CPU
 446              		.loc 1 153 0
 447              	@ 153 "Threads/thread.c" 1
 448 0170 A0F10300 		 SUB R0,#3 
 449              	@ 0 "" 2
 154:Threads/thread.c ****     asm(" MOV LR,R0 ");     // will switch to thread stack
 450              		.loc 1 154 0
 451              	@ 154 "Threads/thread.c" 1
 452 0174 8646     		 MOV LR,R0 
 453              	@ 0 "" 2
 155:Threads/thread.c ****     
 156:Threads/thread.c **** 
 157:Threads/thread.c ****     asm(" cpsie i "); // enable interrupts
 454              		.loc 1 157 0
 455              	@ 157 "Threads/thread.c" 1
 456 0176 62B6     		 cpsie i 
 457              	@ 0 "" 2
 158:Threads/thread.c ****     asm(" BX LR ");  // return to Thread B
 458              		.loc 1 158 0
 459              	@ 158 "Threads/thread.c" 1
 460 0178 7047     		 BX LR 
 461              	@ 0 "" 2
 159:Threads/thread.c ****     
 160:Threads/thread.c ****     
 161:Threads/thread.c **** }
 462              		.loc 1 161 0
 463              		.thumb
 464              		.syntax unified
 465              	.L16:
ARM GAS  C:\Users\Diogo\AppData\Local\Temp\cc9dracA.s 			page 12


 466 017a 00BF     		.align	2
 467              	.L15:
 468 017c 00000000 		.word	.LANCHOR0
 469              		.cfi_endproc
 470              	.LFE3:
 471              		.size	SysTick_Handler, .-SysTick_Handler
 472              		.global	TCB_Size
 473              		.comm	Threads,120,4
 474              		.global	ThreadCount
 475              		.global	ThreadIndex
 476              		.data
 477              		.align	2
 478              		.type	TCB_Size, %object
 479              		.size	TCB_Size, 4
 480              	TCB_Size:
 481 0000 0C000000 		.word	12
 482              		.bss
 483              		.align	2
 484              		.set	.LANCHOR0,. + 0
 485              		.type	ThreadCount, %object
 486              		.size	ThreadCount, 4
 487              	ThreadCount:
 488 0000 00000000 		.space	4
 489              		.type	ThreadIndex, %object
 490              		.size	ThreadIndex, 4
 491              	ThreadIndex:
 492 0004 00000000 		.space	4
 493              		.text
 494              	.Letext0:
 495              		.file 2 "c:\\program files (x86)\\gnu tools arm embedded\\7 2018-q2-update\\arm-none-eabi\\include
 496              		.file 3 "c:\\program files (x86)\\gnu tools arm embedded\\7 2018-q2-update\\arm-none-eabi\\include