ARM GAS  C:\Users\Diogo\AppData\Local\Temp\ccbGD2w3.s 			page 1


   1              		.cpu cortex-m4
   2              		.eabi_attribute 20, 1
   3              		.eabi_attribute 21, 1
   4              		.eabi_attribute 23, 3
   5              		.eabi_attribute 24, 1
   6              		.eabi_attribute 25, 1
   7              		.eabi_attribute 26, 1
   8              		.eabi_attribute 30, 1
   9              		.eabi_attribute 34, 1
  10              		.eabi_attribute 18, 4
  11              		.file	"thread.c"
  12              		.text
  13              	.Ltext0:
  14              		.cfi_sections	.debug_frame
  15              		.align	1
  16              		.global	getCurrentThread
  17              		.syntax unified
  18              		.thumb
  19              		.thumb_func
  20              		.fpu softvfp
  21              		.type	getCurrentThread, %function
  22              	getCurrentThread:
  23              	.LFB0:
  24              		.file 1 "Threads/thread.c"
   1:Threads/thread.c **** 
   2:Threads/thread.c **** #include "thread.h"
   3:Threads/thread.c **** 
   4:Threads/thread.c **** 
   5:Threads/thread.c **** uint32_t ThreadIndex = 0;
   6:Threads/thread.c **** uint32_t ThreadCount = 0;
   7:Threads/thread.c **** // typedef struct {
   8:Threads/thread.c **** //     uint32_t *ThreadStack;
   9:Threads/thread.c **** //     void (*ThreadFn )();
  10:Threads/thread.c **** //     uint32_t Attributes;
  11:Threads/thread.c **** //     uint32_t id;
  12:Threads/thread.c **** // } ThreadControlBlock;
  13:Threads/thread.c **** 
  14:Threads/thread.c **** //ThreadControlBlock ThreadControlBlock;
  15:Threads/thread.c **** 
  16:Threads/thread.c **** 
  17:Threads/thread.c **** ThreadControlBlock Threads[MAX_THREADS];
  18:Threads/thread.c **** uint32_t TCB_Size = sizeof(ThreadControlBlock);
  19:Threads/thread.c **** 
  20:Threads/thread.c **** uint32_t getCurrentThread(void)
  21:Threads/thread.c **** {
  25              		.loc 1 21 0
  26              		.cfi_startproc
  27              		@ args = 0, pretend = 0, frame = 0
  28              		@ frame_needed = 0, uses_anonymous_args = 0
  29              		@ link register save eliminated.
  22:Threads/thread.c ****     return ThreadIndex;
  23:Threads/thread.c **** }
  30              		.loc 1 23 0
  31 0000 014B     		ldr	r3, .L2
  32 0002 1868     		ldr	r0, [r3]
  33 0004 7047     		bx	lr
  34              	.L3:
ARM GAS  C:\Users\Diogo\AppData\Local\Temp\ccbGD2w3.s 			page 2


  35 0006 00BF     		.align	2
  36              	.L2:
  37 0008 00000000 		.word	.LANCHOR0
  38              		.cfi_endproc
  39              	.LFE0:
  40              		.size	getCurrentThread, .-getCurrentThread
  41              		.align	1
  42              		.global	createThread
  43              		.syntax unified
  44              		.thumb
  45              		.thumb_func
  46              		.fpu softvfp
  47              		.type	createThread, %function
  48              	createThread:
  49              	.LFB1:
  24:Threads/thread.c **** 
  25:Threads/thread.c **** void createThread(void (*ThreadFn )(), uint32_t *ThreadStack, uint32_t StackSize)
  26:Threads/thread.c **** {
  50              		.loc 1 26 0
  51              		.cfi_startproc
  52              		@ args = 0, pretend = 0, frame = 0
  53              		@ frame_needed = 0, uses_anonymous_args = 0
  54              		@ link register save eliminated.
  55              	.LVL0:
  56 000c 70B4     		push	{r4, r5, r6}
  57              	.LCFI0:
  58              		.cfi_def_cfa_offset 12
  59              		.cfi_offset 4, -12
  60              		.cfi_offset 5, -8
  61              		.cfi_offset 6, -4
  27:Threads/thread.c ****     uint32_t Index;
  28:Threads/thread.c ****     if (ThreadCount < MAX_THREADS)
  62              		.loc 1 28 0
  63 000e 2C4B     		ldr	r3, .L9
  64 0010 5B68     		ldr	r3, [r3, #4]
  65 0012 632B     		cmp	r3, #99
  66 0014 51D8     		bhi	.L4
  29:Threads/thread.c ****     {
  30:Threads/thread.c ****         asm(" cpsid i "); // disable interrupts during thread creation
  67              		.loc 1 30 0
  68              		.syntax unified
  69              	@ 30 "Threads/thread.c" 1
  70 0016 72B6     		 cpsid i 
  71              	@ 0 "" 2
  31:Threads/thread.c ****         Threads[ThreadCount].ThreadFn = ThreadFn;
  72              		.loc 1 31 0
  73              		.thumb
  74              		.syntax unified
  75 0018 294B     		ldr	r3, .L9
  76 001a 5C68     		ldr	r4, [r3, #4]
  77 001c 294B     		ldr	r3, .L9+4
  78 001e 03EB0413 		add	r3, r3, r4, lsl #4
  79 0022 5860     		str	r0, [r3, #4]
  80              	.LVL1:
  32:Threads/thread.c **** 
  33:Threads/thread.c ****         // The thread stack needs to be set up so that it can be context switched back to later
  34:Threads/thread.c ****         // First zero the stack (assuming 32 bit accesses.  Stacksize expressed in 32 bit words
ARM GAS  C:\Users\Diogo\AppData\Local\Temp\ccbGD2w3.s 			page 3


  35:Threads/thread.c ****         for (Index=0;Index < StackSize; Index++)
  81              		.loc 1 35 0
  82 0024 3AB1     		cbz	r2, .L6
  83 0026 0B1F     		subs	r3, r1, #4
  84 0028 03EB8205 		add	r5, r3, r2, lsl #2
  36:Threads/thread.c ****             ThreadStack[Index]=0;
  85              		.loc 1 36 0
  86 002c 0024     		movs	r4, #0
  87              	.LVL2:
  88              	.L7:
  89              		.loc 1 36 0 is_stmt 0 discriminator 3
  90 002e 43F8044F 		str	r4, [r3, #4]!
  35:Threads/thread.c ****             ThreadStack[Index]=0;
  91              		.loc 1 35 0 is_stmt 1 discriminator 3
  92 0032 AB42     		cmp	r3, r5
  93 0034 FBD1     		bne	.L7
  94              	.L6:
  37:Threads/thread.c ****         ThreadStack[StackSize-1] = (1 << 24); // Set the arithmetic flags to zero and ensure Thumb 
  95              		.loc 1 37 0
  96 0036 02F18042 		add	r2, r2, #1073741824
  97              	.LVL3:
  98 003a 013A     		subs	r2, r2, #1
  99              	.LVL4:
 100 003c 9400     		lsls	r4, r2, #2
 101 003e 4FF08073 		mov	r3, #16777216
 102 0042 41F82230 		str	r3, [r1, r2, lsl #2]
  38:Threads/thread.c ****         ThreadStack[StackSize-2] = (uint32_t) ThreadFn; // The "Stacked" PC goes here.
 103              		.loc 1 38 0
 104 0046 0B19     		adds	r3, r1, r4
 105 0048 43F8040C 		str	r0, [r3, #-4]
  39:Threads/thread.c ****         // Fill in some test values to help debugging
  40:Threads/thread.c ****         ThreadStack[StackSize-3] = 1; // LR
 106              		.loc 1 40 0
 107 004c 0120     		movs	r0, #1
 108              	.LVL5:
 109 004e 43F8080C 		str	r0, [r3, #-8]
  41:Threads/thread.c ****         ThreadStack[StackSize-4] = 2; // R12
 110              		.loc 1 41 0
 111 0052 0222     		movs	r2, #2
 112              	.LVL6:
 113 0054 43F80C2C 		str	r2, [r3, #-12]
  42:Threads/thread.c ****         ThreadStack[StackSize-5] = 3; // R3
 114              		.loc 1 42 0
 115 0058 0322     		movs	r2, #3
 116 005a 43F8102C 		str	r2, [r3, #-16]
  43:Threads/thread.c ****         ThreadStack[StackSize-6] = 4; // R2
 117              		.loc 1 43 0
 118 005e 0422     		movs	r2, #4
 119 0060 43F8142C 		str	r2, [r3, #-20]
  44:Threads/thread.c ****         ThreadStack[StackSize-7] = 5; // R1
 120              		.loc 1 44 0
 121 0064 0522     		movs	r2, #5
 122 0066 43F8182C 		str	r2, [r3, #-24]
  45:Threads/thread.c ****         ThreadStack[StackSize-8] = 6; // R0
 123              		.loc 1 45 0
 124 006a 0622     		movs	r2, #6
 125 006c 43F81C2C 		str	r2, [r3, #-28]
ARM GAS  C:\Users\Diogo\AppData\Local\Temp\ccbGD2w3.s 			page 4


  46:Threads/thread.c ****         ThreadStack[StackSize-9] = 7; // R11
 126              		.loc 1 46 0
 127 0070 0722     		movs	r2, #7
 128 0072 43F8202C 		str	r2, [r3, #-32]
  47:Threads/thread.c ****         ThreadStack[StackSize-10] = 8;// R10
 129              		.loc 1 47 0
 130 0076 0822     		movs	r2, #8
 131 0078 43F8242C 		str	r2, [r3, #-36]
  48:Threads/thread.c ****         ThreadStack[StackSize-11] = 9;// R9
 132              		.loc 1 48 0
 133 007c 0922     		movs	r2, #9
 134 007e 43F8282C 		str	r2, [r3, #-40]
  49:Threads/thread.c ****         ThreadStack[StackSize-12] = 10;// R8
 135              		.loc 1 49 0
 136 0082 0A22     		movs	r2, #10
 137 0084 43F82C2C 		str	r2, [r3, #-44]
  50:Threads/thread.c ****         ThreadStack[StackSize-13] = 11;// R7
 138              		.loc 1 50 0
 139 0088 0B22     		movs	r2, #11
 140 008a 43F8302C 		str	r2, [r3, #-48]
  51:Threads/thread.c ****         ThreadStack[StackSize-14] = 12;// R6
 141              		.loc 1 51 0
 142 008e 0C22     		movs	r2, #12
 143 0090 43F8342C 		str	r2, [r3, #-52]
  52:Threads/thread.c ****         ThreadStack[StackSize-15] = 13;// R5
 144              		.loc 1 52 0
 145 0094 0D22     		movs	r2, #13
 146 0096 43F8382C 		str	r2, [r3, #-56]
  53:Threads/thread.c ****         ThreadStack[StackSize-16] = 14;// R4
 147              		.loc 1 53 0
 148 009a A4F13C03 		sub	r3, r4, #60
 149              	.LVL7:
 150 009e CE18     		adds	r6, r1, r3
 151 00a0 0E22     		movs	r2, #14
 152 00a2 CA50     		str	r2, [r1, r3]
  54:Threads/thread.c ****         Threads[ThreadCount].ThreadStack = &ThreadStack[StackSize-16];
 153              		.loc 1 54 0
 154 00a4 064A     		ldr	r2, .L9
 155 00a6 5368     		ldr	r3, [r2, #4]
 156 00a8 064D     		ldr	r5, .L9+4
 157 00aa 1C01     		lsls	r4, r3, #4
 158              	.LVL8:
 159 00ac 2919     		adds	r1, r5, r4
 160              	.LVL9:
 161 00ae 2E51     		str	r6, [r5, r4]
  55:Threads/thread.c ****         Threads[ThreadCount].Attributes = 1; // lets say 1 means "schedulable"
 162              		.loc 1 55 0
 163 00b0 8860     		str	r0, [r1, #8]
  56:Threads/thread.c ****         Threads[ThreadCount].id = ThreadCount;
 164              		.loc 1 56 0
 165 00b2 CB60     		str	r3, [r1, #12]
  57:Threads/thread.c ****         ThreadCount++;
 166              		.loc 1 57 0
 167 00b4 0344     		add	r3, r3, r0
 168 00b6 5360     		str	r3, [r2, #4]
  58:Threads/thread.c ****         asm(" cpsie i "); // enable interrupts
 169              		.loc 1 58 0
ARM GAS  C:\Users\Diogo\AppData\Local\Temp\ccbGD2w3.s 			page 5


 170              		.syntax unified
 171              	@ 58 "Threads/thread.c" 1
 172 00b8 62B6     		 cpsie i 
 173              	@ 0 "" 2
 174              		.thumb
 175              		.syntax unified
 176              	.L4:
  59:Threads/thread.c ****     }
  60:Threads/thread.c **** }
 177              		.loc 1 60 0
 178 00ba 70BC     		pop	{r4, r5, r6}
 179              	.LCFI1:
 180              		.cfi_restore 6
 181              		.cfi_restore 5
 182              		.cfi_restore 4
 183              		.cfi_def_cfa_offset 0
 184 00bc 7047     		bx	lr
 185              	.L10:
 186 00be 00BF     		.align	2
 187              	.L9:
 188 00c0 00000000 		.word	.LANCHOR0
 189 00c4 00000000 		.word	Threads
 190              		.cfi_endproc
 191              	.LFE1:
 192              		.size	createThread, .-createThread
 193              		.align	1
 194              		.global	initSysTick
 195              		.syntax unified
 196              		.thumb
 197              		.thumb_func
 198              		.fpu softvfp
 199              		.type	initSysTick, %function
 200              	initSysTick:
 201              	.LFB2:
  61:Threads/thread.c **** 
  62:Threads/thread.c **** 
  63:Threads/thread.c **** 
  64:Threads/thread.c **** void initSysTick()
  65:Threads/thread.c **** {
 202              		.loc 1 65 0
 203              		.cfi_startproc
 204              		@ args = 0, pretend = 0, frame = 0
 205              		@ frame_needed = 0, uses_anonymous_args = 0
 206              		@ link register save eliminated.
 207              	.LVL10:
  66:Threads/thread.c **** 	uint32_t *ADDR_MEMORY;
  67:Threads/thread.c **** 	// Default power up clock status is as follows:
  68:Threads/thread.c **** 	// PIOSC runs at 16MHz.  This supplies the system clock
  69:Threads/thread.c **** 	// The systick timer is driven by PIOSC/4 (4MHz)
  70:Threads/thread.c **** 	// enable systick and its interrupts
  71:Threads/thread.c **** 		ADDR_MEMORY = (uint32_t*)NVIC_ST_CTRL;
  72:Threads/thread.c ****     *ADDR_MEMORY |= 0x3;
 208              		.loc 1 72 0
 209 00c8 064A     		ldr	r2, .L12
 210 00ca 1368     		ldr	r3, [r2]
 211 00cc 43F00303 		orr	r3, r3, #3
 212 00d0 1360     		str	r3, [r2]
ARM GAS  C:\Users\Diogo\AppData\Local\Temp\ccbGD2w3.s 			page 6


 213              	.LVL11:
  73:Threads/thread.c **** 		ADDR_MEMORY = (uint32_t*)NVIC_ST_RELOAD;
  74:Threads/thread.c ****     *ADDR_MEMORY = 4000;
 214              		.loc 1 74 0
 215 00d2 054B     		ldr	r3, .L12+4
 216 00d4 4FF47A62 		mov	r2, #4000
 217 00d8 1A60     		str	r2, [r3]
 218              	.LVL12:
  75:Threads/thread.c ****     ADDR_MEMORY = (uint32_t*)NVIC_ST_CURRENT;
  76:Threads/thread.c ****     *ADDR_MEMORY = 1000;
 219              		.loc 1 76 0
 220 00da 0433     		adds	r3, r3, #4
 221 00dc 4FF47A72 		mov	r2, #1000
 222 00e0 1A60     		str	r2, [r3]
  77:Threads/thread.c ****     /*
  78:Threads/thread.c ****     SET_BIT(SYS_STCTRL,BIT0+BIT1);
  79:Threads/thread.c **** 	SYS_STRELOAD=4000;  // generate 1 millisecond time base
  80:Threads/thread.c **** 	SYS_STCURRENT=1000; // start the counter off at a low(ish) figure
  81:Threads/thread.c **** 	*/
  82:Threads/thread.c **** }
 223              		.loc 1 82 0
 224 00e2 7047     		bx	lr
 225              	.L13:
 226              		.align	2
 227              	.L12:
 228 00e4 10E000E0 		.word	-536813552
 229 00e8 14E000E0 		.word	-536813548
 230              		.cfi_endproc
 231              	.LFE2:
 232              		.size	initSysTick, .-initSysTick
 233              		.align	1
 234              		.global	startSwitcher
 235              		.syntax unified
 236              		.thumb
 237              		.thumb_func
 238              		.fpu softvfp
 239              		.type	startSwitcher, %function
 240              	startSwitcher:
 241              	.LFB3:
  83:Threads/thread.c **** void startSwitcher()
  84:Threads/thread.c **** {
 242              		.loc 1 84 0
 243              		.cfi_startproc
 244              		@ Volatile: function does not return.
 245              		@ args = 0, pretend = 0, frame = 0
 246              		@ frame_needed = 0, uses_anonymous_args = 0
 247 00ec 08B5     		push	{r3, lr}
 248              	.LCFI2:
 249              		.cfi_def_cfa_offset 8
 250              		.cfi_offset 3, -8
 251              		.cfi_offset 14, -4
  85:Threads/thread.c **** 
  86:Threads/thread.c ****     // At the end of this function, the routine enters a never-ending while loop.
  87:Threads/thread.c ****     // At the next interrupt, the contents of xPSR, PC, LR, R12 and R0-R3 are dumped
  88:Threads/thread.c ****     // on the thread stack.  This consumes 32 bytes of stack on this stack.
  89:Threads/thread.c ****     // If we do not take this into account, the stack pointer for the first thread will
  90:Threads/thread.c ****     // be off by this amount so we need to adjust it in advanace by
ARM GAS  C:\Users\Diogo\AppData\Local\Temp\ccbGD2w3.s 			page 7


  91:Threads/thread.c ****     initSysTick();
 252              		.loc 1 91 0
 253 00ee FFF7FEFF 		bl	initSysTick
 254              	.LVL13:
  92:Threads/thread.c ****     asm(" LDR R0,=Threads "); // point to start of TCB array
 255              		.loc 1 92 0
 256              		.syntax unified
 257              	@ 92 "Threads/thread.c" 1
 258 00f2 2548     		 LDR R0,=Threads 
 259              	@ 0 "" 2
  93:Threads/thread.c ****     asm(" LDR R0,[R0] ");   // read first Thread Stack pointer
 260              		.loc 1 93 0
 261              	@ 93 "Threads/thread.c" 1
 262 00f4 0068     		 LDR R0,[R0] 
 263              	@ 0 "" 2
  94:Threads/thread.c **** 
  95:Threads/thread.c ****     asm(" ADD R0,#32 ");    // Adjust first thread stack
 264              		.loc 1 95 0
 265              	@ 95 "Threads/thread.c" 1
 266 00f6 00F12000 		 ADD R0,#32 
 267              	@ 0 "" 2
  96:Threads/thread.c ****     asm(" MSR PSP,R0 ");    // write first stack pointer to process stack pointer
 268              		.loc 1 96 0
 269              	@ 96 "Threads/thread.c" 1
 270 00fa 80F30988 		 MSR PSP,R0 
 271              	@ 0 "" 2
  97:Threads/thread.c ****     asm(" cpsie i ");
 272              		.loc 1 97 0
 273              	@ 97 "Threads/thread.c" 1
 274 00fe 62B6     		 cpsie i 
 275              	@ 0 "" 2
 276              		.thumb
 277              		.syntax unified
 278              	.L15:
 279 0100 FEE7     		b	.L15
 280              		.cfi_endproc
 281              	.LFE3:
 282              		.size	startSwitcher, .-startSwitcher
 283              		.align	1
 284              		.global	SysTick_Handler
 285              		.syntax unified
 286              		.thumb
 287              		.thumb_func
 288              		.fpu softvfp
 289              		.type	SysTick_Handler, %function
 290              	SysTick_Handler:
 291              	.LFB4:
  98:Threads/thread.c ****     while(1);
  99:Threads/thread.c **** }
 100:Threads/thread.c **** 
 101:Threads/thread.c **** 
 102:Threads/thread.c **** 
 103:Threads/thread.c **** // Want the systick handler to be "pure assembler without any stack shenanigans by the compiler (he
 104:Threads/thread.c **** __attribute__((naked)) void SysTick_Handler(void)
 105:Threads/thread.c **** {
 292              		.loc 1 105 0
 293              		.cfi_startproc
ARM GAS  C:\Users\Diogo\AppData\Local\Temp\ccbGD2w3.s 			page 8


 294              		@ Naked Function: prologue and epilogue provided by programmer.
 295              		@ args = 0, pretend = 0, frame = 0
 296              		@ frame_needed = 0, uses_anonymous_args = 0
 106:Threads/thread.c **** 
 107:Threads/thread.c **** 
 108:Threads/thread.c **** // Thread switching will happen here
 109:Threads/thread.c **** // On entry, R0,R1,R2,R3 and R12 for Thread 'A' (whichever one that may be) are on the thread stack
 110:Threads/thread.c **** 
 111:Threads/thread.c **** // Preserve remaining registers on stack of thread that is being suspended (Thread A)
 112:Threads/thread.c ****     asm(" cpsid i "); // disable interrupts during thread switch
 297              		.loc 1 112 0
 298              		.syntax unified
 299              	@ 112 "Threads/thread.c" 1
 300 0102 72B6     		 cpsid i 
 301              	@ 0 "" 2
 113:Threads/thread.c ****     asm(" MRS R0,PSP ");  // get Thread A stack pointer
 302              		.loc 1 113 0
 303              	@ 113 "Threads/thread.c" 1
 304 0104 EFF30980 		 MRS R0,PSP 
 305              	@ 0 "" 2
 114:Threads/thread.c ****     asm(" SUB R0,#32");   // Make room for the other registers : R4-R11 = 8 x 4 = 32 bytes
 306              		.loc 1 114 0
 307              	@ 114 "Threads/thread.c" 1
 308 0108 A0F12000 		 SUB R0,#32
 309              	@ 0 "" 2
 115:Threads/thread.c ****     asm(" STMIA R0! , { R4-R7 } "); // Can only do a multiple store on registers up to R7
 310              		.loc 1 115 0
 311              	@ 115 "Threads/thread.c" 1
 312 010c F0C0     		 STMIA R0! , { R4-R7 } 
 313              	@ 0 "" 2
 116:Threads/thread.c ****     asm(" MOV R4,R8 "); // Copy higher registers to lower ones
 314              		.loc 1 116 0
 315              	@ 116 "Threads/thread.c" 1
 316 010e 4446     		 MOV R4,R8 
 317              	@ 0 "" 2
 117:Threads/thread.c ****     asm(" MOV R5,R9 ");
 318              		.loc 1 117 0
 319              	@ 117 "Threads/thread.c" 1
 320 0110 4D46     		 MOV R5,R9 
 321              	@ 0 "" 2
 118:Threads/thread.c ****     asm(" MOV R6,R10 ");
 322              		.loc 1 118 0
 323              	@ 118 "Threads/thread.c" 1
 324 0112 5646     		 MOV R6,R10 
 325              	@ 0 "" 2
 119:Threads/thread.c ****     asm(" MOV R7,R11 ");
 326              		.loc 1 119 0
 327              	@ 119 "Threads/thread.c" 1
 328 0114 5F46     		 MOV R7,R11 
 329              	@ 0 "" 2
 120:Threads/thread.c ****     asm(" STMIA R0! , { R4-R7 } "); // and repeat the multiple register store
 330              		.loc 1 120 0
 331              	@ 120 "Threads/thread.c" 1
 332 0116 F0C0     		 STMIA R0! , { R4-R7 } 
 333              	@ 0 "" 2
 121:Threads/thread.c **** // Locate the Thread Control Block (TCB) for Thread A
 122:Threads/thread.c ****     asm(" LDR R0,=TCB_Size "); // get the size of each TCB
ARM GAS  C:\Users\Diogo\AppData\Local\Temp\ccbGD2w3.s 			page 9


 334              		.loc 1 122 0
 335              	@ 122 "Threads/thread.c" 1
 336 0118 1C48     		 LDR R0,=TCB_Size 
 337              	@ 0 "" 2
 123:Threads/thread.c ****     asm(" LDR R0,[R0] ");
 338              		.loc 1 123 0
 339              	@ 123 "Threads/thread.c" 1
 340 011a 0068     		 LDR R0,[R0] 
 341              	@ 0 "" 2
 124:Threads/thread.c ****     asm(" LDR R1,=ThreadIndex "); // Which one is being used right now?
 342              		.loc 1 124 0
 343              	@ 124 "Threads/thread.c" 1
 344 011c 1C49     		 LDR R1,=ThreadIndex 
 345              	@ 0 "" 2
 125:Threads/thread.c ****     asm(" LDR R1,[R1] ");
 346              		.loc 1 125 0
 347              	@ 125 "Threads/thread.c" 1
 348 011e 0968     		 LDR R1,[R1] 
 349              	@ 0 "" 2
 126:Threads/thread.c ****     asm(" MUL R1,R0,R1 "); // Calculate offset of Thread A TCB from start of TCB array
 350              		.loc 1 126 0
 351              	@ 126 "Threads/thread.c" 1
 352 0120 00FB01F1 		 MUL R1,R0,R1 
 353              	@ 0 "" 2
 127:Threads/thread.c ****     asm(" LDR R0,=Threads "); // point to start of TCB array
 354              		.loc 1 127 0
 355              	@ 127 "Threads/thread.c" 1
 356 0124 1848     		 LDR R0,=Threads 
 357              	@ 0 "" 2
 128:Threads/thread.c ****     asm(" ADD R1,R0,R1 ");  // add offset to get pointer to Thread A TCB
 358              		.loc 1 128 0
 359              	@ 128 "Threads/thread.c" 1
 360 0126 0144     		 ADD R1,R0,R1 
 361              	@ 0 "" 2
 129:Threads/thread.c ****     asm(" MRS R0,PSP ");   // get Thread A stack pointer
 362              		.loc 1 129 0
 363              	@ 129 "Threads/thread.c" 1
 364 0128 EFF30980 		 MRS R0,PSP 
 365              	@ 0 "" 2
 130:Threads/thread.c **** // Save Thread A's stack pointer (adjusted for new registers being pushed
 131:Threads/thread.c ****     asm(" SUB R0,#32 ");   // Adjust for the other registers : R4-R11 = 8 x 4 = 32 bytes
 366              		.loc 1 131 0
 367              	@ 131 "Threads/thread.c" 1
 368 012c A0F12000 		 SUB R0,#32 
 369              	@ 0 "" 2
 132:Threads/thread.c ****     asm(" STR R0,[R1] ");  // Save Thread A Stack pointer to the TCB (first entry = Saved stack poi
 370              		.loc 1 132 0
 371              	@ 132 "Threads/thread.c" 1
 372 0130 0860     		 STR R0,[R1] 
 373              	@ 0 "" 2
 133:Threads/thread.c **** 
 134:Threads/thread.c **** // Update the ThreadIndex
 135:Threads/thread.c ****     ThreadIndex++;
 374              		.loc 1 135 0
 375              		.thumb
 376              		.syntax unified
 377 0132 144A     		ldr	r2, .L18
ARM GAS  C:\Users\Diogo\AppData\Local\Temp\ccbGD2w3.s 			page 10


 378 0134 1368     		ldr	r3, [r2]
 379 0136 0133     		adds	r3, r3, #1
 380 0138 1360     		str	r3, [r2]
 136:Threads/thread.c ****     if (ThreadIndex >= ThreadCount)
 381              		.loc 1 136 0
 382 013a 5268     		ldr	r2, [r2, #4]
 383 013c 9342     		cmp	r3, r2
 384 013e 02D3     		bcc	.L17
 137:Threads/thread.c ****         ThreadIndex = 0;
 385              		.loc 1 137 0
 386 0140 104B     		ldr	r3, .L18
 387 0142 0022     		movs	r2, #0
 388 0144 1A60     		str	r2, [r3]
 389              	.L17:
 138:Threads/thread.c **** 
 139:Threads/thread.c **** // Locate the Thread Control Block (TCB) for Thread B
 140:Threads/thread.c ****     asm(" LDR R0,=TCB_Size "); // get the size of each TCB
 390              		.loc 1 140 0
 391              		.syntax unified
 392              	@ 140 "Threads/thread.c" 1
 393 0146 1148     		 LDR R0,=TCB_Size 
 394              	@ 0 "" 2
 141:Threads/thread.c ****     asm(" LDR R0,[R0] ");
 395              		.loc 1 141 0
 396              	@ 141 "Threads/thread.c" 1
 397 0148 0068     		 LDR R0,[R0] 
 398              	@ 0 "" 2
 142:Threads/thread.c ****     asm(" LDR R1,=ThreadIndex "); // Which one is being used right now?
 399              		.loc 1 142 0
 400              	@ 142 "Threads/thread.c" 1
 401 014a 1149     		 LDR R1,=ThreadIndex 
 402              	@ 0 "" 2
 143:Threads/thread.c ****     asm(" LDR R1,[R1] ");
 403              		.loc 1 143 0
 404              	@ 143 "Threads/thread.c" 1
 405 014c 0968     		 LDR R1,[R1] 
 406              	@ 0 "" 2
 144:Threads/thread.c ****     asm(" MUL R1,R0,R1 ");  // Calculate offset of Thread A TCB from start of TCB array
 407              		.loc 1 144 0
 408              	@ 144 "Threads/thread.c" 1
 409 014e 00FB01F1 		 MUL R1,R0,R1 
 410              	@ 0 "" 2
 145:Threads/thread.c ****     asm(" LDR R0,=Threads "); // point to start of TCB array
 411              		.loc 1 145 0
 412              	@ 145 "Threads/thread.c" 1
 413 0152 0D48     		 LDR R0,=Threads 
 414              	@ 0 "" 2
 146:Threads/thread.c ****     asm(" ADD R1,R0,R1 ");  // add offset to get pointer to Thread B TCB
 415              		.loc 1 146 0
 416              	@ 146 "Threads/thread.c" 1
 417 0154 0144     		 ADD R1,R0,R1 
 418              	@ 0 "" 2
 147:Threads/thread.c ****     asm(" LDR R0,[R1] ");   // read saved Thread B Stack pointer
 419              		.loc 1 147 0
 420              	@ 147 "Threads/thread.c" 1
 421 0156 0868     		 LDR R0,[R1] 
 422              	@ 0 "" 2
ARM GAS  C:\Users\Diogo\AppData\Local\Temp\ccbGD2w3.s 			page 11


 148:Threads/thread.c ****     asm(" ADD R0,#16 ");    // Skip past saved low registers for the moment
 423              		.loc 1 148 0
 424              	@ 148 "Threads/thread.c" 1
 425 0158 00F11000 		 ADD R0,#16 
 426              	@ 0 "" 2
 149:Threads/thread.c ****     asm(" LDMIA R0!,{R4-R7} "); // read saved registers
 427              		.loc 1 149 0
 428              	@ 149 "Threads/thread.c" 1
 429 015c F0C8     		 LDMIA R0!,{R4-R7} 
 430              	@ 0 "" 2
 150:Threads/thread.c ****     asm(" MOV R8,R4 "); // Copy higher registers to lower ones
 431              		.loc 1 150 0
 432              	@ 150 "Threads/thread.c" 1
 433 015e A046     		 MOV R8,R4 
 434              	@ 0 "" 2
 151:Threads/thread.c ****     asm(" MOV R9,R5 ");
 435              		.loc 1 151 0
 436              	@ 151 "Threads/thread.c" 1
 437 0160 A946     		 MOV R9,R5 
 438              	@ 0 "" 2
 152:Threads/thread.c ****     asm(" MOV R10,R6 ");
 439              		.loc 1 152 0
 440              	@ 152 "Threads/thread.c" 1
 441 0162 B246     		 MOV R10,R6 
 442              	@ 0 "" 2
 153:Threads/thread.c ****     asm(" MOV R11,R7 ");
 443              		.loc 1 153 0
 444              	@ 153 "Threads/thread.c" 1
 445 0164 BB46     		 MOV R11,R7 
 446              	@ 0 "" 2
 154:Threads/thread.c ****     asm(" LDR R0,[R1] ");   // read saved Thread B Stack pointer
 447              		.loc 1 154 0
 448              	@ 154 "Threads/thread.c" 1
 449 0166 0868     		 LDR R0,[R1] 
 450              	@ 0 "" 2
 155:Threads/thread.c ****     asm(" LDMIA R0!,{R4-R7} "); // read saved LOW registers
 451              		.loc 1 155 0
 452              	@ 155 "Threads/thread.c" 1
 453 0168 F0C8     		 LDMIA R0!,{R4-R7} 
 454              	@ 0 "" 2
 156:Threads/thread.c ****     asm(" LDR R0,[R1] ");   // read saved Thread B Stack pointer
 455              		.loc 1 156 0
 456              	@ 156 "Threads/thread.c" 1
 457 016a 0868     		 LDR R0,[R1] 
 458              	@ 0 "" 2
 157:Threads/thread.c ****     asm(" ADD R0,#32 ");    // re-adjust saved stack pointer
 459              		.loc 1 157 0
 460              	@ 157 "Threads/thread.c" 1
 461 016c 00F12000 		 ADD R0,#32 
 462              	@ 0 "" 2
 158:Threads/thread.c ****     asm(" MSR PSP,R0 ");    // write Thread B stack pointer
 463              		.loc 1 158 0
 464              	@ 158 "Threads/thread.c" 1
 465 0170 80F30988 		 MSR PSP,R0 
 466              	@ 0 "" 2
 159:Threads/thread.c **** 
 160:Threads/thread.c ****     // The following is only really necessary for the first run of the scheduler.
ARM GAS  C:\Users\Diogo\AppData\Local\Temp\ccbGD2w3.s 			page 12


 161:Threads/thread.c ****     asm(" MOV R0,#0 ");     // Force LR to 0xffffffd so that
 467              		.loc 1 161 0
 468              	@ 161 "Threads/thread.c" 1
 469 0174 4FF00000 		 MOV R0,#0 
 470              	@ 0 "" 2
 162:Threads/thread.c ****     asm(" SUB R0,#3 ");     // on return from interrupt the CPU
 471              		.loc 1 162 0
 472              	@ 162 "Threads/thread.c" 1
 473 0178 A0F10300 		 SUB R0,#3 
 474              	@ 0 "" 2
 163:Threads/thread.c ****     asm(" MOV LR,R0 ");     // will switch to thread stack
 475              		.loc 1 163 0
 476              	@ 163 "Threads/thread.c" 1
 477 017c 8646     		 MOV LR,R0 
 478              	@ 0 "" 2
 164:Threads/thread.c **** 
 165:Threads/thread.c **** 
 166:Threads/thread.c ****     asm(" cpsie i "); // enable interrupts
 479              		.loc 1 166 0
 480              	@ 166 "Threads/thread.c" 1
 481 017e 62B6     		 cpsie i 
 482              	@ 0 "" 2
 167:Threads/thread.c ****     asm(" BX LR ");  // return to Thread B
 483              		.loc 1 167 0
 484              	@ 167 "Threads/thread.c" 1
 485 0180 7047     		 BX LR 
 486              	@ 0 "" 2
 168:Threads/thread.c **** 
 169:Threads/thread.c **** 
 170:Threads/thread.c **** }
 487              		.loc 1 170 0
 488              		.thumb
 489              		.syntax unified
 490              	.L19:
 491 0182 00BF     		.align	2
 492              	.L18:
 493 0184 00000000 		.word	.LANCHOR0
 494              		.cfi_endproc
 495              	.LFE4:
 496              		.size	SysTick_Handler, .-SysTick_Handler
 497              		.global	TCB_Size
 498              		.comm	Threads,1600,4
 499              		.global	ThreadCount
 500              		.global	ThreadIndex
 501              		.data
 502              		.align	2
 503              		.type	TCB_Size, %object
 504              		.size	TCB_Size, 4
 505              	TCB_Size:
 506 0000 10000000 		.word	16
 507              		.bss
 508              		.align	2
 509              		.set	.LANCHOR0,. + 0
 510              		.type	ThreadIndex, %object
 511              		.size	ThreadIndex, 4
 512              	ThreadIndex:
 513 0000 00000000 		.space	4
ARM GAS  C:\Users\Diogo\AppData\Local\Temp\ccbGD2w3.s 			page 13


 514              		.type	ThreadCount, %object
 515              		.size	ThreadCount, 4
 516              	ThreadCount:
 517 0004 00000000 		.space	4
 518              		.text
 519              	.Letext0:
 520              		.file 2 "c:\\program files (x86)\\gnu tools arm embedded\\7 2018-q2-update\\arm-none-eabi\\include
 521              		.file 3 "c:\\program files (x86)\\gnu tools arm embedded\\7 2018-q2-update\\arm-none-eabi\\include
 522              		.file 4 "Threads/thread.h"
 523              		.section	.debug_info,"",%progbits
 524              	.Ldebug_info0:
 525 0000 09020000 		.4byte	0x209
 526 0004 0200     		.2byte	0x2
 527 0006 00000000 		.4byte	.Ldebug_abbrev0
 528 000a 04       		.byte	0x4
 529 000b 01       		.uleb128 0x1
 530 000c 72010000 		.4byte	.LASF24
 531 0010 0C       		.byte	0xc
 532 0011 BA000000 		.4byte	.LASF25
 533 0015 0E000000 		.4byte	.LASF26
 534 0019 00000000 		.4byte	.Ltext0
 535 001d 88010000 		.4byte	.Letext0
 536 0021 00000000 		.4byte	.Ldebug_line0
 537 0025 02       		.uleb128 0x2
 538 0026 01       		.byte	0x1
 539 0027 06       		.byte	0x6
 540 0028 08020000 		.4byte	.LASF0
 541 002c 02       		.uleb128 0x2
 542 002d 01       		.byte	0x1
 543 002e 08       		.byte	0x8
 544 002f 70000000 		.4byte	.LASF1
 545 0033 02       		.uleb128 0x2
 546 0034 02       		.byte	0x2
 547 0035 05       		.byte	0x5
 548 0036 5F010000 		.4byte	.LASF2
 549 003a 02       		.uleb128 0x2
 550 003b 02       		.byte	0x2
 551 003c 07       		.byte	0x7
 552 003d 90000000 		.4byte	.LASF3
 553 0041 02       		.uleb128 0x2
 554 0042 04       		.byte	0x4
 555 0043 05       		.byte	0x5
 556 0044 48000000 		.4byte	.LASF4
 557 0048 03       		.uleb128 0x3
 558 0049 AF000000 		.4byte	.LASF9
 559 004d 02       		.byte	0x2
 560 004e 4F       		.byte	0x4f
 561 004f 53000000 		.4byte	0x53
 562 0053 02       		.uleb128 0x2
 563 0054 04       		.byte	0x4
 564 0055 07       		.byte	0x7
 565 0056 7E000000 		.4byte	.LASF5
 566 005a 02       		.uleb128 0x2
 567 005b 08       		.byte	0x8
 568 005c 05       		.byte	0x5
 569 005d 40010000 		.4byte	.LASF6
 570 0061 02       		.uleb128 0x2
ARM GAS  C:\Users\Diogo\AppData\Local\Temp\ccbGD2w3.s 			page 14


 571 0062 08       		.byte	0x8
 572 0063 07       		.byte	0x7
 573 0064 EF000000 		.4byte	.LASF7
 574 0068 04       		.uleb128 0x4
 575 0069 04       		.byte	0x4
 576 006a 05       		.byte	0x5
 577 006b 696E7400 		.ascii	"int\000"
 578 006f 02       		.uleb128 0x2
 579 0070 04       		.byte	0x4
 580 0071 07       		.byte	0x7
 581 0072 E2000000 		.4byte	.LASF8
 582 0076 03       		.uleb128 0x3
 583 0077 69010000 		.4byte	.LASF10
 584 007b 03       		.byte	0x3
 585 007c 30       		.byte	0x30
 586 007d 48000000 		.4byte	0x48
 587 0081 05       		.uleb128 0x5
 588 0082 2D010000 		.4byte	.LASF14
 589 0086 10       		.byte	0x10
 590 0087 04       		.byte	0x4
 591 0088 09       		.byte	0x9
 592 0089 C5000000 		.4byte	0xc5
 593 008d 06       		.uleb128 0x6
 594 008e 21010000 		.4byte	.LASF11
 595 0092 04       		.byte	0x4
 596 0093 0A       		.byte	0xa
 597 0094 C5000000 		.4byte	0xc5
 598 0098 02       		.byte	0x2
 599 0099 23       		.byte	0x23
 600 009a 00       		.uleb128 0
 601 009b 06       		.uleb128 0x6
 602 009c 67000000 		.4byte	.LASF12
 603 00a0 04       		.byte	0x4
 604 00a1 0B       		.byte	0xb
 605 00a2 D2000000 		.4byte	0xd2
 606 00a6 02       		.byte	0x2
 607 00a7 23       		.byte	0x23
 608 00a8 04       		.uleb128 0x4
 609 00a9 06       		.uleb128 0x6
 610 00aa CB000000 		.4byte	.LASF13
 611 00ae 04       		.byte	0x4
 612 00af 0C       		.byte	0xc
 613 00b0 76000000 		.4byte	0x76
 614 00b4 02       		.byte	0x2
 615 00b5 23       		.byte	0x23
 616 00b6 08       		.uleb128 0x8
 617 00b7 07       		.uleb128 0x7
 618 00b8 696400   		.ascii	"id\000"
 619 00bb 04       		.byte	0x4
 620 00bc 0D       		.byte	0xd
 621 00bd 76000000 		.4byte	0x76
 622 00c1 02       		.byte	0x2
 623 00c2 23       		.byte	0x23
 624 00c3 0C       		.uleb128 0xc
 625 00c4 00       		.byte	0
 626 00c5 08       		.uleb128 0x8
 627 00c6 04       		.byte	0x4
ARM GAS  C:\Users\Diogo\AppData\Local\Temp\ccbGD2w3.s 			page 15


 628 00c7 76000000 		.4byte	0x76
 629 00cb 09       		.uleb128 0x9
 630 00cc D2000000 		.4byte	0xd2
 631 00d0 0A       		.uleb128 0xa
 632 00d1 00       		.byte	0
 633 00d2 08       		.uleb128 0x8
 634 00d3 04       		.byte	0x4
 635 00d4 CB000000 		.4byte	0xcb
 636 00d8 03       		.uleb128 0x3
 637 00d9 2D010000 		.4byte	.LASF14
 638 00dd 04       		.byte	0x4
 639 00de 0E       		.byte	0xe
 640 00df 81000000 		.4byte	0x81
 641 00e3 0B       		.uleb128 0xb
 642 00e4 51000000 		.4byte	.LASF15
 643 00e8 01       		.byte	0x1
 644 00e9 05       		.byte	0x5
 645 00ea 76000000 		.4byte	0x76
 646 00ee 01       		.byte	0x1
 647 00ef 05       		.byte	0x5
 648 00f0 03       		.byte	0x3
 649 00f1 00000000 		.4byte	ThreadIndex
 650 00f5 0B       		.uleb128 0xb
 651 00f6 D6000000 		.4byte	.LASF16
 652 00fa 01       		.byte	0x1
 653 00fb 06       		.byte	0x6
 654 00fc 76000000 		.4byte	0x76
 655 0100 01       		.byte	0x1
 656 0101 05       		.byte	0x5
 657 0102 03       		.byte	0x3
 658 0103 00000000 		.4byte	ThreadCount
 659 0107 0C       		.uleb128 0xc
 660 0108 D8000000 		.4byte	0xd8
 661 010c 17010000 		.4byte	0x117
 662 0110 0D       		.uleb128 0xd
 663 0111 6F000000 		.4byte	0x6f
 664 0115 63       		.byte	0x63
 665 0116 00       		.byte	0
 666 0117 0B       		.uleb128 0xb
 667 0118 00000000 		.4byte	.LASF17
 668 011c 01       		.byte	0x1
 669 011d 11       		.byte	0x11
 670 011e 07010000 		.4byte	0x107
 671 0122 01       		.byte	0x1
 672 0123 05       		.byte	0x5
 673 0124 03       		.byte	0x3
 674 0125 00000000 		.4byte	Threads
 675 0129 0B       		.uleb128 0xb
 676 012a FF010000 		.4byte	.LASF18
 677 012e 01       		.byte	0x1
 678 012f 12       		.byte	0x12
 679 0130 76000000 		.4byte	0x76
 680 0134 01       		.byte	0x1
 681 0135 05       		.byte	0x5
 682 0136 03       		.byte	0x3
 683 0137 00000000 		.4byte	TCB_Size
 684 013b 0E       		.uleb128 0xe
ARM GAS  C:\Users\Diogo\AppData\Local\Temp\ccbGD2w3.s 			page 16


 685 013c 01       		.byte	0x1
 686 013d 38000000 		.4byte	.LASF27
 687 0141 01       		.byte	0x1
 688 0142 68       		.byte	0x68
 689 0143 01       		.byte	0x1
 690 0144 02010000 		.4byte	.LFB4
 691 0148 88010000 		.4byte	.LFE4
 692 014c 02       		.byte	0x2
 693 014d 7D       		.byte	0x7d
 694 014e 00       		.sleb128 0
 695 014f 01       		.byte	0x1
 696 0150 0F       		.uleb128 0xf
 697 0151 01       		.byte	0x1
 698 0152 06010000 		.4byte	.LASF19
 699 0156 01       		.byte	0x1
 700 0157 53       		.byte	0x53
 701 0158 01       		.byte	0x1
 702 0159 EC000000 		.4byte	.LFB3
 703 015d 02010000 		.4byte	.LFE3
 704 0161 00000000 		.4byte	.LLST6
 705 0165 01       		.byte	0x1
 706 0166 74010000 		.4byte	0x174
 707 016a 10       		.uleb128 0x10
 708 016b F2000000 		.4byte	.LVL13
 709 016f 74010000 		.4byte	0x174
 710 0173 00       		.byte	0
 711 0174 11       		.uleb128 0x11
 712 0175 01       		.byte	0x1
 713 0176 A3000000 		.4byte	.LASF28
 714 017a 01       		.byte	0x1
 715 017b 40       		.byte	0x40
 716 017c C8000000 		.4byte	.LFB2
 717 0180 EC000000 		.4byte	.LFE2
 718 0184 02       		.byte	0x2
 719 0185 7D       		.byte	0x7d
 720 0186 00       		.sleb128 0
 721 0187 01       		.byte	0x1
 722 0188 9C010000 		.4byte	0x19c
 723 018c 12       		.uleb128 0x12
 724 018d 14020000 		.4byte	.LASF22
 725 0191 01       		.byte	0x1
 726 0192 42       		.byte	0x42
 727 0193 C5000000 		.4byte	0xc5
 728 0197 20000000 		.4byte	.LLST5
 729 019b 00       		.byte	0
 730 019c 0F       		.uleb128 0xf
 731 019d 01       		.byte	0x1
 732 019e 14010000 		.4byte	.LASF20
 733 01a2 01       		.byte	0x1
 734 01a3 19       		.byte	0x19
 735 01a4 01       		.byte	0x1
 736 01a5 0C000000 		.4byte	.LFB1
 737 01a9 C8000000 		.4byte	.LFE1
 738 01ad 58000000 		.4byte	.LLST0
 739 01b1 01       		.byte	0x1
 740 01b2 F3010000 		.4byte	0x1f3
 741 01b6 13       		.uleb128 0x13
ARM GAS  C:\Users\Diogo\AppData\Local\Temp\ccbGD2w3.s 			page 17


 742 01b7 67000000 		.4byte	.LASF12
 743 01bb 01       		.byte	0x1
 744 01bc 19       		.byte	0x19
 745 01bd D2000000 		.4byte	0xd2
 746 01c1 84000000 		.4byte	.LLST1
 747 01c5 13       		.uleb128 0x13
 748 01c6 21010000 		.4byte	.LASF11
 749 01ca 01       		.byte	0x1
 750 01cb 19       		.byte	0x19
 751 01cc C5000000 		.4byte	0xc5
 752 01d0 DC000000 		.4byte	.LLST2
 753 01d4 13       		.uleb128 0x13
 754 01d5 5D000000 		.4byte	.LASF21
 755 01d9 01       		.byte	0x1
 756 01da 19       		.byte	0x19
 757 01db 76000000 		.4byte	0x76
 758 01df FD000000 		.4byte	.LLST3
 759 01e3 12       		.uleb128 0x12
 760 01e4 08000000 		.4byte	.LASF23
 761 01e8 01       		.byte	0x1
 762 01e9 1B       		.byte	0x1b
 763 01ea 76000000 		.4byte	0x76
 764 01ee 40010000 		.4byte	.LLST4
 765 01f2 00       		.byte	0
 766 01f3 14       		.uleb128 0x14
 767 01f4 01       		.byte	0x1
 768 01f5 4E010000 		.4byte	.LASF29
 769 01f9 01       		.byte	0x1
 770 01fa 14       		.byte	0x14
 771 01fb 01       		.byte	0x1
 772 01fc 76000000 		.4byte	0x76
 773 0200 00000000 		.4byte	.LFB0
 774 0204 0C000000 		.4byte	.LFE0
 775 0208 02       		.byte	0x2
 776 0209 7D       		.byte	0x7d
 777 020a 00       		.sleb128 0
 778 020b 01       		.byte	0x1
 779 020c 00       		.byte	0
 780              		.section	.debug_abbrev,"",%progbits
 781              	.Ldebug_abbrev0:
 782 0000 01       		.uleb128 0x1
 783 0001 11       		.uleb128 0x11
 784 0002 01       		.byte	0x1
 785 0003 25       		.uleb128 0x25
 786 0004 0E       		.uleb128 0xe
 787 0005 13       		.uleb128 0x13
 788 0006 0B       		.uleb128 0xb
 789 0007 03       		.uleb128 0x3
 790 0008 0E       		.uleb128 0xe
 791 0009 1B       		.uleb128 0x1b
 792 000a 0E       		.uleb128 0xe
 793 000b 11       		.uleb128 0x11
 794 000c 01       		.uleb128 0x1
 795 000d 12       		.uleb128 0x12
 796 000e 01       		.uleb128 0x1
 797 000f 10       		.uleb128 0x10
 798 0010 06       		.uleb128 0x6
ARM GAS  C:\Users\Diogo\AppData\Local\Temp\ccbGD2w3.s 			page 18


 799 0011 00       		.byte	0
 800 0012 00       		.byte	0
 801 0013 02       		.uleb128 0x2
 802 0014 24       		.uleb128 0x24
 803 0015 00       		.byte	0
 804 0016 0B       		.uleb128 0xb
 805 0017 0B       		.uleb128 0xb
 806 0018 3E       		.uleb128 0x3e
 807 0019 0B       		.uleb128 0xb
 808 001a 03       		.uleb128 0x3
 809 001b 0E       		.uleb128 0xe
 810 001c 00       		.byte	0
 811 001d 00       		.byte	0
 812 001e 03       		.uleb128 0x3
 813 001f 16       		.uleb128 0x16
 814 0020 00       		.byte	0
 815 0021 03       		.uleb128 0x3
 816 0022 0E       		.uleb128 0xe
 817 0023 3A       		.uleb128 0x3a
 818 0024 0B       		.uleb128 0xb
 819 0025 3B       		.uleb128 0x3b
 820 0026 0B       		.uleb128 0xb
 821 0027 49       		.uleb128 0x49
 822 0028 13       		.uleb128 0x13
 823 0029 00       		.byte	0
 824 002a 00       		.byte	0
 825 002b 04       		.uleb128 0x4
 826 002c 24       		.uleb128 0x24
 827 002d 00       		.byte	0
 828 002e 0B       		.uleb128 0xb
 829 002f 0B       		.uleb128 0xb
 830 0030 3E       		.uleb128 0x3e
 831 0031 0B       		.uleb128 0xb
 832 0032 03       		.uleb128 0x3
 833 0033 08       		.uleb128 0x8
 834 0034 00       		.byte	0
 835 0035 00       		.byte	0
 836 0036 05       		.uleb128 0x5
 837 0037 13       		.uleb128 0x13
 838 0038 01       		.byte	0x1
 839 0039 03       		.uleb128 0x3
 840 003a 0E       		.uleb128 0xe
 841 003b 0B       		.uleb128 0xb
 842 003c 0B       		.uleb128 0xb
 843 003d 3A       		.uleb128 0x3a
 844 003e 0B       		.uleb128 0xb
 845 003f 3B       		.uleb128 0x3b
 846 0040 0B       		.uleb128 0xb
 847 0041 01       		.uleb128 0x1
 848 0042 13       		.uleb128 0x13
 849 0043 00       		.byte	0
 850 0044 00       		.byte	0
 851 0045 06       		.uleb128 0x6
 852 0046 0D       		.uleb128 0xd
 853 0047 00       		.byte	0
 854 0048 03       		.uleb128 0x3
 855 0049 0E       		.uleb128 0xe
ARM GAS  C:\Users\Diogo\AppData\Local\Temp\ccbGD2w3.s 			page 19


 856 004a 3A       		.uleb128 0x3a
 857 004b 0B       		.uleb128 0xb
 858 004c 3B       		.uleb128 0x3b
 859 004d 0B       		.uleb128 0xb
 860 004e 49       		.uleb128 0x49
 861 004f 13       		.uleb128 0x13
 862 0050 38       		.uleb128 0x38
 863 0051 0A       		.uleb128 0xa
 864 0052 00       		.byte	0
 865 0053 00       		.byte	0
 866 0054 07       		.uleb128 0x7
 867 0055 0D       		.uleb128 0xd
 868 0056 00       		.byte	0
 869 0057 03       		.uleb128 0x3
 870 0058 08       		.uleb128 0x8
 871 0059 3A       		.uleb128 0x3a
 872 005a 0B       		.uleb128 0xb
 873 005b 3B       		.uleb128 0x3b
 874 005c 0B       		.uleb128 0xb
 875 005d 49       		.uleb128 0x49
 876 005e 13       		.uleb128 0x13
 877 005f 38       		.uleb128 0x38
 878 0060 0A       		.uleb128 0xa
 879 0061 00       		.byte	0
 880 0062 00       		.byte	0
 881 0063 08       		.uleb128 0x8
 882 0064 0F       		.uleb128 0xf
 883 0065 00       		.byte	0
 884 0066 0B       		.uleb128 0xb
 885 0067 0B       		.uleb128 0xb
 886 0068 49       		.uleb128 0x49
 887 0069 13       		.uleb128 0x13
 888 006a 00       		.byte	0
 889 006b 00       		.byte	0
 890 006c 09       		.uleb128 0x9
 891 006d 15       		.uleb128 0x15
 892 006e 01       		.byte	0x1
 893 006f 01       		.uleb128 0x1
 894 0070 13       		.uleb128 0x13
 895 0071 00       		.byte	0
 896 0072 00       		.byte	0
 897 0073 0A       		.uleb128 0xa
 898 0074 18       		.uleb128 0x18
 899 0075 00       		.byte	0
 900 0076 00       		.byte	0
 901 0077 00       		.byte	0
 902 0078 0B       		.uleb128 0xb
 903 0079 34       		.uleb128 0x34
 904 007a 00       		.byte	0
 905 007b 03       		.uleb128 0x3
 906 007c 0E       		.uleb128 0xe
 907 007d 3A       		.uleb128 0x3a
 908 007e 0B       		.uleb128 0xb
 909 007f 3B       		.uleb128 0x3b
 910 0080 0B       		.uleb128 0xb
 911 0081 49       		.uleb128 0x49
 912 0082 13       		.uleb128 0x13
ARM GAS  C:\Users\Diogo\AppData\Local\Temp\ccbGD2w3.s 			page 20


 913 0083 3F       		.uleb128 0x3f
 914 0084 0C       		.uleb128 0xc
 915 0085 02       		.uleb128 0x2
 916 0086 0A       		.uleb128 0xa
 917 0087 00       		.byte	0
 918 0088 00       		.byte	0
 919 0089 0C       		.uleb128 0xc
 920 008a 01       		.uleb128 0x1
 921 008b 01       		.byte	0x1
 922 008c 49       		.uleb128 0x49
 923 008d 13       		.uleb128 0x13
 924 008e 01       		.uleb128 0x1
 925 008f 13       		.uleb128 0x13
 926 0090 00       		.byte	0
 927 0091 00       		.byte	0
 928 0092 0D       		.uleb128 0xd
 929 0093 21       		.uleb128 0x21
 930 0094 00       		.byte	0
 931 0095 49       		.uleb128 0x49
 932 0096 13       		.uleb128 0x13
 933 0097 2F       		.uleb128 0x2f
 934 0098 0B       		.uleb128 0xb
 935 0099 00       		.byte	0
 936 009a 00       		.byte	0
 937 009b 0E       		.uleb128 0xe
 938 009c 2E       		.uleb128 0x2e
 939 009d 00       		.byte	0
 940 009e 3F       		.uleb128 0x3f
 941 009f 0C       		.uleb128 0xc
 942 00a0 03       		.uleb128 0x3
 943 00a1 0E       		.uleb128 0xe
 944 00a2 3A       		.uleb128 0x3a
 945 00a3 0B       		.uleb128 0xb
 946 00a4 3B       		.uleb128 0x3b
 947 00a5 0B       		.uleb128 0xb
 948 00a6 27       		.uleb128 0x27
 949 00a7 0C       		.uleb128 0xc
 950 00a8 11       		.uleb128 0x11
 951 00a9 01       		.uleb128 0x1
 952 00aa 12       		.uleb128 0x12
 953 00ab 01       		.uleb128 0x1
 954 00ac 40       		.uleb128 0x40
 955 00ad 0A       		.uleb128 0xa
 956 00ae 9742     		.uleb128 0x2117
 957 00b0 0C       		.uleb128 0xc
 958 00b1 00       		.byte	0
 959 00b2 00       		.byte	0
 960 00b3 0F       		.uleb128 0xf
 961 00b4 2E       		.uleb128 0x2e
 962 00b5 01       		.byte	0x1
 963 00b6 3F       		.uleb128 0x3f
 964 00b7 0C       		.uleb128 0xc
 965 00b8 03       		.uleb128 0x3
 966 00b9 0E       		.uleb128 0xe
 967 00ba 3A       		.uleb128 0x3a
 968 00bb 0B       		.uleb128 0xb
 969 00bc 3B       		.uleb128 0x3b
ARM GAS  C:\Users\Diogo\AppData\Local\Temp\ccbGD2w3.s 			page 21


 970 00bd 0B       		.uleb128 0xb
 971 00be 27       		.uleb128 0x27
 972 00bf 0C       		.uleb128 0xc
 973 00c0 11       		.uleb128 0x11
 974 00c1 01       		.uleb128 0x1
 975 00c2 12       		.uleb128 0x12
 976 00c3 01       		.uleb128 0x1
 977 00c4 40       		.uleb128 0x40
 978 00c5 06       		.uleb128 0x6
 979 00c6 9742     		.uleb128 0x2117
 980 00c8 0C       		.uleb128 0xc
 981 00c9 01       		.uleb128 0x1
 982 00ca 13       		.uleb128 0x13
 983 00cb 00       		.byte	0
 984 00cc 00       		.byte	0
 985 00cd 10       		.uleb128 0x10
 986 00ce 898201   		.uleb128 0x4109
 987 00d1 00       		.byte	0
 988 00d2 11       		.uleb128 0x11
 989 00d3 01       		.uleb128 0x1
 990 00d4 31       		.uleb128 0x31
 991 00d5 13       		.uleb128 0x13
 992 00d6 00       		.byte	0
 993 00d7 00       		.byte	0
 994 00d8 11       		.uleb128 0x11
 995 00d9 2E       		.uleb128 0x2e
 996 00da 01       		.byte	0x1
 997 00db 3F       		.uleb128 0x3f
 998 00dc 0C       		.uleb128 0xc
 999 00dd 03       		.uleb128 0x3
 1000 00de 0E       		.uleb128 0xe
 1001 00df 3A       		.uleb128 0x3a
 1002 00e0 0B       		.uleb128 0xb
 1003 00e1 3B       		.uleb128 0x3b
 1004 00e2 0B       		.uleb128 0xb
 1005 00e3 11       		.uleb128 0x11
 1006 00e4 01       		.uleb128 0x1
 1007 00e5 12       		.uleb128 0x12
 1008 00e6 01       		.uleb128 0x1
 1009 00e7 40       		.uleb128 0x40
 1010 00e8 0A       		.uleb128 0xa
 1011 00e9 9742     		.uleb128 0x2117
 1012 00eb 0C       		.uleb128 0xc
 1013 00ec 01       		.uleb128 0x1
 1014 00ed 13       		.uleb128 0x13
 1015 00ee 00       		.byte	0
 1016 00ef 00       		.byte	0
 1017 00f0 12       		.uleb128 0x12
 1018 00f1 34       		.uleb128 0x34
 1019 00f2 00       		.byte	0
 1020 00f3 03       		.uleb128 0x3
 1021 00f4 0E       		.uleb128 0xe
 1022 00f5 3A       		.uleb128 0x3a
 1023 00f6 0B       		.uleb128 0xb
 1024 00f7 3B       		.uleb128 0x3b
 1025 00f8 0B       		.uleb128 0xb
 1026 00f9 49       		.uleb128 0x49
ARM GAS  C:\Users\Diogo\AppData\Local\Temp\ccbGD2w3.s 			page 22


 1027 00fa 13       		.uleb128 0x13
 1028 00fb 02       		.uleb128 0x2
 1029 00fc 06       		.uleb128 0x6
 1030 00fd 00       		.byte	0
 1031 00fe 00       		.byte	0
 1032 00ff 13       		.uleb128 0x13
 1033 0100 05       		.uleb128 0x5
 1034 0101 00       		.byte	0
 1035 0102 03       		.uleb128 0x3
 1036 0103 0E       		.uleb128 0xe
 1037 0104 3A       		.uleb128 0x3a
 1038 0105 0B       		.uleb128 0xb
 1039 0106 3B       		.uleb128 0x3b
 1040 0107 0B       		.uleb128 0xb
 1041 0108 49       		.uleb128 0x49
 1042 0109 13       		.uleb128 0x13
 1043 010a 02       		.uleb128 0x2
 1044 010b 06       		.uleb128 0x6
 1045 010c 00       		.byte	0
 1046 010d 00       		.byte	0
 1047 010e 14       		.uleb128 0x14
 1048 010f 2E       		.uleb128 0x2e
 1049 0110 00       		.byte	0
 1050 0111 3F       		.uleb128 0x3f
 1051 0112 0C       		.uleb128 0xc
 1052 0113 03       		.uleb128 0x3
 1053 0114 0E       		.uleb128 0xe
 1054 0115 3A       		.uleb128 0x3a
 1055 0116 0B       		.uleb128 0xb
 1056 0117 3B       		.uleb128 0x3b
 1057 0118 0B       		.uleb128 0xb
 1058 0119 27       		.uleb128 0x27
 1059 011a 0C       		.uleb128 0xc
 1060 011b 49       		.uleb128 0x49
 1061 011c 13       		.uleb128 0x13
 1062 011d 11       		.uleb128 0x11
 1063 011e 01       		.uleb128 0x1
 1064 011f 12       		.uleb128 0x12
 1065 0120 01       		.uleb128 0x1
 1066 0121 40       		.uleb128 0x40
 1067 0122 0A       		.uleb128 0xa
 1068 0123 9742     		.uleb128 0x2117
 1069 0125 0C       		.uleb128 0xc
 1070 0126 00       		.byte	0
 1071 0127 00       		.byte	0
 1072 0128 00       		.byte	0
 1073              		.section	.debug_loc,"",%progbits
 1074              	.Ldebug_loc0:
 1075              	.LLST6:
 1076 0000 EC000000 		.4byte	.LFB3-.Ltext0
 1077 0004 EE000000 		.4byte	.LCFI2-.Ltext0
 1078 0008 0200     		.2byte	0x2
 1079 000a 7D       		.byte	0x7d
 1080 000b 00       		.sleb128 0
 1081 000c EE000000 		.4byte	.LCFI2-.Ltext0
 1082 0010 02010000 		.4byte	.LFE3-.Ltext0
 1083 0014 0200     		.2byte	0x2
ARM GAS  C:\Users\Diogo\AppData\Local\Temp\ccbGD2w3.s 			page 23


 1084 0016 7D       		.byte	0x7d
 1085 0017 08       		.sleb128 8
 1086 0018 00000000 		.4byte	0
 1087 001c 00000000 		.4byte	0
 1088              	.LLST5:
 1089 0020 C8000000 		.4byte	.LVL10-.Ltext0
 1090 0024 D2000000 		.4byte	.LVL11-.Ltext0
 1091 0028 0600     		.2byte	0x6
 1092 002a 9E       		.byte	0x9e
 1093 002b 04       		.uleb128 0x4
 1094 002c 10E000E0 		.4byte	0xe000e010
 1095 0030 D2000000 		.4byte	.LVL11-.Ltext0
 1096 0034 DA000000 		.4byte	.LVL12-.Ltext0
 1097 0038 0600     		.2byte	0x6
 1098 003a 9E       		.byte	0x9e
 1099 003b 04       		.uleb128 0x4
 1100 003c 14E000E0 		.4byte	0xe000e014
 1101 0040 DA000000 		.4byte	.LVL12-.Ltext0
 1102 0044 EC000000 		.4byte	.LFE2-.Ltext0
 1103 0048 0600     		.2byte	0x6
 1104 004a 9E       		.byte	0x9e
 1105 004b 04       		.uleb128 0x4
 1106 004c 18E000E0 		.4byte	0xe000e018
 1107 0050 00000000 		.4byte	0
 1108 0054 00000000 		.4byte	0
 1109              	.LLST0:
 1110 0058 0C000000 		.4byte	.LFB1-.Ltext0
 1111 005c 0E000000 		.4byte	.LCFI0-.Ltext0
 1112 0060 0200     		.2byte	0x2
 1113 0062 7D       		.byte	0x7d
 1114 0063 00       		.sleb128 0
 1115 0064 0E000000 		.4byte	.LCFI0-.Ltext0
 1116 0068 BC000000 		.4byte	.LCFI1-.Ltext0
 1117 006c 0200     		.2byte	0x2
 1118 006e 7D       		.byte	0x7d
 1119 006f 0C       		.sleb128 12
 1120 0070 BC000000 		.4byte	.LCFI1-.Ltext0
 1121 0074 C8000000 		.4byte	.LFE1-.Ltext0
 1122 0078 0200     		.2byte	0x2
 1123 007a 7D       		.byte	0x7d
 1124 007b 00       		.sleb128 0
 1125 007c 00000000 		.4byte	0
 1126 0080 00000000 		.4byte	0
 1127              	.LLST1:
 1128 0084 0C000000 		.4byte	.LVL0-.Ltext0
 1129 0088 4E000000 		.4byte	.LVL5-.Ltext0
 1130 008c 0100     		.2byte	0x1
 1131 008e 50       		.byte	0x50
 1132 008f 4E000000 		.4byte	.LVL5-.Ltext0
 1133 0093 9E000000 		.4byte	.LVL7-.Ltext0
 1134 0097 0200     		.2byte	0x2
 1135 0099 73       		.byte	0x73
 1136 009a 7C       		.sleb128 -4
 1137 009b 9E000000 		.4byte	.LVL7-.Ltext0
 1138 009f AC000000 		.4byte	.LVL8-.Ltext0
 1139 00a3 0700     		.2byte	0x7
 1140 00a5 71       		.byte	0x71
ARM GAS  C:\Users\Diogo\AppData\Local\Temp\ccbGD2w3.s 			page 24


 1141 00a6 00       		.sleb128 0
 1142 00a7 74       		.byte	0x74
 1143 00a8 00       		.sleb128 0
 1144 00a9 22       		.byte	0x22
 1145 00aa 34       		.byte	0x34
 1146 00ab 1C       		.byte	0x1c
 1147 00ac AC000000 		.4byte	.LVL8-.Ltext0
 1148 00b0 AE000000 		.4byte	.LVL9-.Ltext0
 1149 00b4 1000     		.2byte	0x10
 1150 00b6 F3       		.byte	0xf3
 1151 00b7 01       		.uleb128 0x1
 1152 00b8 52       		.byte	0x52
 1153 00b9 23       		.byte	0x23
 1154 00ba FFFFFFFF 		.uleb128 0x3fffffff
 1154      03
 1155 00bf 32       		.byte	0x32
 1156 00c0 24       		.byte	0x24
 1157 00c1 71       		.byte	0x71
 1158 00c2 00       		.sleb128 0
 1159 00c3 22       		.byte	0x22
 1160 00c4 34       		.byte	0x34
 1161 00c5 1C       		.byte	0x1c
 1162 00c6 AE000000 		.4byte	.LVL9-.Ltext0
 1163 00ca C8000000 		.4byte	.LFE1-.Ltext0
 1164 00ce 0400     		.2byte	0x4
 1165 00d0 F3       		.byte	0xf3
 1166 00d1 01       		.uleb128 0x1
 1167 00d2 50       		.byte	0x50
 1168 00d3 9F       		.byte	0x9f
 1169 00d4 00000000 		.4byte	0
 1170 00d8 00000000 		.4byte	0
 1171              	.LLST2:
 1172 00dc 0C000000 		.4byte	.LVL0-.Ltext0
 1173 00e0 AE000000 		.4byte	.LVL9-.Ltext0
 1174 00e4 0100     		.2byte	0x1
 1175 00e6 51       		.byte	0x51
 1176 00e7 AE000000 		.4byte	.LVL9-.Ltext0
 1177 00eb C8000000 		.4byte	.LFE1-.Ltext0
 1178 00ef 0400     		.2byte	0x4
 1179 00f1 F3       		.byte	0xf3
 1180 00f2 01       		.uleb128 0x1
 1181 00f3 51       		.byte	0x51
 1182 00f4 9F       		.byte	0x9f
 1183 00f5 00000000 		.4byte	0
 1184 00f9 00000000 		.4byte	0
 1185              	.LLST3:
 1186 00fd 0C000000 		.4byte	.LVL0-.Ltext0
 1187 0101 3A000000 		.4byte	.LVL3-.Ltext0
 1188 0105 0100     		.2byte	0x1
 1189 0107 52       		.byte	0x52
 1190 0108 3A000000 		.4byte	.LVL3-.Ltext0
 1191 010c 3C000000 		.4byte	.LVL4-.Ltext0
 1192 0110 0700     		.2byte	0x7
 1193 0112 72       		.byte	0x72
 1194 0113 80808080 		.sleb128 -1073741824
 1194      7C
 1195 0118 9F       		.byte	0x9f
ARM GAS  C:\Users\Diogo\AppData\Local\Temp\ccbGD2w3.s 			page 25


 1196 0119 3C000000 		.4byte	.LVL4-.Ltext0
 1197 011d 54000000 		.4byte	.LVL6-.Ltext0
 1198 0121 0700     		.2byte	0x7
 1199 0123 72       		.byte	0x72
 1200 0124 81808080 		.sleb128 -1073741823
 1200      7C
 1201 0129 9F       		.byte	0x9f
 1202 012a 54000000 		.4byte	.LVL6-.Ltext0
 1203 012e C8000000 		.4byte	.LFE1-.Ltext0
 1204 0132 0400     		.2byte	0x4
 1205 0134 F3       		.byte	0xf3
 1206 0135 01       		.uleb128 0x1
 1207 0136 52       		.byte	0x52
 1208 0137 9F       		.byte	0x9f
 1209 0138 00000000 		.4byte	0
 1210 013c 00000000 		.4byte	0
 1211              	.LLST4:
 1212 0140 24000000 		.4byte	.LVL1-.Ltext0
 1213 0144 2E000000 		.4byte	.LVL2-.Ltext0
 1214 0148 0200     		.2byte	0x2
 1215 014a 30       		.byte	0x30
 1216 014b 9F       		.byte	0x9f
 1217 014c 00000000 		.4byte	0
 1218 0150 00000000 		.4byte	0
 1219              		.section	.debug_aranges,"",%progbits
 1220 0000 1C000000 		.4byte	0x1c
 1221 0004 0200     		.2byte	0x2
 1222 0006 00000000 		.4byte	.Ldebug_info0
 1223 000a 04       		.byte	0x4
 1224 000b 00       		.byte	0
 1225 000c 0000     		.2byte	0
 1226 000e 0000     		.2byte	0
 1227 0010 00000000 		.4byte	.Ltext0
 1228 0014 88010000 		.4byte	.Letext0-.Ltext0
 1229 0018 00000000 		.4byte	0
 1230 001c 00000000 		.4byte	0
 1231              		.section	.debug_line,"",%progbits
 1232              	.Ldebug_line0:
 1233 0000 83010000 		.section	.debug_str,"MS",%progbits,1
 1233      02000A01 
 1233      00000201 
 1233      FB0E0D00 
 1233      01010101 
 1234              	.LASF17:
 1235 0000 54687265 		.ascii	"Threads\000"
 1235      61647300 
 1236              	.LASF23:
 1237 0008 496E6465 		.ascii	"Index\000"
 1237      7800
 1238              	.LASF26:
 1239 000e 443A5C55 		.ascii	"D:\\UTFPR\\SISTEMAS OPERACIONAIS\\SO-threads\000"
 1239      54465052 
 1239      5C534953 
 1239      54454D41 
 1239      53204F50 
 1240              	.LASF27:
 1241 0038 53797354 		.ascii	"SysTick_Handler\000"
ARM GAS  C:\Users\Diogo\AppData\Local\Temp\ccbGD2w3.s 			page 26


 1241      69636B5F 
 1241      48616E64 
 1241      6C657200 
 1242              	.LASF4:
 1243 0048 6C6F6E67 		.ascii	"long int\000"
 1243      20696E74 
 1243      00
 1244              	.LASF15:
 1245 0051 54687265 		.ascii	"ThreadIndex\000"
 1245      6164496E 
 1245      64657800 
 1246              	.LASF21:
 1247 005d 53746163 		.ascii	"StackSize\000"
 1247      6B53697A 
 1247      6500
 1248              	.LASF12:
 1249 0067 54687265 		.ascii	"ThreadFn\000"
 1249      6164466E 
 1249      00
 1250              	.LASF1:
 1251 0070 756E7369 		.ascii	"unsigned char\000"
 1251      676E6564 
 1251      20636861 
 1251      7200
 1252              	.LASF5:
 1253 007e 6C6F6E67 		.ascii	"long unsigned int\000"
 1253      20756E73 
 1253      69676E65 
 1253      6420696E 
 1253      7400
 1254              	.LASF3:
 1255 0090 73686F72 		.ascii	"short unsigned int\000"
 1255      7420756E 
 1255      7369676E 
 1255      65642069 
 1255      6E7400
 1256              	.LASF28:
 1257 00a3 696E6974 		.ascii	"initSysTick\000"
 1257      53797354 
 1257      69636B00 
 1258              	.LASF9:
 1259 00af 5F5F7569 		.ascii	"__uint32_t\000"
 1259      6E743332 
 1259      5F7400
 1260              	.LASF25:
 1261 00ba 54687265 		.ascii	"Threads/thread.c\000"
 1261      6164732F 
 1261      74687265 
 1261      61642E63 
 1261      00
 1262              	.LASF13:
 1263 00cb 41747472 		.ascii	"Attributes\000"
 1263      69627574 
 1263      657300
 1264              	.LASF16:
 1265 00d6 54687265 		.ascii	"ThreadCount\000"
 1265      6164436F 
ARM GAS  C:\Users\Diogo\AppData\Local\Temp\ccbGD2w3.s 			page 27


 1265      756E7400 
 1266              	.LASF8:
 1267 00e2 756E7369 		.ascii	"unsigned int\000"
 1267      676E6564 
 1267      20696E74 
 1267      00
 1268              	.LASF7:
 1269 00ef 6C6F6E67 		.ascii	"long long unsigned int\000"
 1269      206C6F6E 
 1269      6720756E 
 1269      7369676E 
 1269      65642069 
 1270              	.LASF19:
 1271 0106 73746172 		.ascii	"startSwitcher\000"
 1271      74537769 
 1271      74636865 
 1271      7200
 1272              	.LASF20:
 1273 0114 63726561 		.ascii	"createThread\000"
 1273      74655468 
 1273      72656164 
 1273      00
 1274              	.LASF11:
 1275 0121 54687265 		.ascii	"ThreadStack\000"
 1275      61645374 
 1275      61636B00 
 1276              	.LASF14:
 1277 012d 54687265 		.ascii	"ThreadControlBlock\000"
 1277      6164436F 
 1277      6E74726F 
 1277      6C426C6F 
 1277      636B00
 1278              	.LASF6:
 1279 0140 6C6F6E67 		.ascii	"long long int\000"
 1279      206C6F6E 
 1279      6720696E 
 1279      7400
 1280              	.LASF29:
 1281 014e 67657443 		.ascii	"getCurrentThread\000"
 1281      75727265 
 1281      6E745468 
 1281      72656164 
 1281      00
 1282              	.LASF2:
 1283 015f 73686F72 		.ascii	"short int\000"
 1283      7420696E 
 1283      7400
 1284              	.LASF10:
 1285 0169 75696E74 		.ascii	"uint32_t\000"
 1285      33325F74 
 1285      00
 1286              	.LASF24:
 1287 0172 474E5520 		.ascii	"GNU C11 7.3.1 20180622 (release) [ARM/embedded-7-br"
 1287      43313120 
 1287      372E332E 
 1287      31203230 
 1287      31383036 
ARM GAS  C:\Users\Diogo\AppData\Local\Temp\ccbGD2w3.s 			page 28


 1288 01a5 616E6368 		.ascii	"anch revision 261907] -mcpu=cortex-m4 -mthumb -mapc"
 1288      20726576 
 1288      6973696F 
 1288      6E203236 
 1288      31393037 
 1289 01d8 732D6672 		.ascii	"s-frame -mthumb-interwork -gdwarf-2 -O\000"
 1289      616D6520 
 1289      2D6D7468 
 1289      756D622D 
 1289      696E7465 
 1290              	.LASF18:
 1291 01ff 5443425F 		.ascii	"TCB_Size\000"
 1291      53697A65 
 1291      00
 1292              	.LASF0:
 1293 0208 7369676E 		.ascii	"signed char\000"
 1293      65642063 
 1293      68617200 
 1294              	.LASF22:
 1295 0214 41444452 		.ascii	"ADDR_MEMORY\000"
 1295      5F4D454D 
 1295      4F525900 
 1296              		.ident	"GCC: (GNU Tools for Arm Embedded Processors 7-2018-q2-update) 7.3.1 20180622 (release) [AR
ARM GAS  C:\Users\Diogo\AppData\Local\Temp\ccbGD2w3.s 			page 29


DEFINED SYMBOLS
                            *ABS*:00000000 thread.c
C:\Users\Diogo\AppData\Local\Temp\ccbGD2w3.s:15     .text:00000000 $t
C:\Users\Diogo\AppData\Local\Temp\ccbGD2w3.s:22     .text:00000000 getCurrentThread
C:\Users\Diogo\AppData\Local\Temp\ccbGD2w3.s:37     .text:00000008 $d
C:\Users\Diogo\AppData\Local\Temp\ccbGD2w3.s:41     .text:0000000c $t
C:\Users\Diogo\AppData\Local\Temp\ccbGD2w3.s:48     .text:0000000c createThread
C:\Users\Diogo\AppData\Local\Temp\ccbGD2w3.s:188    .text:000000c0 $d
                            *COM*:00000640 Threads
C:\Users\Diogo\AppData\Local\Temp\ccbGD2w3.s:193    .text:000000c8 $t
C:\Users\Diogo\AppData\Local\Temp\ccbGD2w3.s:200    .text:000000c8 initSysTick
C:\Users\Diogo\AppData\Local\Temp\ccbGD2w3.s:228    .text:000000e4 $d
C:\Users\Diogo\AppData\Local\Temp\ccbGD2w3.s:233    .text:000000ec $t
C:\Users\Diogo\AppData\Local\Temp\ccbGD2w3.s:240    .text:000000ec startSwitcher
C:\Users\Diogo\AppData\Local\Temp\ccbGD2w3.s:290    .text:00000102 SysTick_Handler
C:\Users\Diogo\AppData\Local\Temp\ccbGD2w3.s:505    .data:00000000 TCB_Size
C:\Users\Diogo\AppData\Local\Temp\ccbGD2w3.s:512    .bss:00000000 ThreadIndex
C:\Users\Diogo\AppData\Local\Temp\ccbGD2w3.s:493    .text:00000184 $d
C:\Users\Diogo\AppData\Local\Temp\ccbGD2w3.s:516    .bss:00000004 ThreadCount
C:\Users\Diogo\AppData\Local\Temp\ccbGD2w3.s:502    .data:00000000 $d
C:\Users\Diogo\AppData\Local\Temp\ccbGD2w3.s:508    .bss:00000000 $d
C:\Users\Diogo\AppData\Local\Temp\ccbGD2w3.s:1296   .text:00000188 $d

NO UNDEFINED SYMBOLS
